ARM GAS  C:\Users\miker\AppData\Local\Temp\ccyxJrri.s 			page 1


   1              		.syntax unified
   2              		.cpu cortex-m3
   3              		.fpu softvfp
   4              		.eabi_attribute 20, 1
   5              		.eabi_attribute 21, 1
   6              		.eabi_attribute 23, 3
   7              		.eabi_attribute 24, 1
   8              		.eabi_attribute 25, 1
   9              		.eabi_attribute 26, 1
  10              		.eabi_attribute 30, 1
  11              		.eabi_attribute 34, 1
  12              		.eabi_attribute 18, 4
  13              		.thumb
  14              		.file	"cyfitter_cfg.c"
  15              		.text
  16              	.Ltext0:
  17              		.cfi_sections	.debug_frame
  18              		.section	.text.CyClockStartupError,"ax",%progbits
  19              		.align	2
  20              		.thumb
  21              		.thumb_func
  22              		.type	CyClockStartupError, %function
  23              	CyClockStartupError:
  24              	.LFB3:
  25              		.file 1 "Generated_Source\\PSoC5\\cyfitter_cfg.c"
   1:Generated_Source\PSoC5/cyfitter_cfg.c **** /*******************************************************************************
   2:Generated_Source\PSoC5/cyfitter_cfg.c **** * File Name: cyfitter_cfg.c
   3:Generated_Source\PSoC5/cyfitter_cfg.c **** * 
   4:Generated_Source\PSoC5/cyfitter_cfg.c **** * PSoC Creator  4.0
   5:Generated_Source\PSoC5/cyfitter_cfg.c **** *
   6:Generated_Source\PSoC5/cyfitter_cfg.c **** * Description:
   7:Generated_Source\PSoC5/cyfitter_cfg.c **** * This file contains device initialization code.
   8:Generated_Source\PSoC5/cyfitter_cfg.c **** * Except for the user defined sections in CyClockStartupError(), this file should not be modified.
   9:Generated_Source\PSoC5/cyfitter_cfg.c **** * This file is automatically generated by PSoC Creator.
  10:Generated_Source\PSoC5/cyfitter_cfg.c **** *
  11:Generated_Source\PSoC5/cyfitter_cfg.c **** ********************************************************************************
  12:Generated_Source\PSoC5/cyfitter_cfg.c **** * Copyright (c) 2007-2016 Cypress Semiconductor.  All rights reserved.
  13:Generated_Source\PSoC5/cyfitter_cfg.c **** * You may use this file only in accordance with the license, terms, conditions, 
  14:Generated_Source\PSoC5/cyfitter_cfg.c **** * disclaimers, and limitations in the end user license agreement accompanying 
  15:Generated_Source\PSoC5/cyfitter_cfg.c **** * the software package with which this file was provided.
  16:Generated_Source\PSoC5/cyfitter_cfg.c **** ********************************************************************************/
  17:Generated_Source\PSoC5/cyfitter_cfg.c **** 
  18:Generated_Source\PSoC5/cyfitter_cfg.c **** #include <string.h>
  19:Generated_Source\PSoC5/cyfitter_cfg.c **** #include "cytypes.h"
  20:Generated_Source\PSoC5/cyfitter_cfg.c **** #include "cydevice_trm.h"
  21:Generated_Source\PSoC5/cyfitter_cfg.c **** #include "cyfitter.h"
  22:Generated_Source\PSoC5/cyfitter_cfg.c **** #include "CyLib.h"
  23:Generated_Source\PSoC5/cyfitter_cfg.c **** #include "cyfitter_cfg.h"
  24:Generated_Source\PSoC5/cyfitter_cfg.c **** #include "cyapicallbacks.h"
  25:Generated_Source\PSoC5/cyfitter_cfg.c **** 
  26:Generated_Source\PSoC5/cyfitter_cfg.c **** #define CY_NEED_CYCLOCKSTARTUPERROR 1
  27:Generated_Source\PSoC5/cyfitter_cfg.c **** 
  28:Generated_Source\PSoC5/cyfitter_cfg.c **** 
  29:Generated_Source\PSoC5/cyfitter_cfg.c **** #if defined(__GNUC__) || defined(__ARMCC_VERSION)
  30:Generated_Source\PSoC5/cyfitter_cfg.c ****     #define CYPACKED 
  31:Generated_Source\PSoC5/cyfitter_cfg.c ****     #define CYPACKED_ATTR __attribute__ ((packed))
  32:Generated_Source\PSoC5/cyfitter_cfg.c ****     #define CYALIGNED __attribute__ ((aligned))
ARM GAS  C:\Users\miker\AppData\Local\Temp\ccyxJrri.s 			page 2


  33:Generated_Source\PSoC5/cyfitter_cfg.c ****     #define CY_CFG_UNUSED __attribute__ ((unused))
  34:Generated_Source\PSoC5/cyfitter_cfg.c ****     #ifndef CY_CFG_SECTION
  35:Generated_Source\PSoC5/cyfitter_cfg.c ****         #define CY_CFG_SECTION __attribute__ ((section(".psocinit")))
  36:Generated_Source\PSoC5/cyfitter_cfg.c ****     #endif
  37:Generated_Source\PSoC5/cyfitter_cfg.c ****     
  38:Generated_Source\PSoC5/cyfitter_cfg.c ****     #if defined(__ARMCC_VERSION)
  39:Generated_Source\PSoC5/cyfitter_cfg.c ****         #define CY_CFG_MEMORY_BARRIER() __memory_changed()
  40:Generated_Source\PSoC5/cyfitter_cfg.c ****     #else
  41:Generated_Source\PSoC5/cyfitter_cfg.c ****         #define CY_CFG_MEMORY_BARRIER() __sync_synchronize()
  42:Generated_Source\PSoC5/cyfitter_cfg.c ****     #endif
  43:Generated_Source\PSoC5/cyfitter_cfg.c ****     
  44:Generated_Source\PSoC5/cyfitter_cfg.c **** #elif defined(__ICCARM__)
  45:Generated_Source\PSoC5/cyfitter_cfg.c ****     #include <intrinsics.h>
  46:Generated_Source\PSoC5/cyfitter_cfg.c **** 
  47:Generated_Source\PSoC5/cyfitter_cfg.c ****     #define CYPACKED __packed
  48:Generated_Source\PSoC5/cyfitter_cfg.c ****     #define CYPACKED_ATTR 
  49:Generated_Source\PSoC5/cyfitter_cfg.c ****     #define CYALIGNED _Pragma("data_alignment=4")
  50:Generated_Source\PSoC5/cyfitter_cfg.c ****     #define CY_CFG_UNUSED _Pragma("diag_suppress=Pe177")
  51:Generated_Source\PSoC5/cyfitter_cfg.c ****     #define CY_CFG_SECTION _Pragma("location=\".psocinit\"")
  52:Generated_Source\PSoC5/cyfitter_cfg.c ****     
  53:Generated_Source\PSoC5/cyfitter_cfg.c ****     #define CY_CFG_MEMORY_BARRIER() __DMB()
  54:Generated_Source\PSoC5/cyfitter_cfg.c ****     
  55:Generated_Source\PSoC5/cyfitter_cfg.c **** #else
  56:Generated_Source\PSoC5/cyfitter_cfg.c ****     #error Unsupported toolchain
  57:Generated_Source\PSoC5/cyfitter_cfg.c **** #endif
  58:Generated_Source\PSoC5/cyfitter_cfg.c **** 
  59:Generated_Source\PSoC5/cyfitter_cfg.c **** 
  60:Generated_Source\PSoC5/cyfitter_cfg.c **** CY_CFG_UNUSED
  61:Generated_Source\PSoC5/cyfitter_cfg.c **** static void CYMEMZERO(void *s, size_t n);
  62:Generated_Source\PSoC5/cyfitter_cfg.c **** CY_CFG_UNUSED
  63:Generated_Source\PSoC5/cyfitter_cfg.c **** static void CYMEMZERO(void *s, size_t n)
  64:Generated_Source\PSoC5/cyfitter_cfg.c **** {
  65:Generated_Source\PSoC5/cyfitter_cfg.c **** 	(void)memset(s, 0, n);
  66:Generated_Source\PSoC5/cyfitter_cfg.c **** }
  67:Generated_Source\PSoC5/cyfitter_cfg.c **** CY_CFG_UNUSED
  68:Generated_Source\PSoC5/cyfitter_cfg.c **** static void CYCONFIGCPY(void *dest, const void *src, size_t n);
  69:Generated_Source\PSoC5/cyfitter_cfg.c **** CY_CFG_UNUSED
  70:Generated_Source\PSoC5/cyfitter_cfg.c **** static void CYCONFIGCPY(void *dest, const void *src, size_t n)
  71:Generated_Source\PSoC5/cyfitter_cfg.c **** {
  72:Generated_Source\PSoC5/cyfitter_cfg.c **** 	(void)memcpy(dest, src, n);
  73:Generated_Source\PSoC5/cyfitter_cfg.c **** }
  74:Generated_Source\PSoC5/cyfitter_cfg.c **** CY_CFG_UNUSED
  75:Generated_Source\PSoC5/cyfitter_cfg.c **** static void CYCONFIGCPYCODE(void *dest, const void *src, size_t n);
  76:Generated_Source\PSoC5/cyfitter_cfg.c **** CY_CFG_UNUSED
  77:Generated_Source\PSoC5/cyfitter_cfg.c **** static void CYCONFIGCPYCODE(void *dest, const void *src, size_t n)
  78:Generated_Source\PSoC5/cyfitter_cfg.c **** {
  79:Generated_Source\PSoC5/cyfitter_cfg.c **** 	(void)memcpy(dest, src, n);
  80:Generated_Source\PSoC5/cyfitter_cfg.c **** }
  81:Generated_Source\PSoC5/cyfitter_cfg.c **** 
  82:Generated_Source\PSoC5/cyfitter_cfg.c **** 
  83:Generated_Source\PSoC5/cyfitter_cfg.c **** 
  84:Generated_Source\PSoC5/cyfitter_cfg.c **** 
  85:Generated_Source\PSoC5/cyfitter_cfg.c **** /* Clock startup error codes                                                   */
  86:Generated_Source\PSoC5/cyfitter_cfg.c **** #define CYCLOCKSTART_NO_ERROR    0u
  87:Generated_Source\PSoC5/cyfitter_cfg.c **** #define CYCLOCKSTART_XTAL_ERROR  1u
  88:Generated_Source\PSoC5/cyfitter_cfg.c **** #define CYCLOCKSTART_32KHZ_ERROR 2u
  89:Generated_Source\PSoC5/cyfitter_cfg.c **** #define CYCLOCKSTART_PLL_ERROR   3u
ARM GAS  C:\Users\miker\AppData\Local\Temp\ccyxJrri.s 			page 3


  90:Generated_Source\PSoC5/cyfitter_cfg.c **** 
  91:Generated_Source\PSoC5/cyfitter_cfg.c **** 
  92:Generated_Source\PSoC5/cyfitter_cfg.c **** #ifdef CY_NEED_CYCLOCKSTARTUPERROR
  93:Generated_Source\PSoC5/cyfitter_cfg.c **** /*******************************************************************************
  94:Generated_Source\PSoC5/cyfitter_cfg.c **** * Function Name: CyClockStartupError
  95:Generated_Source\PSoC5/cyfitter_cfg.c **** ********************************************************************************
  96:Generated_Source\PSoC5/cyfitter_cfg.c **** * Summary:
  97:Generated_Source\PSoC5/cyfitter_cfg.c **** *  If an error is encountered during clock configuration (crystal startup error,
  98:Generated_Source\PSoC5/cyfitter_cfg.c **** *  PLL lock error, etc.), the system will end up here.  Unless reimplemented by
  99:Generated_Source\PSoC5/cyfitter_cfg.c **** *  the customer, this function will stop in an infinite loop.
 100:Generated_Source\PSoC5/cyfitter_cfg.c **** *
 101:Generated_Source\PSoC5/cyfitter_cfg.c **** * Parameters:
 102:Generated_Source\PSoC5/cyfitter_cfg.c **** *   void
 103:Generated_Source\PSoC5/cyfitter_cfg.c **** *
 104:Generated_Source\PSoC5/cyfitter_cfg.c **** * Return:
 105:Generated_Source\PSoC5/cyfitter_cfg.c **** *   void
 106:Generated_Source\PSoC5/cyfitter_cfg.c **** *
 107:Generated_Source\PSoC5/cyfitter_cfg.c **** *******************************************************************************/
 108:Generated_Source\PSoC5/cyfitter_cfg.c **** CY_CFG_UNUSED
 109:Generated_Source\PSoC5/cyfitter_cfg.c **** static void CyClockStartupError(uint8 errorCode);
 110:Generated_Source\PSoC5/cyfitter_cfg.c **** CY_CFG_UNUSED
 111:Generated_Source\PSoC5/cyfitter_cfg.c **** static void CyClockStartupError(uint8 errorCode)
 112:Generated_Source\PSoC5/cyfitter_cfg.c **** {
  26              		.loc 1 112 0
  27              		.cfi_startproc
  28              		@ Volatile: function does not return.
  29              		@ args = 0, pretend = 0, frame = 0
  30              		@ frame_needed = 0, uses_anonymous_args = 0
  31              		@ link register save eliminated.
  32              	.LVL0:
  33              	.L2:
 113:Generated_Source\PSoC5/cyfitter_cfg.c ****     /* To remove the compiler warning if errorCode not used.                */
 114:Generated_Source\PSoC5/cyfitter_cfg.c ****     errorCode = errorCode;
 115:Generated_Source\PSoC5/cyfitter_cfg.c **** 
 116:Generated_Source\PSoC5/cyfitter_cfg.c ****     /* If we have a clock startup error (bad MHz crystal, PLL lock, etc.),  */
 117:Generated_Source\PSoC5/cyfitter_cfg.c ****     /* we will end up here to allow the customer to implement something to  */
 118:Generated_Source\PSoC5/cyfitter_cfg.c ****     /* deal with the clock condition.                                       */
 119:Generated_Source\PSoC5/cyfitter_cfg.c **** 
 120:Generated_Source\PSoC5/cyfitter_cfg.c **** #ifdef CY_CFG_CLOCK_STARTUP_ERROR_CALLBACK
 121:Generated_Source\PSoC5/cyfitter_cfg.c **** 	CY_CFG_Clock_Startup_ErrorCallback();
 122:Generated_Source\PSoC5/cyfitter_cfg.c **** #else
 123:Generated_Source\PSoC5/cyfitter_cfg.c **** 	/*  If not using CY_CFG_CLOCK_STARTUP_ERROR_CALLBACK, place your clock startup code here. */
 124:Generated_Source\PSoC5/cyfitter_cfg.c ****     /* `#START CyClockStartupError` */
 125:Generated_Source\PSoC5/cyfitter_cfg.c **** 
 126:Generated_Source\PSoC5/cyfitter_cfg.c ****     /* If we have a clock startup error (bad MHz crystal, PLL lock, etc.),  */
 127:Generated_Source\PSoC5/cyfitter_cfg.c ****     /* we will end up here to allow the customer to implement something to  */
 128:Generated_Source\PSoC5/cyfitter_cfg.c ****     /* deal with the clock condition.                                       */
 129:Generated_Source\PSoC5/cyfitter_cfg.c **** 
 130:Generated_Source\PSoC5/cyfitter_cfg.c ****     /* `#END` */
 131:Generated_Source\PSoC5/cyfitter_cfg.c **** 
 132:Generated_Source\PSoC5/cyfitter_cfg.c ****     /* If nothing else, stop here since the clocks have not started         */
 133:Generated_Source\PSoC5/cyfitter_cfg.c ****     /* correctly.                                                           */
 134:Generated_Source\PSoC5/cyfitter_cfg.c ****     while(1) {}
  34              		.loc 1 134 0 discriminator 1
  35 0000 FEE7     		b	.L2
  36              		.cfi_endproc
  37              	.LFE3:
ARM GAS  C:\Users\miker\AppData\Local\Temp\ccyxJrri.s 			page 4


  38              		.size	CyClockStartupError, .-CyClockStartupError
  39 0002 00BF     		.section	.text.cfg_write_bytes32,"ax",%progbits
  40              		.align	2
  41              		.thumb
  42              		.thumb_func
  43              		.type	cfg_write_bytes32, %function
  44              	cfg_write_bytes32:
  45              	.LFB4:
 135:Generated_Source\PSoC5/cyfitter_cfg.c **** #endif /* CY_CFG_CLOCK_STARTUP_ERROR_CALLBACK */ 
 136:Generated_Source\PSoC5/cyfitter_cfg.c **** }
 137:Generated_Source\PSoC5/cyfitter_cfg.c **** #endif
 138:Generated_Source\PSoC5/cyfitter_cfg.c **** 
 139:Generated_Source\PSoC5/cyfitter_cfg.c **** #define CY_CFG_BASE_ADDR_COUNT 36u
 140:Generated_Source\PSoC5/cyfitter_cfg.c **** CYPACKED typedef struct
 141:Generated_Source\PSoC5/cyfitter_cfg.c **** {
 142:Generated_Source\PSoC5/cyfitter_cfg.c **** 	uint8 offset;
 143:Generated_Source\PSoC5/cyfitter_cfg.c **** 	uint8 value;
 144:Generated_Source\PSoC5/cyfitter_cfg.c **** } CYPACKED_ATTR cy_cfg_addrvalue_t;
 145:Generated_Source\PSoC5/cyfitter_cfg.c **** 
 146:Generated_Source\PSoC5/cyfitter_cfg.c **** 
 147:Generated_Source\PSoC5/cyfitter_cfg.c **** 
 148:Generated_Source\PSoC5/cyfitter_cfg.c **** /*******************************************************************************
 149:Generated_Source\PSoC5/cyfitter_cfg.c **** * Function Name: cfg_write_bytes32
 150:Generated_Source\PSoC5/cyfitter_cfg.c **** ********************************************************************************
 151:Generated_Source\PSoC5/cyfitter_cfg.c **** * Summary:
 152:Generated_Source\PSoC5/cyfitter_cfg.c **** *  This function is used for setting up the chip configuration areas that
 153:Generated_Source\PSoC5/cyfitter_cfg.c **** *  contain relatively sparse data.
 154:Generated_Source\PSoC5/cyfitter_cfg.c **** *
 155:Generated_Source\PSoC5/cyfitter_cfg.c **** * Parameters:
 156:Generated_Source\PSoC5/cyfitter_cfg.c **** *   void
 157:Generated_Source\PSoC5/cyfitter_cfg.c **** *
 158:Generated_Source\PSoC5/cyfitter_cfg.c **** * Return:
 159:Generated_Source\PSoC5/cyfitter_cfg.c **** *   void
 160:Generated_Source\PSoC5/cyfitter_cfg.c **** *
 161:Generated_Source\PSoC5/cyfitter_cfg.c **** *******************************************************************************/
 162:Generated_Source\PSoC5/cyfitter_cfg.c **** static void cfg_write_bytes32(const uint32 addr_table[], const cy_cfg_addrvalue_t data_table[]);
 163:Generated_Source\PSoC5/cyfitter_cfg.c **** static void cfg_write_bytes32(const uint32 addr_table[], const cy_cfg_addrvalue_t data_table[])
 164:Generated_Source\PSoC5/cyfitter_cfg.c **** {
  46              		.loc 1 164 0
  47              		.cfi_startproc
  48              		@ args = 0, pretend = 0, frame = 0
  49              		@ frame_needed = 0, uses_anonymous_args = 0
  50              		@ link register save eliminated.
  51              	.LVL1:
  52 0000 F0B4     		push	{r4, r5, r6, r7}
  53              		.cfi_def_cfa_offset 16
  54              		.cfi_offset 4, -16
  55              		.cfi_offset 5, -12
  56              		.cfi_offset 6, -8
  57              		.cfi_offset 7, -4
  58              	.LVL2:
 165:Generated_Source\PSoC5/cyfitter_cfg.c **** 	/* For 32-bit little-endian architectures */
 166:Generated_Source\PSoC5/cyfitter_cfg.c **** 	uint32 i, j = 0u;
  59              		.loc 1 166 0
  60 0002 0022     		movs	r2, #0
 167:Generated_Source\PSoC5/cyfitter_cfg.c **** 	for (i = 0u; i < CY_CFG_BASE_ADDR_COUNT; i++)
  61              		.loc 1 167 0
ARM GAS  C:\Users\miker\AppData\Local\Temp\ccyxJrri.s 			page 5


  62 0004 1746     		mov	r7, r2
  63 0006 11E0     		b	.L4
  64              	.LVL3:
  65              	.L7:
  66              	.LBB2:
 168:Generated_Source\PSoC5/cyfitter_cfg.c **** 	{
 169:Generated_Source\PSoC5/cyfitter_cfg.c **** 		uint32 baseAddr = addr_table[i];
  67              		.loc 1 169 0
  68 0008 50F82760 		ldr	r6, [r0, r7, lsl #2]
  69              	.LVL4:
 170:Generated_Source\PSoC5/cyfitter_cfg.c **** 		uint8 count = (uint8)baseAddr;
  70              		.loc 1 170 0
  71 000c F3B2     		uxtb	r3, r6
  72              	.LVL5:
 171:Generated_Source\PSoC5/cyfitter_cfg.c **** 		baseAddr &= 0xFFFFFF00u;
  73              		.loc 1 171 0
  74 000e 26F0FF06 		bic	r6, r6, #255
  75              	.LVL6:
 172:Generated_Source\PSoC5/cyfitter_cfg.c **** 		while (count != 0u)
  76              		.loc 1 172 0
  77 0012 08E0     		b	.L5
  78              	.L6:
 173:Generated_Source\PSoC5/cyfitter_cfg.c **** 		{
 174:Generated_Source\PSoC5/cyfitter_cfg.c **** 			CY_SET_XTND_REG8((void CYFAR *)(baseAddr + data_table[j].offset), data_table[j].value);
  79              		.loc 1 174 0
  80 0014 01EB4205 		add	r5, r1, r2, lsl #1
  81 0018 11F81240 		ldrb	r4, [r1, r2, lsl #1]	@ zero_extendqisi2
  82 001c 6D78     		ldrb	r5, [r5, #1]	@ zero_extendqisi2
  83 001e A555     		strb	r5, [r4, r6]
 175:Generated_Source\PSoC5/cyfitter_cfg.c **** 			j++;
  84              		.loc 1 175 0
  85 0020 0132     		adds	r2, r2, #1
  86              	.LVL7:
 176:Generated_Source\PSoC5/cyfitter_cfg.c **** 			count--;
  87              		.loc 1 176 0
  88 0022 013B     		subs	r3, r3, #1
  89              	.LVL8:
  90 0024 DBB2     		uxtb	r3, r3
  91              	.LVL9:
  92              	.L5:
 172:Generated_Source\PSoC5/cyfitter_cfg.c **** 		{
  93              		.loc 1 172 0
  94 0026 002B     		cmp	r3, #0
  95 0028 F4D1     		bne	.L6
  96              	.LBE2:
 167:Generated_Source\PSoC5/cyfitter_cfg.c **** 	{
  97              		.loc 1 167 0 discriminator 2
  98 002a 0137     		adds	r7, r7, #1
  99              	.LVL10:
 100              	.L4:
 167:Generated_Source\PSoC5/cyfitter_cfg.c **** 	{
 101              		.loc 1 167 0 is_stmt 0 discriminator 1
 102 002c 232F     		cmp	r7, #35
 103 002e EBD9     		bls	.L7
 177:Generated_Source\PSoC5/cyfitter_cfg.c **** 		}
 178:Generated_Source\PSoC5/cyfitter_cfg.c **** 	}
 179:Generated_Source\PSoC5/cyfitter_cfg.c **** }
ARM GAS  C:\Users\miker\AppData\Local\Temp\ccyxJrri.s 			page 6


 104              		.loc 1 179 0 is_stmt 1
 105 0030 F0BC     		pop	{r4, r5, r6, r7}
 106              		.cfi_restore 7
 107              		.cfi_restore 6
 108              		.cfi_restore 5
 109              		.cfi_restore 4
 110              		.cfi_def_cfa_offset 0
 111              	.LVL11:
 112 0032 7047     		bx	lr
 113              		.cfi_endproc
 114              	.LFE4:
 115              		.size	cfg_write_bytes32, .-cfg_write_bytes32
 116              		.section	.text.AnalogSetDefault,"ax",%progbits
 117              		.align	2
 118              		.thumb
 119              		.thumb_func
 120              		.type	AnalogSetDefault, %function
 121              	AnalogSetDefault:
 122              	.LFB6:
 180:Generated_Source\PSoC5/cyfitter_cfg.c **** 
 181:Generated_Source\PSoC5/cyfitter_cfg.c **** /*******************************************************************************
 182:Generated_Source\PSoC5/cyfitter_cfg.c **** * Function Name: ClockSetup
 183:Generated_Source\PSoC5/cyfitter_cfg.c **** ********************************************************************************
 184:Generated_Source\PSoC5/cyfitter_cfg.c **** *
 185:Generated_Source\PSoC5/cyfitter_cfg.c **** * Summary:
 186:Generated_Source\PSoC5/cyfitter_cfg.c **** *  Performs the initialization of all of the clocks in the device based on the
 187:Generated_Source\PSoC5/cyfitter_cfg.c **** *  settings in the Clock tab of the DWR.  This includes enabling the requested
 188:Generated_Source\PSoC5/cyfitter_cfg.c **** *  clocks and setting the necessary dividers to produce the desired frequency. 
 189:Generated_Source\PSoC5/cyfitter_cfg.c **** *
 190:Generated_Source\PSoC5/cyfitter_cfg.c **** * Parameters:
 191:Generated_Source\PSoC5/cyfitter_cfg.c **** *  void
 192:Generated_Source\PSoC5/cyfitter_cfg.c **** *
 193:Generated_Source\PSoC5/cyfitter_cfg.c **** * Return:
 194:Generated_Source\PSoC5/cyfitter_cfg.c **** *  void
 195:Generated_Source\PSoC5/cyfitter_cfg.c **** *
 196:Generated_Source\PSoC5/cyfitter_cfg.c **** *******************************************************************************/
 197:Generated_Source\PSoC5/cyfitter_cfg.c **** static void ClockSetup(void);
 198:Generated_Source\PSoC5/cyfitter_cfg.c **** static void ClockSetup(void)
 199:Generated_Source\PSoC5/cyfitter_cfg.c **** {
 200:Generated_Source\PSoC5/cyfitter_cfg.c **** 	/* CYDEV_CLKDIST_ACFG0_CFG0 Address: CYREG_CLKDIST_ACFG0_CFG0 Size (bytes): 4 */
 201:Generated_Source\PSoC5/cyfitter_cfg.c **** 	static const uint8 CYCODE BS_CYDEV_CLKDIST_ACFG0_CFG0_VAL[] = {
 202:Generated_Source\PSoC5/cyfitter_cfg.c **** 		0x01u, 0x00u, 0x11u, 0x01u};
 203:Generated_Source\PSoC5/cyfitter_cfg.c **** 
 204:Generated_Source\PSoC5/cyfitter_cfg.c **** 	uint32 timeout;
 205:Generated_Source\PSoC5/cyfitter_cfg.c **** 	uint8 pllLock;
 206:Generated_Source\PSoC5/cyfitter_cfg.c **** 
 207:Generated_Source\PSoC5/cyfitter_cfg.c **** 
 208:Generated_Source\PSoC5/cyfitter_cfg.c **** 	/* Configure Digital Clocks based on settings from Clock DWR */
 209:Generated_Source\PSoC5/cyfitter_cfg.c **** 	CY_SET_XTND_REG16((void CYFAR *)(CYREG_CLKDIST_DCFG0_CFG0), 0x0013u);
 210:Generated_Source\PSoC5/cyfitter_cfg.c **** 	CY_SET_XTND_REG8((void CYFAR *)(CYREG_CLKDIST_DCFG0_CFG0 + 0x2u), 0x19u);
 211:Generated_Source\PSoC5/cyfitter_cfg.c **** 	CY_SET_XTND_REG16((void CYFAR *)(CYREG_CLKDIST_DCFG1_CFG0), 0x005Fu);
 212:Generated_Source\PSoC5/cyfitter_cfg.c **** 	CY_SET_XTND_REG8((void CYFAR *)(CYREG_CLKDIST_DCFG1_CFG0 + 0x2u), 0x19u);
 213:Generated_Source\PSoC5/cyfitter_cfg.c **** 	CY_SET_XTND_REG16((void CYFAR *)(CYREG_CLKDIST_DCFG2_CFG0), 0x03E7u);
 214:Generated_Source\PSoC5/cyfitter_cfg.c **** 	CY_SET_XTND_REG8((void CYFAR *)(CYREG_CLKDIST_DCFG2_CFG0 + 0x2u), 0x1Bu);
 215:Generated_Source\PSoC5/cyfitter_cfg.c **** 	CY_SET_XTND_REG16((void CYFAR *)(CYREG_CLKDIST_DCFG3_CFG0), 0x270Fu);
 216:Generated_Source\PSoC5/cyfitter_cfg.c **** 	CY_SET_XTND_REG8((void CYFAR *)(CYREG_CLKDIST_DCFG3_CFG0 + 0x2u), 0x1Bu);
 217:Generated_Source\PSoC5/cyfitter_cfg.c **** 	CY_SET_XTND_REG16((void CYFAR *)(CYREG_CLKDIST_DCFG4_CFG0), 0x270Fu);
ARM GAS  C:\Users\miker\AppData\Local\Temp\ccyxJrri.s 			page 7


 218:Generated_Source\PSoC5/cyfitter_cfg.c **** 	CY_SET_XTND_REG8((void CYFAR *)(CYREG_CLKDIST_DCFG4_CFG0 + 0x2u), 0x1Bu);
 219:Generated_Source\PSoC5/cyfitter_cfg.c **** 	CY_SET_XTND_REG16((void CYFAR *)(CYREG_CLKDIST_DCFG5_CFG0), 0x30D3u);
 220:Generated_Source\PSoC5/cyfitter_cfg.c **** 	CY_SET_XTND_REG8((void CYFAR *)(CYREG_CLKDIST_DCFG5_CFG0 + 0x2u), 0x1Bu);
 221:Generated_Source\PSoC5/cyfitter_cfg.c **** 
 222:Generated_Source\PSoC5/cyfitter_cfg.c **** 	/* Configure Analog Clocks based on settings from Clock DWR */
 223:Generated_Source\PSoC5/cyfitter_cfg.c **** 	CYCONFIGCPYCODE((void CYFAR *)(CYREG_CLKDIST_ACFG0_CFG0), (const void CYCODE *)(BS_CYDEV_CLKDIST_A
 224:Generated_Source\PSoC5/cyfitter_cfg.c **** 
 225:Generated_Source\PSoC5/cyfitter_cfg.c **** 	/* Configure ILO based on settings from Clock DWR */
 226:Generated_Source\PSoC5/cyfitter_cfg.c **** 	CY_SET_XTND_REG8((void CYFAR *)(CYREG_SLOWCLK_ILO_CR0), 0x06u);
 227:Generated_Source\PSoC5/cyfitter_cfg.c **** 
 228:Generated_Source\PSoC5/cyfitter_cfg.c **** 	/* Configure IMO based on settings from Clock DWR */
 229:Generated_Source\PSoC5/cyfitter_cfg.c **** 	CY_SET_XTND_REG8((void CYFAR *)(CYREG_FASTCLK_IMO_CR), 0x52u);
 230:Generated_Source\PSoC5/cyfitter_cfg.c **** 	CY_SET_XTND_REG8((void CYFAR *)(CYREG_IMO_TR1), (CY_GET_XTND_REG8((void CYFAR *)CYREG_FLSHID_CUST_
 231:Generated_Source\PSoC5/cyfitter_cfg.c **** 
 232:Generated_Source\PSoC5/cyfitter_cfg.c **** 	/* Configure PLL based on settings from Clock DWR */
 233:Generated_Source\PSoC5/cyfitter_cfg.c **** 	CY_SET_XTND_REG16((void CYFAR *)(CYREG_FASTCLK_PLL_P), 0x0708u);
 234:Generated_Source\PSoC5/cyfitter_cfg.c **** 	CY_SET_XTND_REG16((void CYFAR *)(CYREG_FASTCLK_PLL_CFG0), 0x1251u);
 235:Generated_Source\PSoC5/cyfitter_cfg.c **** 	/* Wait up to 250us for the PLL to lock */
 236:Generated_Source\PSoC5/cyfitter_cfg.c **** 	pllLock = 0u;
 237:Generated_Source\PSoC5/cyfitter_cfg.c **** 	for (timeout = 250u / 10u; (timeout > 0u) && (pllLock != 0x03u); timeout--)
 238:Generated_Source\PSoC5/cyfitter_cfg.c **** 	{ 
 239:Generated_Source\PSoC5/cyfitter_cfg.c **** 		pllLock = 0x03u & ((uint8)((uint8)pllLock << 1) | ((CY_GET_XTND_REG8((void CYFAR *)CYREG_FASTCLK_
 240:Generated_Source\PSoC5/cyfitter_cfg.c **** 		CyDelayCycles(10u * 48u); /* Delay 10us based on 48MHz clock */
 241:Generated_Source\PSoC5/cyfitter_cfg.c **** 	}
 242:Generated_Source\PSoC5/cyfitter_cfg.c **** 	/* If we ran out of time the PLL didn't lock so go to the error function */
 243:Generated_Source\PSoC5/cyfitter_cfg.c **** 	if (timeout == 0u)
 244:Generated_Source\PSoC5/cyfitter_cfg.c **** 	{
 245:Generated_Source\PSoC5/cyfitter_cfg.c **** 		CyClockStartupError(CYCLOCKSTART_PLL_ERROR);
 246:Generated_Source\PSoC5/cyfitter_cfg.c **** 	}
 247:Generated_Source\PSoC5/cyfitter_cfg.c **** 
 248:Generated_Source\PSoC5/cyfitter_cfg.c **** 	/* Configure Bus/Master Clock based on settings from Clock DWR */
 249:Generated_Source\PSoC5/cyfitter_cfg.c **** 	CY_SET_XTND_REG16((void CYFAR *)(CYREG_CLKDIST_MSTR0), 0x0100u);
 250:Generated_Source\PSoC5/cyfitter_cfg.c **** 	CY_SET_XTND_REG8((void CYFAR *)(CYREG_CLKDIST_MSTR0), 0x07u);
 251:Generated_Source\PSoC5/cyfitter_cfg.c **** 	CY_SET_XTND_REG8((void CYFAR *)(CYREG_CLKDIST_BCFG0), 0x00u);
 252:Generated_Source\PSoC5/cyfitter_cfg.c **** 	CY_SET_XTND_REG8((void CYFAR *)(CYREG_CLKDIST_BCFG2), 0x48u);
 253:Generated_Source\PSoC5/cyfitter_cfg.c **** 	CY_SET_XTND_REG8((void CYFAR *)(CYREG_CLKDIST_MSTR0), 0x00u);
 254:Generated_Source\PSoC5/cyfitter_cfg.c **** 
 255:Generated_Source\PSoC5/cyfitter_cfg.c **** 	/* Configure USB Clock based on settings from Clock DWR */
 256:Generated_Source\PSoC5/cyfitter_cfg.c **** 	CY_SET_XTND_REG8((void CYFAR *)(CYREG_CLKDIST_UCFG), 0x00u);
 257:Generated_Source\PSoC5/cyfitter_cfg.c **** 	CY_SET_XTND_REG8((void CYFAR *)(CYREG_CLKDIST_LD), 0x02u);
 258:Generated_Source\PSoC5/cyfitter_cfg.c **** 
 259:Generated_Source\PSoC5/cyfitter_cfg.c **** 	CY_SET_XTND_REG8((void CYFAR *)(CYREG_PM_ACT_CFG2), ((CY_GET_XTND_REG8((void CYFAR *)CYREG_PM_ACT_
 260:Generated_Source\PSoC5/cyfitter_cfg.c **** }
 261:Generated_Source\PSoC5/cyfitter_cfg.c **** 
 262:Generated_Source\PSoC5/cyfitter_cfg.c **** 
 263:Generated_Source\PSoC5/cyfitter_cfg.c **** /* Analog API Functions */
 264:Generated_Source\PSoC5/cyfitter_cfg.c **** 
 265:Generated_Source\PSoC5/cyfitter_cfg.c **** 
 266:Generated_Source\PSoC5/cyfitter_cfg.c **** /*******************************************************************************
 267:Generated_Source\PSoC5/cyfitter_cfg.c **** * Function Name: AnalogSetDefault
 268:Generated_Source\PSoC5/cyfitter_cfg.c **** ********************************************************************************
 269:Generated_Source\PSoC5/cyfitter_cfg.c **** *
 270:Generated_Source\PSoC5/cyfitter_cfg.c **** * Summary:
 271:Generated_Source\PSoC5/cyfitter_cfg.c **** *  Sets up the analog portions of the chip to default values based on chip
 272:Generated_Source\PSoC5/cyfitter_cfg.c **** *  configuration options from the project.
 273:Generated_Source\PSoC5/cyfitter_cfg.c **** *
 274:Generated_Source\PSoC5/cyfitter_cfg.c **** * Parameters:
ARM GAS  C:\Users\miker\AppData\Local\Temp\ccyxJrri.s 			page 8


 275:Generated_Source\PSoC5/cyfitter_cfg.c **** *  void
 276:Generated_Source\PSoC5/cyfitter_cfg.c **** *
 277:Generated_Source\PSoC5/cyfitter_cfg.c **** * Return:
 278:Generated_Source\PSoC5/cyfitter_cfg.c **** *  void
 279:Generated_Source\PSoC5/cyfitter_cfg.c **** *
 280:Generated_Source\PSoC5/cyfitter_cfg.c **** *******************************************************************************/
 281:Generated_Source\PSoC5/cyfitter_cfg.c **** static void AnalogSetDefault(void);
 282:Generated_Source\PSoC5/cyfitter_cfg.c **** static void AnalogSetDefault(void)
 283:Generated_Source\PSoC5/cyfitter_cfg.c **** {
 123              		.loc 1 283 0
 124              		.cfi_startproc
 125              		@ args = 0, pretend = 0, frame = 0
 126              		@ frame_needed = 0, uses_anonymous_args = 0
 127              		@ link register save eliminated.
 284:Generated_Source\PSoC5/cyfitter_cfg.c **** 	uint8 bg_xover_inl_trim = CY_GET_XTND_REG8((void CYFAR *)(CYREG_FLSHID_MFG_CFG_BG_XOVER_INL_TRIM +
 128              		.loc 1 284 0
 129 0000 064B     		ldr	r3, .L10
 130 0002 1B78     		ldrb	r3, [r3]	@ zero_extendqisi2
 131 0004 DBB2     		uxtb	r3, r3
 132              	.LVL12:
 285:Generated_Source\PSoC5/cyfitter_cfg.c **** 	CY_SET_XTND_REG8((void CYFAR *)(CYREG_BG_DFT0), (bg_xover_inl_trim & 0x07u));
 133              		.loc 1 285 0
 134 0006 03F00701 		and	r1, r3, #7
 135 000a 054A     		ldr	r2, .L10+4
 136 000c 1170     		strb	r1, [r2]
 286:Generated_Source\PSoC5/cyfitter_cfg.c **** 	CY_SET_XTND_REG8((void CYFAR *)(CYREG_BG_DFT1), ((bg_xover_inl_trim >> 4) & 0x0Fu));
 137              		.loc 1 286 0
 138 000e 1B09     		lsrs	r3, r3, #4
 139              	.LVL13:
 140 0010 0132     		adds	r2, r2, #1
 141 0012 1370     		strb	r3, [r2]
 287:Generated_Source\PSoC5/cyfitter_cfg.c **** 	CY_SET_XTND_REG8((void CYFAR *)CYREG_PUMP_CR0, 0x44u);
 142              		.loc 1 287 0
 143 0014 4422     		movs	r2, #68
 144 0016 034B     		ldr	r3, .L10+8
 145 0018 1A70     		strb	r2, [r3]
 146 001a 7047     		bx	lr
 147              	.L11:
 148              		.align	2
 149              	.L10:
 150 001c CF010049 		.word	1224737231
 151 0020 6E580040 		.word	1073764462
 152 0024 76580040 		.word	1073764470
 153              		.cfi_endproc
 154              	.LFE6:
 155              		.size	AnalogSetDefault, .-AnalogSetDefault
 156              		.section	.text.CYMEMZERO,"ax",%progbits
 157              		.align	2
 158              		.thumb
 159              		.thumb_func
 160              		.type	CYMEMZERO, %function
 161              	CYMEMZERO:
 162              	.LFB0:
  64:Generated_Source\PSoC5/cyfitter_cfg.c **** 	(void)memset(s, 0, n);
 163              		.loc 1 64 0
 164              		.cfi_startproc
 165              		@ args = 0, pretend = 0, frame = 0
ARM GAS  C:\Users\miker\AppData\Local\Temp\ccyxJrri.s 			page 9


 166              		@ frame_needed = 0, uses_anonymous_args = 0
 167              	.LVL14:
 168 0000 08B5     		push	{r3, lr}
 169              		.cfi_def_cfa_offset 8
 170              		.cfi_offset 3, -8
 171              		.cfi_offset 14, -4
 172 0002 0A46     		mov	r2, r1
  65:Generated_Source\PSoC5/cyfitter_cfg.c **** }
 173              		.loc 1 65 0
 174 0004 0021     		movs	r1, #0
 175              	.LVL15:
 176 0006 FFF7FEFF 		bl	memset
 177              	.LVL16:
 178 000a 08BD     		pop	{r3, pc}
 179              		.cfi_endproc
 180              	.LFE0:
 181              		.size	CYMEMZERO, .-CYMEMZERO
 182              		.section	.text.CYCONFIGCPYCODE,"ax",%progbits
 183              		.align	2
 184              		.thumb
 185              		.thumb_func
 186              		.type	CYCONFIGCPYCODE, %function
 187              	CYCONFIGCPYCODE:
 188              	.LFB2:
  78:Generated_Source\PSoC5/cyfitter_cfg.c **** 	(void)memcpy(dest, src, n);
 189              		.loc 1 78 0
 190              		.cfi_startproc
 191              		@ args = 0, pretend = 0, frame = 0
 192              		@ frame_needed = 0, uses_anonymous_args = 0
 193              	.LVL17:
 194 0000 08B5     		push	{r3, lr}
 195              		.cfi_def_cfa_offset 8
 196              		.cfi_offset 3, -8
 197              		.cfi_offset 14, -4
  79:Generated_Source\PSoC5/cyfitter_cfg.c **** }
 198              		.loc 1 79 0
 199 0002 FFF7FEFF 		bl	memcpy
 200              	.LVL18:
 201 0006 08BD     		pop	{r3, pc}
 202              		.cfi_endproc
 203              	.LFE2:
 204              		.size	CYCONFIGCPYCODE, .-CYCONFIGCPYCODE
 205              		.section	.text.CYCONFIGCPY,"ax",%progbits
 206              		.align	2
 207              		.thumb
 208              		.thumb_func
 209              		.type	CYCONFIGCPY, %function
 210              	CYCONFIGCPY:
 211              	.LFB1:
  71:Generated_Source\PSoC5/cyfitter_cfg.c **** 	(void)memcpy(dest, src, n);
 212              		.loc 1 71 0
 213              		.cfi_startproc
 214              		@ args = 0, pretend = 0, frame = 0
 215              		@ frame_needed = 0, uses_anonymous_args = 0
 216              	.LVL19:
 217 0000 08B5     		push	{r3, lr}
 218              		.cfi_def_cfa_offset 8
ARM GAS  C:\Users\miker\AppData\Local\Temp\ccyxJrri.s 			page 10


 219              		.cfi_offset 3, -8
 220              		.cfi_offset 14, -4
  72:Generated_Source\PSoC5/cyfitter_cfg.c **** }
 221              		.loc 1 72 0
 222 0002 FFF7FEFF 		bl	memcpy
 223              	.LVL20:
 224 0006 08BD     		pop	{r3, pc}
 225              		.cfi_endproc
 226              	.LFE1:
 227              		.size	CYCONFIGCPY, .-CYCONFIGCPY
 228              		.section	.text.ClockSetup,"ax",%progbits
 229              		.align	2
 230              		.thumb
 231              		.thumb_func
 232              		.type	ClockSetup, %function
 233              	ClockSetup:
 234              	.LFB5:
 199:Generated_Source\PSoC5/cyfitter_cfg.c **** 	/* CYDEV_CLKDIST_ACFG0_CFG0 Address: CYREG_CLKDIST_ACFG0_CFG0 Size (bytes): 4 */
 235              		.loc 1 199 0
 236              		.cfi_startproc
 237              		@ args = 0, pretend = 0, frame = 0
 238              		@ frame_needed = 0, uses_anonymous_args = 0
 239 0000 38B5     		push	{r3, r4, r5, lr}
 240              		.cfi_def_cfa_offset 16
 241              		.cfi_offset 3, -16
 242              		.cfi_offset 4, -12
 243              		.cfi_offset 5, -8
 244              		.cfi_offset 14, -4
 209:Generated_Source\PSoC5/cyfitter_cfg.c **** 	CY_SET_XTND_REG8((void CYFAR *)(CYREG_CLKDIST_DCFG0_CFG0 + 0x2u), 0x19u);
 245              		.loc 1 209 0
 246 0002 1322     		movs	r2, #19
 247 0004 334B     		ldr	r3, .L24
 248 0006 1A80     		strh	r2, [r3]	@ movhi
 210:Generated_Source\PSoC5/cyfitter_cfg.c **** 	CY_SET_XTND_REG16((void CYFAR *)(CYREG_CLKDIST_DCFG1_CFG0), 0x005Fu);
 249              		.loc 1 210 0
 250 0008 1925     		movs	r5, #25
 251 000a 0233     		adds	r3, r3, #2
 252 000c 1D70     		strb	r5, [r3]
 211:Generated_Source\PSoC5/cyfitter_cfg.c **** 	CY_SET_XTND_REG8((void CYFAR *)(CYREG_CLKDIST_DCFG1_CFG0 + 0x2u), 0x19u);
 253              		.loc 1 211 0
 254 000e 5F22     		movs	r2, #95
 255 0010 0233     		adds	r3, r3, #2
 256 0012 1A80     		strh	r2, [r3]	@ movhi
 212:Generated_Source\PSoC5/cyfitter_cfg.c **** 	CY_SET_XTND_REG16((void CYFAR *)(CYREG_CLKDIST_DCFG2_CFG0), 0x03E7u);
 257              		.loc 1 212 0
 258 0014 0233     		adds	r3, r3, #2
 259 0016 1D70     		strb	r5, [r3]
 213:Generated_Source\PSoC5/cyfitter_cfg.c **** 	CY_SET_XTND_REG8((void CYFAR *)(CYREG_CLKDIST_DCFG2_CFG0 + 0x2u), 0x1Bu);
 260              		.loc 1 213 0
 261 0018 40F2E732 		movw	r2, #999
 262 001c 0233     		adds	r3, r3, #2
 263 001e 1A80     		strh	r2, [r3]	@ movhi
 214:Generated_Source\PSoC5/cyfitter_cfg.c **** 	CY_SET_XTND_REG16((void CYFAR *)(CYREG_CLKDIST_DCFG3_CFG0), 0x270Fu);
 264              		.loc 1 214 0
 265 0020 1B23     		movs	r3, #27
 266 0022 2D4A     		ldr	r2, .L24+4
 267 0024 1370     		strb	r3, [r2]
ARM GAS  C:\Users\miker\AppData\Local\Temp\ccyxJrri.s 			page 11


 215:Generated_Source\PSoC5/cyfitter_cfg.c **** 	CY_SET_XTND_REG8((void CYFAR *)(CYREG_CLKDIST_DCFG3_CFG0 + 0x2u), 0x1Bu);
 268              		.loc 1 215 0
 269 0026 42F20F72 		movw	r2, #9999
 270 002a 2C49     		ldr	r1, .L24+8
 271 002c 0A80     		strh	r2, [r1]	@ movhi
 216:Generated_Source\PSoC5/cyfitter_cfg.c **** 	CY_SET_XTND_REG16((void CYFAR *)(CYREG_CLKDIST_DCFG4_CFG0), 0x270Fu);
 272              		.loc 1 216 0
 273 002e 0231     		adds	r1, r1, #2
 274 0030 0B70     		strb	r3, [r1]
 217:Generated_Source\PSoC5/cyfitter_cfg.c **** 	CY_SET_XTND_REG8((void CYFAR *)(CYREG_CLKDIST_DCFG4_CFG0 + 0x2u), 0x1Bu);
 275              		.loc 1 217 0
 276 0032 0231     		adds	r1, r1, #2
 277 0034 0A80     		strh	r2, [r1]	@ movhi
 218:Generated_Source\PSoC5/cyfitter_cfg.c **** 	CY_SET_XTND_REG16((void CYFAR *)(CYREG_CLKDIST_DCFG5_CFG0), 0x30D3u);
 278              		.loc 1 218 0
 279 0036 2A4A     		ldr	r2, .L24+12
 280 0038 1370     		strb	r3, [r2]
 219:Generated_Source\PSoC5/cyfitter_cfg.c **** 	CY_SET_XTND_REG8((void CYFAR *)(CYREG_CLKDIST_DCFG5_CFG0 + 0x2u), 0x1Bu);
 281              		.loc 1 219 0
 282 003a 43F2D301 		movw	r1, #12499
 283 003e 0232     		adds	r2, r2, #2
 284 0040 1180     		strh	r1, [r2]	@ movhi
 220:Generated_Source\PSoC5/cyfitter_cfg.c **** 
 285              		.loc 1 220 0
 286 0042 0232     		adds	r2, r2, #2
 287 0044 1370     		strb	r3, [r2]
 223:Generated_Source\PSoC5/cyfitter_cfg.c **** 
 288              		.loc 1 223 0
 289 0046 2748     		ldr	r0, .L24+16
 290 0048 2749     		ldr	r1, .L24+20
 291 004a 0422     		movs	r2, #4
 292 004c FFF7FEFF 		bl	CYCONFIGCPYCODE
 293              	.LVL21:
 226:Generated_Source\PSoC5/cyfitter_cfg.c **** 
 294              		.loc 1 226 0
 295 0050 0622     		movs	r2, #6
 296 0052 264B     		ldr	r3, .L24+24
 297 0054 1A70     		strb	r2, [r3]
 229:Generated_Source\PSoC5/cyfitter_cfg.c **** 	CY_SET_XTND_REG8((void CYFAR *)(CYREG_IMO_TR1), (CY_GET_XTND_REG8((void CYFAR *)CYREG_FLSHID_CUST_
 298              		.loc 1 229 0
 299 0056 5222     		movs	r2, #82
 300 0058 A3F58073 		sub	r3, r3, #256
 301 005c 1A70     		strb	r2, [r3]
 230:Generated_Source\PSoC5/cyfitter_cfg.c **** 
 302              		.loc 1 230 0
 303 005e 244B     		ldr	r3, .L24+28
 304 0060 1B78     		ldrb	r3, [r3]	@ zero_extendqisi2
 305 0062 DBB2     		uxtb	r3, r3
 306 0064 234A     		ldr	r2, .L24+32
 307 0066 1370     		strb	r3, [r2]
 233:Generated_Source\PSoC5/cyfitter_cfg.c **** 	CY_SET_XTND_REG16((void CYFAR *)(CYREG_FASTCLK_PLL_CFG0), 0x1251u);
 308              		.loc 1 233 0
 309 0068 4FF4E162 		mov	r2, #1800
 310 006c 224B     		ldr	r3, .L24+36
 311 006e 1A80     		strh	r2, [r3]	@ movhi
 234:Generated_Source\PSoC5/cyfitter_cfg.c **** 	/* Wait up to 250us for the PLL to lock */
 312              		.loc 1 234 0
ARM GAS  C:\Users\miker\AppData\Local\Temp\ccyxJrri.s 			page 12


 313 0070 41F25122 		movw	r2, #4689
 314 0074 023B     		subs	r3, r3, #2
 315 0076 1A80     		strh	r2, [r3]	@ movhi
 316              	.LVL22:
 236:Generated_Source\PSoC5/cyfitter_cfg.c **** 	for (timeout = 250u / 10u; (timeout > 0u) && (pllLock != 0x03u); timeout--)
 317              		.loc 1 236 0
 318 0078 0024     		movs	r4, #0
 237:Generated_Source\PSoC5/cyfitter_cfg.c **** 	{ 
 319              		.loc 1 237 0
 320 007a 0CE0     		b	.L19
 321              	.LVL23:
 322              	.L21:
 239:Generated_Source\PSoC5/cyfitter_cfg.c **** 		CyDelayCycles(10u * 48u); /* Delay 10us based on 48MHz clock */
 323              		.loc 1 239 0 discriminator 4
 324 007c 1F4B     		ldr	r3, .L24+40
 325 007e 1B78     		ldrb	r3, [r3]	@ zero_extendqisi2
 326 0080 03F00103 		and	r3, r3, #1
 327 0084 43EA4404 		orr	r4, r3, r4, lsl #1
 328              	.LVL24:
 329 0088 04F00304 		and	r4, r4, #3
 330              	.LVL25:
 240:Generated_Source\PSoC5/cyfitter_cfg.c **** 	}
 331              		.loc 1 240 0 discriminator 4
 332 008c 4FF4F070 		mov	r0, #480
 333 0090 FFF7FEFF 		bl	CyDelayCycles
 334              	.LVL26:
 237:Generated_Source\PSoC5/cyfitter_cfg.c **** 	{ 
 335              		.loc 1 237 0 discriminator 4
 336 0094 013D     		subs	r5, r5, #1
 337              	.LVL27:
 338              	.L19:
 237:Generated_Source\PSoC5/cyfitter_cfg.c **** 	{ 
 339              		.loc 1 237 0 is_stmt 0 discriminator 1
 340 0096 0DB1     		cbz	r5, .L20
 237:Generated_Source\PSoC5/cyfitter_cfg.c **** 	{ 
 341              		.loc 1 237 0 discriminator 3
 342 0098 032C     		cmp	r4, #3
 343 009a EFD1     		bne	.L21
 344              	.L20:
 243:Generated_Source\PSoC5/cyfitter_cfg.c **** 	{
 345              		.loc 1 243 0 is_stmt 1
 346 009c 15B9     		cbnz	r5, .L22
 245:Generated_Source\PSoC5/cyfitter_cfg.c **** 	}
 347              		.loc 1 245 0
 348 009e 0320     		movs	r0, #3
 349 00a0 FFF7FEFF 		bl	CyClockStartupError
 350              	.LVL28:
 351              	.L22:
 249:Generated_Source\PSoC5/cyfitter_cfg.c **** 	CY_SET_XTND_REG8((void CYFAR *)(CYREG_CLKDIST_MSTR0), 0x07u);
 352              		.loc 1 249 0
 353 00a4 164A     		ldr	r2, .L24+44
 354 00a6 4FF48073 		mov	r3, #256
 355 00aa 1380     		strh	r3, [r2]	@ movhi
 250:Generated_Source\PSoC5/cyfitter_cfg.c **** 	CY_SET_XTND_REG8((void CYFAR *)(CYREG_CLKDIST_BCFG0), 0x00u);
 356              		.loc 1 250 0
 357 00ac 0723     		movs	r3, #7
 358 00ae 1370     		strb	r3, [r2]
ARM GAS  C:\Users\miker\AppData\Local\Temp\ccyxJrri.s 			page 13


 251:Generated_Source\PSoC5/cyfitter_cfg.c **** 	CY_SET_XTND_REG8((void CYFAR *)(CYREG_CLKDIST_BCFG2), 0x48u);
 359              		.loc 1 251 0
 360 00b0 0023     		movs	r3, #0
 361 00b2 1449     		ldr	r1, .L24+48
 362 00b4 0B70     		strb	r3, [r1]
 252:Generated_Source\PSoC5/cyfitter_cfg.c **** 	CY_SET_XTND_REG8((void CYFAR *)(CYREG_CLKDIST_MSTR0), 0x00u);
 363              		.loc 1 252 0
 364 00b6 4820     		movs	r0, #72
 365 00b8 0231     		adds	r1, r1, #2
 366 00ba 0870     		strb	r0, [r1]
 253:Generated_Source\PSoC5/cyfitter_cfg.c **** 
 367              		.loc 1 253 0
 368 00bc 1370     		strb	r3, [r2]
 256:Generated_Source\PSoC5/cyfitter_cfg.c **** 	CY_SET_XTND_REG8((void CYFAR *)(CYREG_CLKDIST_LD), 0x02u);
 369              		.loc 1 256 0
 370 00be 0532     		adds	r2, r2, #5
 371 00c0 1370     		strb	r3, [r2]
 257:Generated_Source\PSoC5/cyfitter_cfg.c **** 
 372              		.loc 1 257 0
 373 00c2 0222     		movs	r2, #2
 374 00c4 104B     		ldr	r3, .L24+52
 375 00c6 1A70     		strb	r2, [r3]
 259:Generated_Source\PSoC5/cyfitter_cfg.c **** }
 376              		.loc 1 259 0
 377 00c8 104A     		ldr	r2, .L24+56
 378 00ca 1378     		ldrb	r3, [r2]	@ zero_extendqisi2
 379 00cc 43F03F03 		orr	r3, r3, #63
 380 00d0 1370     		strb	r3, [r2]
 381 00d2 38BD     		pop	{r3, r4, r5, pc}
 382              	.LVL29:
 383              	.L25:
 384              		.align	2
 385              	.L24:
 386 00d4 80400040 		.word	1073758336
 387 00d8 8A400040 		.word	1073758346
 388 00dc 8C400040 		.word	1073758348
 389 00e0 92400040 		.word	1073758354
 390 00e4 00410040 		.word	1073758464
 391 00e8 00000000 		.word	.LANCHOR0
 392 00ec 00430040 		.word	1073758976
 393 00f0 0F010049 		.word	1224737039
 394 00f4 A1460040 		.word	1073759905
 395 00f8 22420040 		.word	1073758754
 396 00fc 25420040 		.word	1073758757
 397 0100 04400040 		.word	1073758212
 398 0104 06400040 		.word	1073758214
 399 0108 01400040 		.word	1073758209
 400 010c A2430040 		.word	1073759138
 401              		.cfi_endproc
 402              	.LFE5:
 403              		.size	ClockSetup, .-ClockSetup
 404              		.section	.text.SetAnalogRoutingPumps,"ax",%progbits
 405              		.align	2
 406              		.global	SetAnalogRoutingPumps
 407              		.thumb
 408              		.thumb_func
 409              		.type	SetAnalogRoutingPumps, %function
ARM GAS  C:\Users\miker\AppData\Local\Temp\ccyxJrri.s 			page 14


 410              	SetAnalogRoutingPumps:
 411              	.LFB7:
 288:Generated_Source\PSoC5/cyfitter_cfg.c **** }
 289:Generated_Source\PSoC5/cyfitter_cfg.c **** 
 290:Generated_Source\PSoC5/cyfitter_cfg.c **** 
 291:Generated_Source\PSoC5/cyfitter_cfg.c **** /*******************************************************************************
 292:Generated_Source\PSoC5/cyfitter_cfg.c **** * Function Name: SetAnalogRoutingPumps
 293:Generated_Source\PSoC5/cyfitter_cfg.c **** ********************************************************************************
 294:Generated_Source\PSoC5/cyfitter_cfg.c **** *
 295:Generated_Source\PSoC5/cyfitter_cfg.c **** * Summary:
 296:Generated_Source\PSoC5/cyfitter_cfg.c **** * Enables or disables the analog pumps feeding analog routing switches.
 297:Generated_Source\PSoC5/cyfitter_cfg.c **** * Intended to be called at startup, based on the Vdda system configuration;
 298:Generated_Source\PSoC5/cyfitter_cfg.c **** * may be called during operation when the user informs us that the Vdda voltage
 299:Generated_Source\PSoC5/cyfitter_cfg.c **** * crossed the pump threshold.
 300:Generated_Source\PSoC5/cyfitter_cfg.c **** *
 301:Generated_Source\PSoC5/cyfitter_cfg.c **** * Parameters:
 302:Generated_Source\PSoC5/cyfitter_cfg.c **** *  enabled - 1 to enable the pumps, 0 to disable the pumps
 303:Generated_Source\PSoC5/cyfitter_cfg.c **** *
 304:Generated_Source\PSoC5/cyfitter_cfg.c **** * Return:
 305:Generated_Source\PSoC5/cyfitter_cfg.c **** *  void
 306:Generated_Source\PSoC5/cyfitter_cfg.c **** *
 307:Generated_Source\PSoC5/cyfitter_cfg.c **** *******************************************************************************/
 308:Generated_Source\PSoC5/cyfitter_cfg.c **** void SetAnalogRoutingPumps(uint8 enabled)
 309:Generated_Source\PSoC5/cyfitter_cfg.c **** {
 412              		.loc 1 309 0
 413              		.cfi_startproc
 414              		@ args = 0, pretend = 0, frame = 0
 415              		@ frame_needed = 0, uses_anonymous_args = 0
 416              		@ link register save eliminated.
 417              	.LVL30:
 310:Generated_Source\PSoC5/cyfitter_cfg.c **** 	uint8 regValue = CY_GET_XTND_REG8((void CYFAR *)CYREG_PUMP_CR0);
 418              		.loc 1 310 0
 419 0000 024A     		ldr	r2, .L27
 420 0002 1378     		ldrb	r3, [r2]	@ zero_extendqisi2
 421 0004 DBB2     		uxtb	r3, r3
 422              	.LVL31:
 311:Generated_Source\PSoC5/cyfitter_cfg.c **** 	if (enabled != 0u)
 312:Generated_Source\PSoC5/cyfitter_cfg.c **** 	{
 313:Generated_Source\PSoC5/cyfitter_cfg.c **** 		regValue |= 0x00u;
 314:Generated_Source\PSoC5/cyfitter_cfg.c **** 	}
 315:Generated_Source\PSoC5/cyfitter_cfg.c **** 	else
 316:Generated_Source\PSoC5/cyfitter_cfg.c **** 	{
 317:Generated_Source\PSoC5/cyfitter_cfg.c **** 		regValue &= (uint8)~0x00u;
 318:Generated_Source\PSoC5/cyfitter_cfg.c **** 	}
 319:Generated_Source\PSoC5/cyfitter_cfg.c **** 	CY_SET_XTND_REG8((void CYFAR *)CYREG_PUMP_CR0, regValue);
 423              		.loc 1 319 0
 424 0006 1370     		strb	r3, [r2]
 425 0008 7047     		bx	lr
 426              	.L28:
 427 000a 00BF     		.align	2
 428              	.L27:
 429 000c 76580040 		.word	1073764470
 430              		.cfi_endproc
 431              	.LFE7:
 432              		.size	SetAnalogRoutingPumps, .-SetAnalogRoutingPumps
 433              		.section	.text.cyfitter_cfg,"ax",%progbits
 434              		.align	2
ARM GAS  C:\Users\miker\AppData\Local\Temp\ccyxJrri.s 			page 15


 435              		.global	cyfitter_cfg
 436              		.thumb
 437              		.thumb_func
 438              		.type	cyfitter_cfg, %function
 439              	cyfitter_cfg:
 440              	.LFB8:
 320:Generated_Source\PSoC5/cyfitter_cfg.c **** }
 321:Generated_Source\PSoC5/cyfitter_cfg.c **** 
 322:Generated_Source\PSoC5/cyfitter_cfg.c **** #define CY_AMUX_UNUSED CYREG_BOOST_SR
 323:Generated_Source\PSoC5/cyfitter_cfg.c **** 
 324:Generated_Source\PSoC5/cyfitter_cfg.c **** 
 325:Generated_Source\PSoC5/cyfitter_cfg.c **** /*******************************************************************************
 326:Generated_Source\PSoC5/cyfitter_cfg.c **** * Function Name: cyfitter_cfg
 327:Generated_Source\PSoC5/cyfitter_cfg.c **** ********************************************************************************
 328:Generated_Source\PSoC5/cyfitter_cfg.c **** * Summary:
 329:Generated_Source\PSoC5/cyfitter_cfg.c **** *  This function is called by the start-up code for the selected device. It
 330:Generated_Source\PSoC5/cyfitter_cfg.c **** *  performs all of the necessary device configuration based on the design
 331:Generated_Source\PSoC5/cyfitter_cfg.c **** *  settings.  This includes settings from the Design Wide Resources (DWR) such
 332:Generated_Source\PSoC5/cyfitter_cfg.c **** *  as Clocks and Pins as well as any component configuration that is necessary.
 333:Generated_Source\PSoC5/cyfitter_cfg.c **** *
 334:Generated_Source\PSoC5/cyfitter_cfg.c **** * Parameters:  
 335:Generated_Source\PSoC5/cyfitter_cfg.c **** *   void
 336:Generated_Source\PSoC5/cyfitter_cfg.c **** *
 337:Generated_Source\PSoC5/cyfitter_cfg.c **** * Return:
 338:Generated_Source\PSoC5/cyfitter_cfg.c **** *   void
 339:Generated_Source\PSoC5/cyfitter_cfg.c **** *
 340:Generated_Source\PSoC5/cyfitter_cfg.c **** *******************************************************************************/
 341:Generated_Source\PSoC5/cyfitter_cfg.c **** 
 342:Generated_Source\PSoC5/cyfitter_cfg.c **** void cyfitter_cfg(void)
 343:Generated_Source\PSoC5/cyfitter_cfg.c **** {
 441              		.loc 1 343 0
 442              		.cfi_startproc
 443              		@ args = 0, pretend = 0, frame = 0
 444              		@ frame_needed = 0, uses_anonymous_args = 0
 445 0000 38B5     		push	{r3, r4, r5, lr}
 446              		.cfi_def_cfa_offset 16
 447              		.cfi_offset 3, -16
 448              		.cfi_offset 4, -12
 449              		.cfi_offset 5, -8
 450              		.cfi_offset 14, -4
 344:Generated_Source\PSoC5/cyfitter_cfg.c **** 	/* IOPINS0_0 Address: CYREG_PRT0_DM0 Size (bytes): 8 */
 345:Generated_Source\PSoC5/cyfitter_cfg.c **** 	static const uint8 CYCODE BS_IOPINS0_0_VAL[] = {
 346:Generated_Source\PSoC5/cyfitter_cfg.c **** 		0x00u, 0x73u, 0x73u, 0x00u, 0x73u, 0x00u, 0x00u, 0x00u};
 347:Generated_Source\PSoC5/cyfitter_cfg.c **** 
 348:Generated_Source\PSoC5/cyfitter_cfg.c **** 	/* IOPINS0_8 Address: CYREG_PRT15_DR Size (bytes): 10 */
 349:Generated_Source\PSoC5/cyfitter_cfg.c **** 	static const uint8 CYCODE BS_IOPINS0_8_VAL[] = {
 350:Generated_Source\PSoC5/cyfitter_cfg.c **** 		0x40u, 0x00u, 0x00u, 0x30u, 0x30u, 0x00u, 0x20u, 0x00u, 0xC0u, 0x00u};
 351:Generated_Source\PSoC5/cyfitter_cfg.c **** 
 352:Generated_Source\PSoC5/cyfitter_cfg.c **** 	/* IOPINS0_1 Address: CYREG_PRT1_DR Size (bytes): 10 */
 353:Generated_Source\PSoC5/cyfitter_cfg.c **** 	static const uint8 CYCODE BS_IOPINS0_1_VAL[] = {
 354:Generated_Source\PSoC5/cyfitter_cfg.c **** 		0xE0u, 0x00u, 0x00u, 0xEBu, 0x0Bu, 0x00u, 0x00u, 0x00u, 0x00u, 0x00u};
 355:Generated_Source\PSoC5/cyfitter_cfg.c **** 
 356:Generated_Source\PSoC5/cyfitter_cfg.c **** 	/* IOPINS0_2 Address: CYREG_PRT2_DM0 Size (bytes): 8 */
 357:Generated_Source\PSoC5/cyfitter_cfg.c **** 	static const uint8 CYCODE BS_IOPINS0_2_VAL[] = {
 358:Generated_Source\PSoC5/cyfitter_cfg.c **** 		0x00u, 0xFFu, 0xFFu, 0x00u, 0x01u, 0x00u, 0x00u, 0x00u};
 359:Generated_Source\PSoC5/cyfitter_cfg.c **** 
 360:Generated_Source\PSoC5/cyfitter_cfg.c **** 	/* IOPINS0_4 Address: CYREG_PRT4_DR Size (bytes): 10 */
ARM GAS  C:\Users\miker\AppData\Local\Temp\ccyxJrri.s 			page 16


 361:Generated_Source\PSoC5/cyfitter_cfg.c **** 	static const uint8 CYCODE BS_IOPINS0_4_VAL[] = {
 362:Generated_Source\PSoC5/cyfitter_cfg.c **** 		0x01u, 0x00u, 0x00u, 0xFFu, 0xFEu, 0x00u, 0x00u, 0x00u, 0x00u, 0x00u};
 363:Generated_Source\PSoC5/cyfitter_cfg.c **** 
 364:Generated_Source\PSoC5/cyfitter_cfg.c **** 	/* IOPINS0_5 Address: CYREG_PRT5_DR Size (bytes): 10 */
 365:Generated_Source\PSoC5/cyfitter_cfg.c **** 	static const uint8 CYCODE BS_IOPINS0_5_VAL[] = {
 366:Generated_Source\PSoC5/cyfitter_cfg.c **** 		0x0Fu, 0x00u, 0x00u, 0x7Fu, 0x70u, 0x00u, 0x40u, 0x00u, 0x00u, 0x00u};
 367:Generated_Source\PSoC5/cyfitter_cfg.c **** 
 368:Generated_Source\PSoC5/cyfitter_cfg.c **** 	/* IOPINS0_6 Address: CYREG_PRT6_DR Size (bytes): 10 */
 369:Generated_Source\PSoC5/cyfitter_cfg.c **** 	static const uint8 CYCODE BS_IOPINS0_6_VAL[] = {
 370:Generated_Source\PSoC5/cyfitter_cfg.c **** 		0xE0u, 0x00u, 0x00u, 0xF0u, 0x10u, 0x00u, 0x10u, 0x00u, 0x00u, 0x00u};
 371:Generated_Source\PSoC5/cyfitter_cfg.c **** 
 372:Generated_Source\PSoC5/cyfitter_cfg.c **** #ifdef CYGlobalIntDisable
 373:Generated_Source\PSoC5/cyfitter_cfg.c **** 	/* Disable interrupts by default. Let user enable if/when they want. */
 374:Generated_Source\PSoC5/cyfitter_cfg.c **** 	CYGlobalIntDisable
 451              		.loc 1 374 0
 452              	@ 374 "Generated_Source\PSoC5\cyfitter_cfg.c" 1
 453 0002 72B6     		CPSID   i
 454              	@ 0 "" 2
 375:Generated_Source\PSoC5/cyfitter_cfg.c **** #endif
 376:Generated_Source\PSoC5/cyfitter_cfg.c **** 
 377:Generated_Source\PSoC5/cyfitter_cfg.c **** 	/* Enable/Disable Debug functionality based on settings from System DWR */
 378:Generated_Source\PSoC5/cyfitter_cfg.c **** 	CY_SET_XTND_REG8((void CYFAR *)CYREG_MLOGIC_DEBUG, (CY_GET_XTND_REG8((void CYFAR *)CYREG_MLOGIC_DE
 455              		.loc 1 378 0
 456              		.thumb
 457 0004 3B4A     		ldr	r2, .L33
 458 0006 1378     		ldrb	r3, [r2]	@ zero_extendqisi2
 459 0008 43F00403 		orr	r3, r3, #4
 460 000c 1370     		strb	r3, [r2]
 379:Generated_Source\PSoC5/cyfitter_cfg.c **** 	CY_SET_XTND_REG8((void CYFAR *)CYREG_PANTHER_TRACE_CFG, (CY_GET_XTND_REG8((void CYFAR *)CYREG_PANT
 461              		.loc 1 379 0
 462 000e 3A4A     		ldr	r2, .L33+4
 463 0010 1378     		ldrb	r3, [r2]	@ zero_extendqisi2
 464 0012 43F00203 		orr	r3, r3, #2
 465 0016 1370     		strb	r3, [r2]
 466              	.LVL32:
 467              	.LBB3:
 380:Generated_Source\PSoC5/cyfitter_cfg.c **** 
 381:Generated_Source\PSoC5/cyfitter_cfg.c **** 	{
 382:Generated_Source\PSoC5/cyfitter_cfg.c **** 		static const uint32 CYCODE cy_cfg_addr_table[] = {
 383:Generated_Source\PSoC5/cyfitter_cfg.c **** 			0x40004501u, /* Base address: 0x40004500 Count: 1 */
 384:Generated_Source\PSoC5/cyfitter_cfg.c **** 			0x40004F03u, /* Base address: 0x40004F00 Count: 3 */
 385:Generated_Source\PSoC5/cyfitter_cfg.c **** 			0x40005206u, /* Base address: 0x40005200 Count: 6 */
 386:Generated_Source\PSoC5/cyfitter_cfg.c **** 			0x40006404u, /* Base address: 0x40006400 Count: 4 */
 387:Generated_Source\PSoC5/cyfitter_cfg.c **** 			0x40006502u, /* Base address: 0x40006500 Count: 2 */
 388:Generated_Source\PSoC5/cyfitter_cfg.c **** 			0x40010101u, /* Base address: 0x40010100 Count: 1 */
 389:Generated_Source\PSoC5/cyfitter_cfg.c **** 			0x40010301u, /* Base address: 0x40010300 Count: 1 */
 390:Generated_Source\PSoC5/cyfitter_cfg.c **** 			0x40010502u, /* Base address: 0x40010500 Count: 2 */
 391:Generated_Source\PSoC5/cyfitter_cfg.c **** 			0x40010703u, /* Base address: 0x40010700 Count: 3 */
 392:Generated_Source\PSoC5/cyfitter_cfg.c **** 			0x40010840u, /* Base address: 0x40010800 Count: 64 */
 393:Generated_Source\PSoC5/cyfitter_cfg.c **** 			0x40010944u, /* Base address: 0x40010900 Count: 68 */
 394:Generated_Source\PSoC5/cyfitter_cfg.c **** 			0x40010A43u, /* Base address: 0x40010A00 Count: 67 */
 395:Generated_Source\PSoC5/cyfitter_cfg.c **** 			0x40010B34u, /* Base address: 0x40010B00 Count: 52 */
 396:Generated_Source\PSoC5/cyfitter_cfg.c **** 			0x40010D05u, /* Base address: 0x40010D00 Count: 5 */
 397:Generated_Source\PSoC5/cyfitter_cfg.c **** 			0x40010E1Au, /* Base address: 0x40010E00 Count: 26 */
 398:Generated_Source\PSoC5/cyfitter_cfg.c **** 			0x40010F18u, /* Base address: 0x40010F00 Count: 24 */
 399:Generated_Source\PSoC5/cyfitter_cfg.c **** 			0x40011502u, /* Base address: 0x40011500 Count: 2 */
 400:Generated_Source\PSoC5/cyfitter_cfg.c **** 			0x40011703u, /* Base address: 0x40011700 Count: 3 */
ARM GAS  C:\Users\miker\AppData\Local\Temp\ccyxJrri.s 			page 17


 401:Generated_Source\PSoC5/cyfitter_cfg.c **** 			0x4001185Du, /* Base address: 0x40011800 Count: 93 */
 402:Generated_Source\PSoC5/cyfitter_cfg.c **** 			0x40011939u, /* Base address: 0x40011900 Count: 57 */
 403:Generated_Source\PSoC5/cyfitter_cfg.c **** 			0x40011A3Au, /* Base address: 0x40011A00 Count: 58 */
 404:Generated_Source\PSoC5/cyfitter_cfg.c **** 			0x40011B3Fu, /* Base address: 0x40011B00 Count: 63 */
 405:Generated_Source\PSoC5/cyfitter_cfg.c **** 			0x4001400Bu, /* Base address: 0x40014000 Count: 11 */
 406:Generated_Source\PSoC5/cyfitter_cfg.c **** 			0x40014113u, /* Base address: 0x40014100 Count: 19 */
 407:Generated_Source\PSoC5/cyfitter_cfg.c **** 			0x4001420Cu, /* Base address: 0x40014200 Count: 12 */
 408:Generated_Source\PSoC5/cyfitter_cfg.c **** 			0x4001430Eu, /* Base address: 0x40014300 Count: 14 */
 409:Generated_Source\PSoC5/cyfitter_cfg.c **** 			0x40014406u, /* Base address: 0x40014400 Count: 6 */
 410:Generated_Source\PSoC5/cyfitter_cfg.c **** 			0x40014507u, /* Base address: 0x40014500 Count: 7 */
 411:Generated_Source\PSoC5/cyfitter_cfg.c **** 			0x40014607u, /* Base address: 0x40014600 Count: 7 */
 412:Generated_Source\PSoC5/cyfitter_cfg.c **** 			0x4001470Du, /* Base address: 0x40014700 Count: 13 */
 413:Generated_Source\PSoC5/cyfitter_cfg.c **** 			0x4001480Au, /* Base address: 0x40014800 Count: 10 */
 414:Generated_Source\PSoC5/cyfitter_cfg.c **** 			0x4001490Bu, /* Base address: 0x40014900 Count: 11 */
 415:Generated_Source\PSoC5/cyfitter_cfg.c **** 			0x40014C0Au, /* Base address: 0x40014C00 Count: 10 */
 416:Generated_Source\PSoC5/cyfitter_cfg.c **** 			0x40014D10u, /* Base address: 0x40014D00 Count: 16 */
 417:Generated_Source\PSoC5/cyfitter_cfg.c **** 			0x4001500Au, /* Base address: 0x40015000 Count: 10 */
 418:Generated_Source\PSoC5/cyfitter_cfg.c **** 			0x40015102u, /* Base address: 0x40015100 Count: 2 */
 419:Generated_Source\PSoC5/cyfitter_cfg.c **** 		};
 420:Generated_Source\PSoC5/cyfitter_cfg.c **** 
 421:Generated_Source\PSoC5/cyfitter_cfg.c **** 		static const cy_cfg_addrvalue_t CYCODE cy_cfg_data_table[] = {
 422:Generated_Source\PSoC5/cyfitter_cfg.c **** 			{0x7Eu, 0x02u},
 423:Generated_Source\PSoC5/cyfitter_cfg.c **** 			{0x0Au, 0x4Bu},
 424:Generated_Source\PSoC5/cyfitter_cfg.c **** 			{0x0Du, 0x80u},
 425:Generated_Source\PSoC5/cyfitter_cfg.c **** 			{0x16u, 0x4Bu},
 426:Generated_Source\PSoC5/cyfitter_cfg.c **** 			{0x00u, 0x61u},
 427:Generated_Source\PSoC5/cyfitter_cfg.c **** 			{0x01u, 0x33u},
 428:Generated_Source\PSoC5/cyfitter_cfg.c **** 			{0x29u, 0x40u},
 429:Generated_Source\PSoC5/cyfitter_cfg.c **** 			{0x31u, 0x10u},
 430:Generated_Source\PSoC5/cyfitter_cfg.c **** 			{0x78u, 0x20u},
 431:Generated_Source\PSoC5/cyfitter_cfg.c **** 			{0x7Cu, 0x40u},
 432:Generated_Source\PSoC5/cyfitter_cfg.c **** 			{0x89u, 0x6Fu},
 433:Generated_Source\PSoC5/cyfitter_cfg.c **** 			{0x8Au, 0x0Du},
 434:Generated_Source\PSoC5/cyfitter_cfg.c **** 			{0x8Bu, 0x0Fu},
 435:Generated_Source\PSoC5/cyfitter_cfg.c **** 			{0x8Eu, 0x07u},
 436:Generated_Source\PSoC5/cyfitter_cfg.c **** 			{0x8Au, 0x0Fu},
 437:Generated_Source\PSoC5/cyfitter_cfg.c **** 			{0x8Bu, 0x01u},
 438:Generated_Source\PSoC5/cyfitter_cfg.c **** 			{0xE2u, 0x04u},
 439:Generated_Source\PSoC5/cyfitter_cfg.c **** 			{0xECu, 0x02u},
 440:Generated_Source\PSoC5/cyfitter_cfg.c **** 			{0xE2u, 0x20u},
 441:Generated_Source\PSoC5/cyfitter_cfg.c **** 			{0xE6u, 0x08u},
 442:Generated_Source\PSoC5/cyfitter_cfg.c **** 			{0xE2u, 0x02u},
 443:Generated_Source\PSoC5/cyfitter_cfg.c **** 			{0xEAu, 0x40u},
 444:Generated_Source\PSoC5/cyfitter_cfg.c **** 			{0xEEu, 0x0Eu},
 445:Generated_Source\PSoC5/cyfitter_cfg.c **** 			{0x00u, 0x40u},
 446:Generated_Source\PSoC5/cyfitter_cfg.c **** 			{0x01u, 0x04u},
 447:Generated_Source\PSoC5/cyfitter_cfg.c **** 			{0x04u, 0x10u},
 448:Generated_Source\PSoC5/cyfitter_cfg.c **** 			{0x06u, 0x20u},
 449:Generated_Source\PSoC5/cyfitter_cfg.c **** 			{0x07u, 0x04u},
 450:Generated_Source\PSoC5/cyfitter_cfg.c **** 			{0x08u, 0x0Fu},
 451:Generated_Source\PSoC5/cyfitter_cfg.c **** 			{0x0Cu, 0x05u},
 452:Generated_Source\PSoC5/cyfitter_cfg.c **** 			{0x0Du, 0x02u},
 453:Generated_Source\PSoC5/cyfitter_cfg.c **** 			{0x0Eu, 0x0Au},
 454:Generated_Source\PSoC5/cyfitter_cfg.c **** 			{0x0Fu, 0x01u},
 455:Generated_Source\PSoC5/cyfitter_cfg.c **** 			{0x10u, 0x10u},
 456:Generated_Source\PSoC5/cyfitter_cfg.c **** 			{0x12u, 0x20u},
 457:Generated_Source\PSoC5/cyfitter_cfg.c **** 			{0x14u, 0x23u},
ARM GAS  C:\Users\miker\AppData\Local\Temp\ccyxJrri.s 			page 18


 458:Generated_Source\PSoC5/cyfitter_cfg.c **** 			{0x16u, 0x1Cu},
 459:Generated_Source\PSoC5/cyfitter_cfg.c **** 			{0x18u, 0x07u},
 460:Generated_Source\PSoC5/cyfitter_cfg.c **** 			{0x19u, 0x01u},
 461:Generated_Source\PSoC5/cyfitter_cfg.c **** 			{0x1Bu, 0x02u},
 462:Generated_Source\PSoC5/cyfitter_cfg.c **** 			{0x1Cu, 0x40u},
 463:Generated_Source\PSoC5/cyfitter_cfg.c **** 			{0x20u, 0x0Cu},
 464:Generated_Source\PSoC5/cyfitter_cfg.c **** 			{0x21u, 0x01u},
 465:Generated_Source\PSoC5/cyfitter_cfg.c **** 			{0x22u, 0x03u},
 466:Generated_Source\PSoC5/cyfitter_cfg.c **** 			{0x23u, 0x02u},
 467:Generated_Source\PSoC5/cyfitter_cfg.c **** 			{0x24u, 0x0Au},
 468:Generated_Source\PSoC5/cyfitter_cfg.c **** 			{0x25u, 0x01u},
 469:Generated_Source\PSoC5/cyfitter_cfg.c **** 			{0x26u, 0x05u},
 470:Generated_Source\PSoC5/cyfitter_cfg.c **** 			{0x27u, 0x02u},
 471:Generated_Source\PSoC5/cyfitter_cfg.c **** 			{0x2Au, 0x80u},
 472:Generated_Source\PSoC5/cyfitter_cfg.c **** 			{0x2Cu, 0x10u},
 473:Generated_Source\PSoC5/cyfitter_cfg.c **** 			{0x2Eu, 0x20u},
 474:Generated_Source\PSoC5/cyfitter_cfg.c **** 			{0x2Fu, 0x04u},
 475:Generated_Source\PSoC5/cyfitter_cfg.c **** 			{0x30u, 0x40u},
 476:Generated_Source\PSoC5/cyfitter_cfg.c **** 			{0x31u, 0x04u},
 477:Generated_Source\PSoC5/cyfitter_cfg.c **** 			{0x32u, 0x30u},
 478:Generated_Source\PSoC5/cyfitter_cfg.c **** 			{0x34u, 0x0Fu},
 479:Generated_Source\PSoC5/cyfitter_cfg.c **** 			{0x36u, 0x80u},
 480:Generated_Source\PSoC5/cyfitter_cfg.c **** 			{0x37u, 0x03u},
 481:Generated_Source\PSoC5/cyfitter_cfg.c **** 			{0x38u, 0x02u},
 482:Generated_Source\PSoC5/cyfitter_cfg.c **** 			{0x3Au, 0x08u},
 483:Generated_Source\PSoC5/cyfitter_cfg.c **** 			{0x3Bu, 0x80u},
 484:Generated_Source\PSoC5/cyfitter_cfg.c **** 			{0x3Fu, 0x01u},
 485:Generated_Source\PSoC5/cyfitter_cfg.c **** 			{0x58u, 0x04u},
 486:Generated_Source\PSoC5/cyfitter_cfg.c **** 			{0x59u, 0x04u},
 487:Generated_Source\PSoC5/cyfitter_cfg.c **** 			{0x5Cu, 0x99u},
 488:Generated_Source\PSoC5/cyfitter_cfg.c **** 			{0x5Fu, 0x01u},
 489:Generated_Source\PSoC5/cyfitter_cfg.c **** 			{0x88u, 0x02u},
 490:Generated_Source\PSoC5/cyfitter_cfg.c **** 			{0x90u, 0x01u},
 491:Generated_Source\PSoC5/cyfitter_cfg.c **** 			{0x96u, 0x04u},
 492:Generated_Source\PSoC5/cyfitter_cfg.c **** 			{0x98u, 0x04u},
 493:Generated_Source\PSoC5/cyfitter_cfg.c **** 			{0x9Eu, 0x0Au},
 494:Generated_Source\PSoC5/cyfitter_cfg.c **** 			{0x9Fu, 0x01u},
 495:Generated_Source\PSoC5/cyfitter_cfg.c **** 			{0xA2u, 0x01u},
 496:Generated_Source\PSoC5/cyfitter_cfg.c **** 			{0xB0u, 0x02u},
 497:Generated_Source\PSoC5/cyfitter_cfg.c **** 			{0xB2u, 0x08u},
 498:Generated_Source\PSoC5/cyfitter_cfg.c **** 			{0xB4u, 0x04u},
 499:Generated_Source\PSoC5/cyfitter_cfg.c **** 			{0xB6u, 0x01u},
 500:Generated_Source\PSoC5/cyfitter_cfg.c **** 			{0xB7u, 0x01u},
 501:Generated_Source\PSoC5/cyfitter_cfg.c **** 			{0xBEu, 0x51u},
 502:Generated_Source\PSoC5/cyfitter_cfg.c **** 			{0xD4u, 0x0Fu},
 503:Generated_Source\PSoC5/cyfitter_cfg.c **** 			{0xD8u, 0x04u},
 504:Generated_Source\PSoC5/cyfitter_cfg.c **** 			{0xD9u, 0x04u},
 505:Generated_Source\PSoC5/cyfitter_cfg.c **** 			{0xDBu, 0x04u},
 506:Generated_Source\PSoC5/cyfitter_cfg.c **** 			{0xDCu, 0x99u},
 507:Generated_Source\PSoC5/cyfitter_cfg.c **** 			{0xDDu, 0x90u},
 508:Generated_Source\PSoC5/cyfitter_cfg.c **** 			{0xDFu, 0x05u},
 509:Generated_Source\PSoC5/cyfitter_cfg.c **** 			{0x00u, 0x10u},
 510:Generated_Source\PSoC5/cyfitter_cfg.c **** 			{0x05u, 0x10u},
 511:Generated_Source\PSoC5/cyfitter_cfg.c **** 			{0x06u, 0x20u},
 512:Generated_Source\PSoC5/cyfitter_cfg.c **** 			{0x07u, 0x82u},
 513:Generated_Source\PSoC5/cyfitter_cfg.c **** 			{0x09u, 0x08u},
 514:Generated_Source\PSoC5/cyfitter_cfg.c **** 			{0x0Au, 0x88u},
ARM GAS  C:\Users\miker\AppData\Local\Temp\ccyxJrri.s 			page 19


 515:Generated_Source\PSoC5/cyfitter_cfg.c **** 			{0x0Bu, 0x01u},
 516:Generated_Source\PSoC5/cyfitter_cfg.c **** 			{0x0Eu, 0xA8u},
 517:Generated_Source\PSoC5/cyfitter_cfg.c **** 			{0x0Fu, 0x01u},
 518:Generated_Source\PSoC5/cyfitter_cfg.c **** 			{0x10u, 0x80u},
 519:Generated_Source\PSoC5/cyfitter_cfg.c **** 			{0x16u, 0x08u},
 520:Generated_Source\PSoC5/cyfitter_cfg.c **** 			{0x17u, 0x49u},
 521:Generated_Source\PSoC5/cyfitter_cfg.c **** 			{0x18u, 0x10u},
 522:Generated_Source\PSoC5/cyfitter_cfg.c **** 			{0x19u, 0x41u},
 523:Generated_Source\PSoC5/cyfitter_cfg.c **** 			{0x1Au, 0x04u},
 524:Generated_Source\PSoC5/cyfitter_cfg.c **** 			{0x1Cu, 0x08u},
 525:Generated_Source\PSoC5/cyfitter_cfg.c **** 			{0x1Du, 0x10u},
 526:Generated_Source\PSoC5/cyfitter_cfg.c **** 			{0x1Eu, 0x60u},
 527:Generated_Source\PSoC5/cyfitter_cfg.c **** 			{0x1Fu, 0x40u},
 528:Generated_Source\PSoC5/cyfitter_cfg.c **** 			{0x20u, 0x01u},
 529:Generated_Source\PSoC5/cyfitter_cfg.c **** 			{0x22u, 0x40u},
 530:Generated_Source\PSoC5/cyfitter_cfg.c **** 			{0x24u, 0x40u},
 531:Generated_Source\PSoC5/cyfitter_cfg.c **** 			{0x25u, 0xC0u},
 532:Generated_Source\PSoC5/cyfitter_cfg.c **** 			{0x27u, 0x02u},
 533:Generated_Source\PSoC5/cyfitter_cfg.c **** 			{0x2Eu, 0x48u},
 534:Generated_Source\PSoC5/cyfitter_cfg.c **** 			{0x2Fu, 0x40u},
 535:Generated_Source\PSoC5/cyfitter_cfg.c **** 			{0x30u, 0x80u},
 536:Generated_Source\PSoC5/cyfitter_cfg.c **** 			{0x37u, 0x10u},
 537:Generated_Source\PSoC5/cyfitter_cfg.c **** 			{0x3Cu, 0x01u},
 538:Generated_Source\PSoC5/cyfitter_cfg.c **** 			{0x3Du, 0x88u},
 539:Generated_Source\PSoC5/cyfitter_cfg.c **** 			{0x59u, 0x41u},
 540:Generated_Source\PSoC5/cyfitter_cfg.c **** 			{0x5Au, 0x04u},
 541:Generated_Source\PSoC5/cyfitter_cfg.c **** 			{0x5Bu, 0x20u},
 542:Generated_Source\PSoC5/cyfitter_cfg.c **** 			{0x61u, 0x04u},
 543:Generated_Source\PSoC5/cyfitter_cfg.c **** 			{0x62u, 0x10u},
 544:Generated_Source\PSoC5/cyfitter_cfg.c **** 			{0x69u, 0x40u},
 545:Generated_Source\PSoC5/cyfitter_cfg.c **** 			{0x7Au, 0x04u},
 546:Generated_Source\PSoC5/cyfitter_cfg.c **** 			{0x8Au, 0x21u},
 547:Generated_Source\PSoC5/cyfitter_cfg.c **** 			{0x8Du, 0x40u},
 548:Generated_Source\PSoC5/cyfitter_cfg.c **** 			{0x8Fu, 0x21u},
 549:Generated_Source\PSoC5/cyfitter_cfg.c **** 			{0x94u, 0x41u},
 550:Generated_Source\PSoC5/cyfitter_cfg.c **** 			{0x96u, 0x41u},
 551:Generated_Source\PSoC5/cyfitter_cfg.c **** 			{0x9Au, 0x08u},
 552:Generated_Source\PSoC5/cyfitter_cfg.c **** 			{0x9Bu, 0x40u},
 553:Generated_Source\PSoC5/cyfitter_cfg.c **** 			{0x9Du, 0x02u},
 554:Generated_Source\PSoC5/cyfitter_cfg.c **** 			{0x9Fu, 0x10u},
 555:Generated_Source\PSoC5/cyfitter_cfg.c **** 			{0xA0u, 0x40u},
 556:Generated_Source\PSoC5/cyfitter_cfg.c **** 			{0xA2u, 0x40u},
 557:Generated_Source\PSoC5/cyfitter_cfg.c **** 			{0xA5u, 0x04u},
 558:Generated_Source\PSoC5/cyfitter_cfg.c **** 			{0xA6u, 0x04u},
 559:Generated_Source\PSoC5/cyfitter_cfg.c **** 			{0xA9u, 0x08u},
 560:Generated_Source\PSoC5/cyfitter_cfg.c **** 			{0xABu, 0x20u},
 561:Generated_Source\PSoC5/cyfitter_cfg.c **** 			{0xAEu, 0x01u},
 562:Generated_Source\PSoC5/cyfitter_cfg.c **** 			{0xAFu, 0x20u},
 563:Generated_Source\PSoC5/cyfitter_cfg.c **** 			{0xB0u, 0x40u},
 564:Generated_Source\PSoC5/cyfitter_cfg.c **** 			{0xB5u, 0x40u},
 565:Generated_Source\PSoC5/cyfitter_cfg.c **** 			{0xC0u, 0xF2u},
 566:Generated_Source\PSoC5/cyfitter_cfg.c **** 			{0xC2u, 0xFFu},
 567:Generated_Source\PSoC5/cyfitter_cfg.c **** 			{0xC4u, 0xF8u},
 568:Generated_Source\PSoC5/cyfitter_cfg.c **** 			{0xCAu, 0xD0u},
 569:Generated_Source\PSoC5/cyfitter_cfg.c **** 			{0xCCu, 0x28u},
 570:Generated_Source\PSoC5/cyfitter_cfg.c **** 			{0xCEu, 0xD0u},
 571:Generated_Source\PSoC5/cyfitter_cfg.c **** 			{0xD6u, 0x0Fu},
ARM GAS  C:\Users\miker\AppData\Local\Temp\ccyxJrri.s 			page 20


 572:Generated_Source\PSoC5/cyfitter_cfg.c **** 			{0xD8u, 0x06u},
 573:Generated_Source\PSoC5/cyfitter_cfg.c **** 			{0xDEu, 0x04u},
 574:Generated_Source\PSoC5/cyfitter_cfg.c **** 			{0xE2u, 0x02u},
 575:Generated_Source\PSoC5/cyfitter_cfg.c **** 			{0xE8u, 0x01u},
 576:Generated_Source\PSoC5/cyfitter_cfg.c **** 			{0xEAu, 0x40u},
 577:Generated_Source\PSoC5/cyfitter_cfg.c **** 			{0x06u, 0x01u},
 578:Generated_Source\PSoC5/cyfitter_cfg.c **** 			{0x0Cu, 0x01u},
 579:Generated_Source\PSoC5/cyfitter_cfg.c **** 			{0x0Du, 0x08u},
 580:Generated_Source\PSoC5/cyfitter_cfg.c **** 			{0x0Eu, 0x02u},
 581:Generated_Source\PSoC5/cyfitter_cfg.c **** 			{0x16u, 0x08u},
 582:Generated_Source\PSoC5/cyfitter_cfg.c **** 			{0x17u, 0x0Eu},
 583:Generated_Source\PSoC5/cyfitter_cfg.c **** 			{0x1Bu, 0x02u},
 584:Generated_Source\PSoC5/cyfitter_cfg.c **** 			{0x22u, 0x04u},
 585:Generated_Source\PSoC5/cyfitter_cfg.c **** 			{0x26u, 0x08u},
 586:Generated_Source\PSoC5/cyfitter_cfg.c **** 			{0x2Fu, 0x01u},
 587:Generated_Source\PSoC5/cyfitter_cfg.c **** 			{0x30u, 0x04u},
 588:Generated_Source\PSoC5/cyfitter_cfg.c **** 			{0x31u, 0x04u},
 589:Generated_Source\PSoC5/cyfitter_cfg.c **** 			{0x32u, 0x02u},
 590:Generated_Source\PSoC5/cyfitter_cfg.c **** 			{0x33u, 0x02u},
 591:Generated_Source\PSoC5/cyfitter_cfg.c **** 			{0x34u, 0x08u},
 592:Generated_Source\PSoC5/cyfitter_cfg.c **** 			{0x35u, 0x01u},
 593:Generated_Source\PSoC5/cyfitter_cfg.c **** 			{0x36u, 0x01u},
 594:Generated_Source\PSoC5/cyfitter_cfg.c **** 			{0x37u, 0x08u},
 595:Generated_Source\PSoC5/cyfitter_cfg.c **** 			{0x3Eu, 0x10u},
 596:Generated_Source\PSoC5/cyfitter_cfg.c **** 			{0x40u, 0x20u},
 597:Generated_Source\PSoC5/cyfitter_cfg.c **** 			{0x41u, 0x06u},
 598:Generated_Source\PSoC5/cyfitter_cfg.c **** 			{0x45u, 0xD0u},
 599:Generated_Source\PSoC5/cyfitter_cfg.c **** 			{0x46u, 0x20u},
 600:Generated_Source\PSoC5/cyfitter_cfg.c **** 			{0x47u, 0x01u},
 601:Generated_Source\PSoC5/cyfitter_cfg.c **** 			{0x48u, 0x1Au},
 602:Generated_Source\PSoC5/cyfitter_cfg.c **** 			{0x49u, 0xFFu},
 603:Generated_Source\PSoC5/cyfitter_cfg.c **** 			{0x4Au, 0xFFu},
 604:Generated_Source\PSoC5/cyfitter_cfg.c **** 			{0x4Bu, 0xFFu},
 605:Generated_Source\PSoC5/cyfitter_cfg.c **** 			{0x4Du, 0xA0u},
 606:Generated_Source\PSoC5/cyfitter_cfg.c **** 			{0x4Fu, 0x04u},
 607:Generated_Source\PSoC5/cyfitter_cfg.c **** 			{0x50u, 0x18u},
 608:Generated_Source\PSoC5/cyfitter_cfg.c **** 			{0x52u, 0x80u},
 609:Generated_Source\PSoC5/cyfitter_cfg.c **** 			{0x54u, 0x05u},
 610:Generated_Source\PSoC5/cyfitter_cfg.c **** 			{0x58u, 0x04u},
 611:Generated_Source\PSoC5/cyfitter_cfg.c **** 			{0x59u, 0x04u},
 612:Generated_Source\PSoC5/cyfitter_cfg.c **** 			{0x5Au, 0x04u},
 613:Generated_Source\PSoC5/cyfitter_cfg.c **** 			{0x5Bu, 0x04u},
 614:Generated_Source\PSoC5/cyfitter_cfg.c **** 			{0x5Cu, 0x24u},
 615:Generated_Source\PSoC5/cyfitter_cfg.c **** 			{0x5Du, 0x22u},
 616:Generated_Source\PSoC5/cyfitter_cfg.c **** 			{0x5Fu, 0x01u},
 617:Generated_Source\PSoC5/cyfitter_cfg.c **** 			{0x60u, 0x40u},
 618:Generated_Source\PSoC5/cyfitter_cfg.c **** 			{0x62u, 0xC0u},
 619:Generated_Source\PSoC5/cyfitter_cfg.c **** 			{0x64u, 0x40u},
 620:Generated_Source\PSoC5/cyfitter_cfg.c **** 			{0x65u, 0x40u},
 621:Generated_Source\PSoC5/cyfitter_cfg.c **** 			{0x66u, 0xC0u},
 622:Generated_Source\PSoC5/cyfitter_cfg.c **** 			{0x68u, 0xC0u},
 623:Generated_Source\PSoC5/cyfitter_cfg.c **** 			{0x6Au, 0xC0u},
 624:Generated_Source\PSoC5/cyfitter_cfg.c **** 			{0x6Cu, 0xC0u},
 625:Generated_Source\PSoC5/cyfitter_cfg.c **** 			{0x6Eu, 0xC0u},
 626:Generated_Source\PSoC5/cyfitter_cfg.c **** 			{0x81u, 0x01u},
 627:Generated_Source\PSoC5/cyfitter_cfg.c **** 			{0x85u, 0x01u},
 628:Generated_Source\PSoC5/cyfitter_cfg.c **** 			{0x8Fu, 0x01u},
ARM GAS  C:\Users\miker\AppData\Local\Temp\ccyxJrri.s 			page 21


 629:Generated_Source\PSoC5/cyfitter_cfg.c **** 			{0xA3u, 0x02u},
 630:Generated_Source\PSoC5/cyfitter_cfg.c **** 			{0xAEu, 0x01u},
 631:Generated_Source\PSoC5/cyfitter_cfg.c **** 			{0xB0u, 0x01u},
 632:Generated_Source\PSoC5/cyfitter_cfg.c **** 			{0xB1u, 0x02u},
 633:Generated_Source\PSoC5/cyfitter_cfg.c **** 			{0xB3u, 0x01u},
 634:Generated_Source\PSoC5/cyfitter_cfg.c **** 			{0xB8u, 0x20u},
 635:Generated_Source\PSoC5/cyfitter_cfg.c **** 			{0xBEu, 0x10u},
 636:Generated_Source\PSoC5/cyfitter_cfg.c **** 			{0xBFu, 0x04u},
 637:Generated_Source\PSoC5/cyfitter_cfg.c **** 			{0xD4u, 0x0Fu},
 638:Generated_Source\PSoC5/cyfitter_cfg.c **** 			{0xD8u, 0x04u},
 639:Generated_Source\PSoC5/cyfitter_cfg.c **** 			{0xD9u, 0x04u},
 640:Generated_Source\PSoC5/cyfitter_cfg.c **** 			{0xDBu, 0x04u},
 641:Generated_Source\PSoC5/cyfitter_cfg.c **** 			{0xDCu, 0x99u},
 642:Generated_Source\PSoC5/cyfitter_cfg.c **** 			{0xDDu, 0x90u},
 643:Generated_Source\PSoC5/cyfitter_cfg.c **** 			{0xDFu, 0x01u},
 644:Generated_Source\PSoC5/cyfitter_cfg.c **** 			{0x01u, 0x08u},
 645:Generated_Source\PSoC5/cyfitter_cfg.c **** 			{0x03u, 0x02u},
 646:Generated_Source\PSoC5/cyfitter_cfg.c **** 			{0x0Au, 0x20u},
 647:Generated_Source\PSoC5/cyfitter_cfg.c **** 			{0x10u, 0xA0u},
 648:Generated_Source\PSoC5/cyfitter_cfg.c **** 			{0x17u, 0x40u},
 649:Generated_Source\PSoC5/cyfitter_cfg.c **** 			{0x19u, 0x08u},
 650:Generated_Source\PSoC5/cyfitter_cfg.c **** 			{0x1Au, 0x0Au},
 651:Generated_Source\PSoC5/cyfitter_cfg.c **** 			{0x1Bu, 0x02u},
 652:Generated_Source\PSoC5/cyfitter_cfg.c **** 			{0x1Eu, 0x80u},
 653:Generated_Source\PSoC5/cyfitter_cfg.c **** 			{0x1Fu, 0x20u},
 654:Generated_Source\PSoC5/cyfitter_cfg.c **** 			{0x21u, 0x28u},
 655:Generated_Source\PSoC5/cyfitter_cfg.c **** 			{0x22u, 0x50u},
 656:Generated_Source\PSoC5/cyfitter_cfg.c **** 			{0x23u, 0x40u},
 657:Generated_Source\PSoC5/cyfitter_cfg.c **** 			{0x27u, 0x60u},
 658:Generated_Source\PSoC5/cyfitter_cfg.c **** 			{0x2Au, 0x80u},
 659:Generated_Source\PSoC5/cyfitter_cfg.c **** 			{0x2Eu, 0x01u},
 660:Generated_Source\PSoC5/cyfitter_cfg.c **** 			{0x31u, 0x20u},
 661:Generated_Source\PSoC5/cyfitter_cfg.c **** 			{0x32u, 0x08u},
 662:Generated_Source\PSoC5/cyfitter_cfg.c **** 			{0x3Bu, 0x40u},
 663:Generated_Source\PSoC5/cyfitter_cfg.c **** 			{0x3Cu, 0x01u},
 664:Generated_Source\PSoC5/cyfitter_cfg.c **** 			{0x3Du, 0x08u},
 665:Generated_Source\PSoC5/cyfitter_cfg.c **** 			{0x3Eu, 0x40u},
 666:Generated_Source\PSoC5/cyfitter_cfg.c **** 			{0x41u, 0x20u},
 667:Generated_Source\PSoC5/cyfitter_cfg.c **** 			{0x49u, 0x01u},
 668:Generated_Source\PSoC5/cyfitter_cfg.c **** 			{0x4Bu, 0x20u},
 669:Generated_Source\PSoC5/cyfitter_cfg.c **** 			{0x50u, 0x20u},
 670:Generated_Source\PSoC5/cyfitter_cfg.c **** 			{0x52u, 0x08u},
 671:Generated_Source\PSoC5/cyfitter_cfg.c **** 			{0x53u, 0x10u},
 672:Generated_Source\PSoC5/cyfitter_cfg.c **** 			{0x59u, 0x01u},
 673:Generated_Source\PSoC5/cyfitter_cfg.c **** 			{0x5Au, 0x88u},
 674:Generated_Source\PSoC5/cyfitter_cfg.c **** 			{0x5Cu, 0x40u},
 675:Generated_Source\PSoC5/cyfitter_cfg.c **** 			{0x5Du, 0x02u},
 676:Generated_Source\PSoC5/cyfitter_cfg.c **** 			{0x5Eu, 0x08u},
 677:Generated_Source\PSoC5/cyfitter_cfg.c **** 			{0x5Fu, 0x20u},
 678:Generated_Source\PSoC5/cyfitter_cfg.c **** 			{0x6Du, 0x44u},
 679:Generated_Source\PSoC5/cyfitter_cfg.c **** 			{0x6Eu, 0x20u},
 680:Generated_Source\PSoC5/cyfitter_cfg.c **** 			{0x72u, 0x80u},
 681:Generated_Source\PSoC5/cyfitter_cfg.c **** 			{0x86u, 0x10u},
 682:Generated_Source\PSoC5/cyfitter_cfg.c **** 			{0x89u, 0x04u},
 683:Generated_Source\PSoC5/cyfitter_cfg.c **** 			{0x8Cu, 0x80u},
 684:Generated_Source\PSoC5/cyfitter_cfg.c **** 			{0x9Au, 0x08u},
 685:Generated_Source\PSoC5/cyfitter_cfg.c **** 			{0x9Fu, 0x10u},
ARM GAS  C:\Users\miker\AppData\Local\Temp\ccyxJrri.s 			page 22


 686:Generated_Source\PSoC5/cyfitter_cfg.c **** 			{0xC0u, 0x05u},
 687:Generated_Source\PSoC5/cyfitter_cfg.c **** 			{0xC2u, 0x04u},
 688:Generated_Source\PSoC5/cyfitter_cfg.c **** 			{0xC4u, 0x8Cu},
 689:Generated_Source\PSoC5/cyfitter_cfg.c **** 			{0xCAu, 0x88u},
 690:Generated_Source\PSoC5/cyfitter_cfg.c **** 			{0xCCu, 0x06u},
 691:Generated_Source\PSoC5/cyfitter_cfg.c **** 			{0xCEu, 0xD8u},
 692:Generated_Source\PSoC5/cyfitter_cfg.c **** 			{0xD0u, 0x04u},
 693:Generated_Source\PSoC5/cyfitter_cfg.c **** 			{0xD2u, 0x04u},
 694:Generated_Source\PSoC5/cyfitter_cfg.c **** 			{0xD6u, 0xFBu},
 695:Generated_Source\PSoC5/cyfitter_cfg.c **** 			{0xE2u, 0x20u},
 696:Generated_Source\PSoC5/cyfitter_cfg.c **** 			{0x9Au, 0x08u},
 697:Generated_Source\PSoC5/cyfitter_cfg.c **** 			{0x9Fu, 0x10u},
 698:Generated_Source\PSoC5/cyfitter_cfg.c **** 			{0xAFu, 0x40u},
 699:Generated_Source\PSoC5/cyfitter_cfg.c **** 			{0xB0u, 0x01u},
 700:Generated_Source\PSoC5/cyfitter_cfg.c **** 			{0xB4u, 0x20u},
 701:Generated_Source\PSoC5/cyfitter_cfg.c **** 			{0x02u, 0x02u},
 702:Generated_Source\PSoC5/cyfitter_cfg.c **** 			{0x0Cu, 0x04u},
 703:Generated_Source\PSoC5/cyfitter_cfg.c **** 			{0x11u, 0x02u},
 704:Generated_Source\PSoC5/cyfitter_cfg.c **** 			{0x1Cu, 0x01u},
 705:Generated_Source\PSoC5/cyfitter_cfg.c **** 			{0x27u, 0x01u},
 706:Generated_Source\PSoC5/cyfitter_cfg.c **** 			{0x31u, 0x01u},
 707:Generated_Source\PSoC5/cyfitter_cfg.c **** 			{0x32u, 0x01u},
 708:Generated_Source\PSoC5/cyfitter_cfg.c **** 			{0x34u, 0x04u},
 709:Generated_Source\PSoC5/cyfitter_cfg.c **** 			{0x36u, 0x02u},
 710:Generated_Source\PSoC5/cyfitter_cfg.c **** 			{0x37u, 0x02u},
 711:Generated_Source\PSoC5/cyfitter_cfg.c **** 			{0x3Eu, 0x14u},
 712:Generated_Source\PSoC5/cyfitter_cfg.c **** 			{0x3Fu, 0x40u},
 713:Generated_Source\PSoC5/cyfitter_cfg.c **** 			{0x56u, 0x04u},
 714:Generated_Source\PSoC5/cyfitter_cfg.c **** 			{0x58u, 0x04u},
 715:Generated_Source\PSoC5/cyfitter_cfg.c **** 			{0x59u, 0x04u},
 716:Generated_Source\PSoC5/cyfitter_cfg.c **** 			{0x5Bu, 0x04u},
 717:Generated_Source\PSoC5/cyfitter_cfg.c **** 			{0x5Cu, 0x33u},
 718:Generated_Source\PSoC5/cyfitter_cfg.c **** 			{0x5Fu, 0x01u},
 719:Generated_Source\PSoC5/cyfitter_cfg.c **** 			{0x92u, 0x01u},
 720:Generated_Source\PSoC5/cyfitter_cfg.c **** 			{0x9Bu, 0x01u},
 721:Generated_Source\PSoC5/cyfitter_cfg.c **** 			{0xB3u, 0x01u},
 722:Generated_Source\PSoC5/cyfitter_cfg.c **** 			{0xB6u, 0x01u},
 723:Generated_Source\PSoC5/cyfitter_cfg.c **** 			{0xD8u, 0x04u},
 724:Generated_Source\PSoC5/cyfitter_cfg.c **** 			{0xD9u, 0x04u},
 725:Generated_Source\PSoC5/cyfitter_cfg.c **** 			{0xDCu, 0x93u},
 726:Generated_Source\PSoC5/cyfitter_cfg.c **** 			{0xDFu, 0x01u},
 727:Generated_Source\PSoC5/cyfitter_cfg.c **** 			{0x00u, 0x02u},
 728:Generated_Source\PSoC5/cyfitter_cfg.c **** 			{0x01u, 0x80u},
 729:Generated_Source\PSoC5/cyfitter_cfg.c **** 			{0x09u, 0x80u},
 730:Generated_Source\PSoC5/cyfitter_cfg.c **** 			{0x0Fu, 0x40u},
 731:Generated_Source\PSoC5/cyfitter_cfg.c **** 			{0x16u, 0x08u},
 732:Generated_Source\PSoC5/cyfitter_cfg.c **** 			{0x17u, 0x20u},
 733:Generated_Source\PSoC5/cyfitter_cfg.c **** 			{0x19u, 0x94u},
 734:Generated_Source\PSoC5/cyfitter_cfg.c **** 			{0x1Du, 0x80u},
 735:Generated_Source\PSoC5/cyfitter_cfg.c **** 			{0x21u, 0x02u},
 736:Generated_Source\PSoC5/cyfitter_cfg.c **** 			{0x22u, 0x40u},
 737:Generated_Source\PSoC5/cyfitter_cfg.c **** 			{0x27u, 0x20u},
 738:Generated_Source\PSoC5/cyfitter_cfg.c **** 			{0x28u, 0x20u},
 739:Generated_Source\PSoC5/cyfitter_cfg.c **** 			{0x31u, 0x02u},
 740:Generated_Source\PSoC5/cyfitter_cfg.c **** 			{0x37u, 0x10u},
 741:Generated_Source\PSoC5/cyfitter_cfg.c **** 			{0x59u, 0x14u},
 742:Generated_Source\PSoC5/cyfitter_cfg.c **** 			{0x5Au, 0x80u},
ARM GAS  C:\Users\miker\AppData\Local\Temp\ccyxJrri.s 			page 23


 743:Generated_Source\PSoC5/cyfitter_cfg.c **** 			{0x63u, 0x80u},
 744:Generated_Source\PSoC5/cyfitter_cfg.c **** 			{0x83u, 0x40u},
 745:Generated_Source\PSoC5/cyfitter_cfg.c **** 			{0xC0u, 0x09u},
 746:Generated_Source\PSoC5/cyfitter_cfg.c **** 			{0xC2u, 0x11u},
 747:Generated_Source\PSoC5/cyfitter_cfg.c **** 			{0xCAu, 0x02u},
 748:Generated_Source\PSoC5/cyfitter_cfg.c **** 			{0xCCu, 0x21u},
 749:Generated_Source\PSoC5/cyfitter_cfg.c **** 			{0xD6u, 0x0Eu},
 750:Generated_Source\PSoC5/cyfitter_cfg.c **** 			{0xD8u, 0x01u},
 751:Generated_Source\PSoC5/cyfitter_cfg.c **** 			{0xE2u, 0x09u},
 752:Generated_Source\PSoC5/cyfitter_cfg.c **** 			{0xE6u, 0x08u},
 753:Generated_Source\PSoC5/cyfitter_cfg.c **** 			{0xE2u, 0x80u},
 754:Generated_Source\PSoC5/cyfitter_cfg.c **** 			{0xE8u, 0x10u},
 755:Generated_Source\PSoC5/cyfitter_cfg.c **** 			{0xEEu, 0x0Au},
 756:Generated_Source\PSoC5/cyfitter_cfg.c **** 			{0x01u, 0x20u},
 757:Generated_Source\PSoC5/cyfitter_cfg.c **** 			{0x02u, 0x08u},
 758:Generated_Source\PSoC5/cyfitter_cfg.c **** 			{0x04u, 0x56u},
 759:Generated_Source\PSoC5/cyfitter_cfg.c **** 			{0x05u, 0x16u},
 760:Generated_Source\PSoC5/cyfitter_cfg.c **** 			{0x06u, 0x20u},
 761:Generated_Source\PSoC5/cyfitter_cfg.c **** 			{0x07u, 0x08u},
 762:Generated_Source\PSoC5/cyfitter_cfg.c **** 			{0x08u, 0x65u},
 763:Generated_Source\PSoC5/cyfitter_cfg.c **** 			{0x0Au, 0x10u},
 764:Generated_Source\PSoC5/cyfitter_cfg.c **** 			{0x0Du, 0x10u},
 765:Generated_Source\PSoC5/cyfitter_cfg.c **** 			{0x0Eu, 0x18u},
 766:Generated_Source\PSoC5/cyfitter_cfg.c **** 			{0x0Fu, 0x02u},
 767:Generated_Source\PSoC5/cyfitter_cfg.c **** 			{0x11u, 0x18u},
 768:Generated_Source\PSoC5/cyfitter_cfg.c **** 			{0x13u, 0x04u},
 769:Generated_Source\PSoC5/cyfitter_cfg.c **** 			{0x14u, 0x60u},
 770:Generated_Source\PSoC5/cyfitter_cfg.c **** 			{0x15u, 0x18u},
 771:Generated_Source\PSoC5/cyfitter_cfg.c **** 			{0x17u, 0x02u},
 772:Generated_Source\PSoC5/cyfitter_cfg.c **** 			{0x18u, 0x33u},
 773:Generated_Source\PSoC5/cyfitter_cfg.c **** 			{0x1Bu, 0x1Eu},
 774:Generated_Source\PSoC5/cyfitter_cfg.c **** 			{0x1Cu, 0x20u},
 775:Generated_Source\PSoC5/cyfitter_cfg.c **** 			{0x1Eu, 0x40u},
 776:Generated_Source\PSoC5/cyfitter_cfg.c **** 			{0x1Fu, 0x01u},
 777:Generated_Source\PSoC5/cyfitter_cfg.c **** 			{0x20u, 0x76u},
 778:Generated_Source\PSoC5/cyfitter_cfg.c **** 			{0x24u, 0x08u},
 779:Generated_Source\PSoC5/cyfitter_cfg.c **** 			{0x25u, 0x2Eu},
 780:Generated_Source\PSoC5/cyfitter_cfg.c **** 			{0x29u, 0x20u},
 781:Generated_Source\PSoC5/cyfitter_cfg.c **** 			{0x2Fu, 0x40u},
 782:Generated_Source\PSoC5/cyfitter_cfg.c **** 			{0x30u, 0x08u},
 783:Generated_Source\PSoC5/cyfitter_cfg.c **** 			{0x31u, 0x20u},
 784:Generated_Source\PSoC5/cyfitter_cfg.c **** 			{0x33u, 0x40u},
 785:Generated_Source\PSoC5/cyfitter_cfg.c **** 			{0x34u, 0x07u},
 786:Generated_Source\PSoC5/cyfitter_cfg.c **** 			{0x35u, 0x01u},
 787:Generated_Source\PSoC5/cyfitter_cfg.c **** 			{0x36u, 0x70u},
 788:Generated_Source\PSoC5/cyfitter_cfg.c **** 			{0x37u, 0x1Eu},
 789:Generated_Source\PSoC5/cyfitter_cfg.c **** 			{0x38u, 0x20u},
 790:Generated_Source\PSoC5/cyfitter_cfg.c **** 			{0x39u, 0x02u},
 791:Generated_Source\PSoC5/cyfitter_cfg.c **** 			{0x3Eu, 0x01u},
 792:Generated_Source\PSoC5/cyfitter_cfg.c **** 			{0x3Fu, 0x01u},
 793:Generated_Source\PSoC5/cyfitter_cfg.c **** 			{0x40u, 0x41u},
 794:Generated_Source\PSoC5/cyfitter_cfg.c **** 			{0x41u, 0x02u},
 795:Generated_Source\PSoC5/cyfitter_cfg.c **** 			{0x49u, 0xFFu},
 796:Generated_Source\PSoC5/cyfitter_cfg.c **** 			{0x4Au, 0xFFu},
 797:Generated_Source\PSoC5/cyfitter_cfg.c **** 			{0x4Bu, 0xFFu},
 798:Generated_Source\PSoC5/cyfitter_cfg.c **** 			{0x4Du, 0xA0u},
 799:Generated_Source\PSoC5/cyfitter_cfg.c **** 			{0x4Fu, 0x01u},
ARM GAS  C:\Users\miker\AppData\Local\Temp\ccyxJrri.s 			page 24


 800:Generated_Source\PSoC5/cyfitter_cfg.c **** 			{0x50u, 0x18u},
 801:Generated_Source\PSoC5/cyfitter_cfg.c **** 			{0x52u, 0x80u},
 802:Generated_Source\PSoC5/cyfitter_cfg.c **** 			{0x58u, 0x04u},
 803:Generated_Source\PSoC5/cyfitter_cfg.c **** 			{0x59u, 0x04u},
 804:Generated_Source\PSoC5/cyfitter_cfg.c **** 			{0x5Au, 0x04u},
 805:Generated_Source\PSoC5/cyfitter_cfg.c **** 			{0x5Bu, 0x04u},
 806:Generated_Source\PSoC5/cyfitter_cfg.c **** 			{0x5Cu, 0x99u},
 807:Generated_Source\PSoC5/cyfitter_cfg.c **** 			{0x5Du, 0x99u},
 808:Generated_Source\PSoC5/cyfitter_cfg.c **** 			{0x5Fu, 0x01u},
 809:Generated_Source\PSoC5/cyfitter_cfg.c **** 			{0x60u, 0x40u},
 810:Generated_Source\PSoC5/cyfitter_cfg.c **** 			{0x62u, 0x80u},
 811:Generated_Source\PSoC5/cyfitter_cfg.c **** 			{0x64u, 0x40u},
 812:Generated_Source\PSoC5/cyfitter_cfg.c **** 			{0x65u, 0x40u},
 813:Generated_Source\PSoC5/cyfitter_cfg.c **** 			{0x66u, 0x80u},
 814:Generated_Source\PSoC5/cyfitter_cfg.c **** 			{0x68u, 0x40u},
 815:Generated_Source\PSoC5/cyfitter_cfg.c **** 			{0x6Au, 0x80u},
 816:Generated_Source\PSoC5/cyfitter_cfg.c **** 			{0x6Cu, 0x40u},
 817:Generated_Source\PSoC5/cyfitter_cfg.c **** 			{0x6Du, 0x20u},
 818:Generated_Source\PSoC5/cyfitter_cfg.c **** 			{0x6Eu, 0x80u},
 819:Generated_Source\PSoC5/cyfitter_cfg.c **** 			{0x8Eu, 0x01u},
 820:Generated_Source\PSoC5/cyfitter_cfg.c **** 			{0xB6u, 0x01u},
 821:Generated_Source\PSoC5/cyfitter_cfg.c **** 			{0xC0u, 0x41u},
 822:Generated_Source\PSoC5/cyfitter_cfg.c **** 			{0xC1u, 0x03u},
 823:Generated_Source\PSoC5/cyfitter_cfg.c **** 			{0xC5u, 0x2Eu},
 824:Generated_Source\PSoC5/cyfitter_cfg.c **** 			{0xC6u, 0xC4u},
 825:Generated_Source\PSoC5/cyfitter_cfg.c **** 			{0xC7u, 0x03u},
 826:Generated_Source\PSoC5/cyfitter_cfg.c **** 			{0xC8u, 0x1Fu},
 827:Generated_Source\PSoC5/cyfitter_cfg.c **** 			{0xC9u, 0xFFu},
 828:Generated_Source\PSoC5/cyfitter_cfg.c **** 			{0xCAu, 0xFFu},
 829:Generated_Source\PSoC5/cyfitter_cfg.c **** 			{0xCBu, 0xFFu},
 830:Generated_Source\PSoC5/cyfitter_cfg.c **** 			{0xCDu, 0xAFu},
 831:Generated_Source\PSoC5/cyfitter_cfg.c **** 			{0xCEu, 0x07u},
 832:Generated_Source\PSoC5/cyfitter_cfg.c **** 			{0xCFu, 0x01u},
 833:Generated_Source\PSoC5/cyfitter_cfg.c **** 			{0xD0u, 0x18u},
 834:Generated_Source\PSoC5/cyfitter_cfg.c **** 			{0xD8u, 0x04u},
 835:Generated_Source\PSoC5/cyfitter_cfg.c **** 			{0xDAu, 0x04u},
 836:Generated_Source\PSoC5/cyfitter_cfg.c **** 			{0xDCu, 0x09u},
 837:Generated_Source\PSoC5/cyfitter_cfg.c **** 			{0xDDu, 0x09u},
 838:Generated_Source\PSoC5/cyfitter_cfg.c **** 			{0xDFu, 0x01u},
 839:Generated_Source\PSoC5/cyfitter_cfg.c **** 			{0xE0u, 0x40u},
 840:Generated_Source\PSoC5/cyfitter_cfg.c **** 			{0xE2u, 0x80u},
 841:Generated_Source\PSoC5/cyfitter_cfg.c **** 			{0xE4u, 0x40u},
 842:Generated_Source\PSoC5/cyfitter_cfg.c **** 			{0xE5u, 0x40u},
 843:Generated_Source\PSoC5/cyfitter_cfg.c **** 			{0xE6u, 0x80u},
 844:Generated_Source\PSoC5/cyfitter_cfg.c **** 			{0xE8u, 0x40u},
 845:Generated_Source\PSoC5/cyfitter_cfg.c **** 			{0xEAu, 0x80u},
 846:Generated_Source\PSoC5/cyfitter_cfg.c **** 			{0xECu, 0x40u},
 847:Generated_Source\PSoC5/cyfitter_cfg.c **** 			{0xEDu, 0x20u},
 848:Generated_Source\PSoC5/cyfitter_cfg.c **** 			{0xEEu, 0x80u},
 849:Generated_Source\PSoC5/cyfitter_cfg.c **** 			{0x02u, 0x01u},
 850:Generated_Source\PSoC5/cyfitter_cfg.c **** 			{0x04u, 0x08u},
 851:Generated_Source\PSoC5/cyfitter_cfg.c **** 			{0x05u, 0x50u},
 852:Generated_Source\PSoC5/cyfitter_cfg.c **** 			{0x06u, 0x80u},
 853:Generated_Source\PSoC5/cyfitter_cfg.c **** 			{0x0Du, 0x80u},
 854:Generated_Source\PSoC5/cyfitter_cfg.c **** 			{0x0Eu, 0x28u},
 855:Generated_Source\PSoC5/cyfitter_cfg.c **** 			{0x17u, 0x05u},
 856:Generated_Source\PSoC5/cyfitter_cfg.c **** 			{0x1Au, 0x01u},
ARM GAS  C:\Users\miker\AppData\Local\Temp\ccyxJrri.s 			page 25


 857:Generated_Source\PSoC5/cyfitter_cfg.c **** 			{0x1Du, 0x42u},
 858:Generated_Source\PSoC5/cyfitter_cfg.c **** 			{0x1Eu, 0x08u},
 859:Generated_Source\PSoC5/cyfitter_cfg.c **** 			{0x1Fu, 0x20u},
 860:Generated_Source\PSoC5/cyfitter_cfg.c **** 			{0x27u, 0x55u},
 861:Generated_Source\PSoC5/cyfitter_cfg.c **** 			{0x2Fu, 0x29u},
 862:Generated_Source\PSoC5/cyfitter_cfg.c **** 			{0x35u, 0x40u},
 863:Generated_Source\PSoC5/cyfitter_cfg.c **** 			{0x36u, 0x10u},
 864:Generated_Source\PSoC5/cyfitter_cfg.c **** 			{0x37u, 0x09u},
 865:Generated_Source\PSoC5/cyfitter_cfg.c **** 			{0x3Cu, 0x08u},
 866:Generated_Source\PSoC5/cyfitter_cfg.c **** 			{0x3Du, 0x80u},
 867:Generated_Source\PSoC5/cyfitter_cfg.c **** 			{0x3Fu, 0x01u},
 868:Generated_Source\PSoC5/cyfitter_cfg.c **** 			{0x40u, 0x10u},
 869:Generated_Source\PSoC5/cyfitter_cfg.c **** 			{0x41u, 0x02u},
 870:Generated_Source\PSoC5/cyfitter_cfg.c **** 			{0x43u, 0x40u},
 871:Generated_Source\PSoC5/cyfitter_cfg.c **** 			{0x45u, 0x02u},
 872:Generated_Source\PSoC5/cyfitter_cfg.c **** 			{0x47u, 0x60u},
 873:Generated_Source\PSoC5/cyfitter_cfg.c **** 			{0x49u, 0x04u},
 874:Generated_Source\PSoC5/cyfitter_cfg.c **** 			{0x4Bu, 0x01u},
 875:Generated_Source\PSoC5/cyfitter_cfg.c **** 			{0x50u, 0x80u},
 876:Generated_Source\PSoC5/cyfitter_cfg.c **** 			{0x51u, 0x08u},
 877:Generated_Source\PSoC5/cyfitter_cfg.c **** 			{0x52u, 0x10u},
 878:Generated_Source\PSoC5/cyfitter_cfg.c **** 			{0x53u, 0x08u},
 879:Generated_Source\PSoC5/cyfitter_cfg.c **** 			{0x76u, 0x80u},
 880:Generated_Source\PSoC5/cyfitter_cfg.c **** 			{0x82u, 0x01u},
 881:Generated_Source\PSoC5/cyfitter_cfg.c **** 			{0x89u, 0x10u},
 882:Generated_Source\PSoC5/cyfitter_cfg.c **** 			{0x96u, 0x09u},
 883:Generated_Source\PSoC5/cyfitter_cfg.c **** 			{0x97u, 0x01u},
 884:Generated_Source\PSoC5/cyfitter_cfg.c **** 			{0x99u, 0x10u},
 885:Generated_Source\PSoC5/cyfitter_cfg.c **** 			{0x9Du, 0x04u},
 886:Generated_Source\PSoC5/cyfitter_cfg.c **** 			{0x9Eu, 0x10u},
 887:Generated_Source\PSoC5/cyfitter_cfg.c **** 			{0x9Fu, 0x19u},
 888:Generated_Source\PSoC5/cyfitter_cfg.c **** 			{0xA0u, 0x44u},
 889:Generated_Source\PSoC5/cyfitter_cfg.c **** 			{0xA1u, 0xC0u},
 890:Generated_Source\PSoC5/cyfitter_cfg.c **** 			{0xA2u, 0x10u},
 891:Generated_Source\PSoC5/cyfitter_cfg.c **** 			{0xA4u, 0x80u},
 892:Generated_Source\PSoC5/cyfitter_cfg.c **** 			{0xA5u, 0x0Cu},
 893:Generated_Source\PSoC5/cyfitter_cfg.c **** 			{0xA6u, 0x04u},
 894:Generated_Source\PSoC5/cyfitter_cfg.c **** 			{0xB5u, 0x1Au},
 895:Generated_Source\PSoC5/cyfitter_cfg.c **** 			{0xB7u, 0x80u},
 896:Generated_Source\PSoC5/cyfitter_cfg.c **** 			{0xC0u, 0xF1u},
 897:Generated_Source\PSoC5/cyfitter_cfg.c **** 			{0xC2u, 0xE0u},
 898:Generated_Source\PSoC5/cyfitter_cfg.c **** 			{0xC4u, 0x30u},
 899:Generated_Source\PSoC5/cyfitter_cfg.c **** 			{0xCAu, 0x70u},
 900:Generated_Source\PSoC5/cyfitter_cfg.c **** 			{0xCCu, 0xF0u},
 901:Generated_Source\PSoC5/cyfitter_cfg.c **** 			{0xCEu, 0xD0u},
 902:Generated_Source\PSoC5/cyfitter_cfg.c **** 			{0xD0u, 0xBBu},
 903:Generated_Source\PSoC5/cyfitter_cfg.c **** 			{0xE2u, 0x84u},
 904:Generated_Source\PSoC5/cyfitter_cfg.c **** 			{0xE8u, 0x10u},
 905:Generated_Source\PSoC5/cyfitter_cfg.c **** 			{0xEEu, 0x0Au},
 906:Generated_Source\PSoC5/cyfitter_cfg.c **** 			{0x08u, 0x08u},
 907:Generated_Source\PSoC5/cyfitter_cfg.c **** 			{0x0Cu, 0x01u},
 908:Generated_Source\PSoC5/cyfitter_cfg.c **** 			{0x17u, 0x02u},
 909:Generated_Source\PSoC5/cyfitter_cfg.c **** 			{0x18u, 0x04u},
 910:Generated_Source\PSoC5/cyfitter_cfg.c **** 			{0x28u, 0x02u},
 911:Generated_Source\PSoC5/cyfitter_cfg.c **** 			{0x2Du, 0x01u},
 912:Generated_Source\PSoC5/cyfitter_cfg.c **** 			{0x30u, 0x02u},
 913:Generated_Source\PSoC5/cyfitter_cfg.c **** 			{0x32u, 0x04u},
ARM GAS  C:\Users\miker\AppData\Local\Temp\ccyxJrri.s 			page 26


 914:Generated_Source\PSoC5/cyfitter_cfg.c **** 			{0x33u, 0x02u},
 915:Generated_Source\PSoC5/cyfitter_cfg.c **** 			{0x34u, 0x08u},
 916:Generated_Source\PSoC5/cyfitter_cfg.c **** 			{0x36u, 0x01u},
 917:Generated_Source\PSoC5/cyfitter_cfg.c **** 			{0x37u, 0x01u},
 918:Generated_Source\PSoC5/cyfitter_cfg.c **** 			{0x3Eu, 0x55u},
 919:Generated_Source\PSoC5/cyfitter_cfg.c **** 			{0x3Fu, 0x40u},
 920:Generated_Source\PSoC5/cyfitter_cfg.c **** 			{0x56u, 0x04u},
 921:Generated_Source\PSoC5/cyfitter_cfg.c **** 			{0x58u, 0x04u},
 922:Generated_Source\PSoC5/cyfitter_cfg.c **** 			{0x59u, 0x04u},
 923:Generated_Source\PSoC5/cyfitter_cfg.c **** 			{0x5Bu, 0x04u},
 924:Generated_Source\PSoC5/cyfitter_cfg.c **** 			{0x5Cu, 0x90u},
 925:Generated_Source\PSoC5/cyfitter_cfg.c **** 			{0x5Fu, 0x01u},
 926:Generated_Source\PSoC5/cyfitter_cfg.c **** 			{0x81u, 0x04u},
 927:Generated_Source\PSoC5/cyfitter_cfg.c **** 			{0x83u, 0xF0u},
 928:Generated_Source\PSoC5/cyfitter_cfg.c **** 			{0x86u, 0x0Fu},
 929:Generated_Source\PSoC5/cyfitter_cfg.c **** 			{0x87u, 0x07u},
 930:Generated_Source\PSoC5/cyfitter_cfg.c **** 			{0x88u, 0xFDu},
 931:Generated_Source\PSoC5/cyfitter_cfg.c **** 			{0x8Au, 0x02u},
 932:Generated_Source\PSoC5/cyfitter_cfg.c **** 			{0x91u, 0xC0u},
 933:Generated_Source\PSoC5/cyfitter_cfg.c **** 			{0x93u, 0x14u},
 934:Generated_Source\PSoC5/cyfitter_cfg.c **** 			{0x94u, 0x94u},
 935:Generated_Source\PSoC5/cyfitter_cfg.c **** 			{0x95u, 0x77u},
 936:Generated_Source\PSoC5/cyfitter_cfg.c **** 			{0x96u, 0x60u},
 937:Generated_Source\PSoC5/cyfitter_cfg.c **** 			{0x98u, 0x73u},
 938:Generated_Source\PSoC5/cyfitter_cfg.c **** 			{0x99u, 0xB7u},
 939:Generated_Source\PSoC5/cyfitter_cfg.c **** 			{0x9Bu, 0x40u},
 940:Generated_Source\PSoC5/cyfitter_cfg.c **** 			{0x9Cu, 0x30u},
 941:Generated_Source\PSoC5/cyfitter_cfg.c **** 			{0x9Eu, 0xC9u},
 942:Generated_Source\PSoC5/cyfitter_cfg.c **** 			{0xA0u, 0xCFu},
 943:Generated_Source\PSoC5/cyfitter_cfg.c **** 			{0xA2u, 0x30u},
 944:Generated_Source\PSoC5/cyfitter_cfg.c **** 			{0xA3u, 0x08u},
 945:Generated_Source\PSoC5/cyfitter_cfg.c **** 			{0xA4u, 0x9Eu},
 946:Generated_Source\PSoC5/cyfitter_cfg.c **** 			{0xA5u, 0xC1u},
 947:Generated_Source\PSoC5/cyfitter_cfg.c **** 			{0xA6u, 0x60u},
 948:Generated_Source\PSoC5/cyfitter_cfg.c **** 			{0xA7u, 0x22u},
 949:Generated_Source\PSoC5/cyfitter_cfg.c **** 			{0xA9u, 0x81u},
 950:Generated_Source\PSoC5/cyfitter_cfg.c **** 			{0xABu, 0x12u},
 951:Generated_Source\PSoC5/cyfitter_cfg.c **** 			{0xB3u, 0x0Fu},
 952:Generated_Source\PSoC5/cyfitter_cfg.c **** 			{0xB5u, 0xF0u},
 953:Generated_Source\PSoC5/cyfitter_cfg.c **** 			{0xB6u, 0xFFu},
 954:Generated_Source\PSoC5/cyfitter_cfg.c **** 			{0xBEu, 0x40u},
 955:Generated_Source\PSoC5/cyfitter_cfg.c **** 			{0xD2u, 0x07u},
 956:Generated_Source\PSoC5/cyfitter_cfg.c **** 			{0xD3u, 0x07u},
 957:Generated_Source\PSoC5/cyfitter_cfg.c **** 			{0xD6u, 0x14u},
 958:Generated_Source\PSoC5/cyfitter_cfg.c **** 			{0xD8u, 0x04u},
 959:Generated_Source\PSoC5/cyfitter_cfg.c **** 			{0xD9u, 0x04u},
 960:Generated_Source\PSoC5/cyfitter_cfg.c **** 			{0xDBu, 0x04u},
 961:Generated_Source\PSoC5/cyfitter_cfg.c **** 			{0xDCu, 0x90u},
 962:Generated_Source\PSoC5/cyfitter_cfg.c **** 			{0xDDu, 0x10u},
 963:Generated_Source\PSoC5/cyfitter_cfg.c **** 			{0xDFu, 0x01u},
 964:Generated_Source\PSoC5/cyfitter_cfg.c **** 			{0x00u, 0x80u},
 965:Generated_Source\PSoC5/cyfitter_cfg.c **** 			{0x02u, 0x08u},
 966:Generated_Source\PSoC5/cyfitter_cfg.c **** 			{0x05u, 0x10u},
 967:Generated_Source\PSoC5/cyfitter_cfg.c **** 			{0x07u, 0x20u},
 968:Generated_Source\PSoC5/cyfitter_cfg.c **** 			{0x08u, 0x20u},
 969:Generated_Source\PSoC5/cyfitter_cfg.c **** 			{0x0Cu, 0x04u},
 970:Generated_Source\PSoC5/cyfitter_cfg.c **** 			{0x0Du, 0x80u},
ARM GAS  C:\Users\miker\AppData\Local\Temp\ccyxJrri.s 			page 27


 971:Generated_Source\PSoC5/cyfitter_cfg.c **** 			{0x0Eu, 0x28u},
 972:Generated_Source\PSoC5/cyfitter_cfg.c **** 			{0x0Fu, 0x02u},
 973:Generated_Source\PSoC5/cyfitter_cfg.c **** 			{0x10u, 0x08u},
 974:Generated_Source\PSoC5/cyfitter_cfg.c **** 			{0x15u, 0x04u},
 975:Generated_Source\PSoC5/cyfitter_cfg.c **** 			{0x17u, 0x09u},
 976:Generated_Source\PSoC5/cyfitter_cfg.c **** 			{0x19u, 0xA5u},
 977:Generated_Source\PSoC5/cyfitter_cfg.c **** 			{0x1Fu, 0x80u},
 978:Generated_Source\PSoC5/cyfitter_cfg.c **** 			{0x22u, 0x44u},
 979:Generated_Source\PSoC5/cyfitter_cfg.c **** 			{0x24u, 0x18u},
 980:Generated_Source\PSoC5/cyfitter_cfg.c **** 			{0x25u, 0x04u},
 981:Generated_Source\PSoC5/cyfitter_cfg.c **** 			{0x27u, 0x28u},
 982:Generated_Source\PSoC5/cyfitter_cfg.c **** 			{0x29u, 0x40u},
 983:Generated_Source\PSoC5/cyfitter_cfg.c **** 			{0x2Cu, 0x04u},
 984:Generated_Source\PSoC5/cyfitter_cfg.c **** 			{0x2Du, 0x04u},
 985:Generated_Source\PSoC5/cyfitter_cfg.c **** 			{0x2Fu, 0x80u},
 986:Generated_Source\PSoC5/cyfitter_cfg.c **** 			{0x31u, 0x08u},
 987:Generated_Source\PSoC5/cyfitter_cfg.c **** 			{0x35u, 0x10u},
 988:Generated_Source\PSoC5/cyfitter_cfg.c **** 			{0x36u, 0x04u},
 989:Generated_Source\PSoC5/cyfitter_cfg.c **** 			{0x37u, 0x01u},
 990:Generated_Source\PSoC5/cyfitter_cfg.c **** 			{0x3Du, 0x08u},
 991:Generated_Source\PSoC5/cyfitter_cfg.c **** 			{0x3Fu, 0x02u},
 992:Generated_Source\PSoC5/cyfitter_cfg.c **** 			{0x59u, 0x25u},
 993:Generated_Source\PSoC5/cyfitter_cfg.c **** 			{0x5Au, 0x80u},
 994:Generated_Source\PSoC5/cyfitter_cfg.c **** 			{0x5Du, 0x80u},
 995:Generated_Source\PSoC5/cyfitter_cfg.c **** 			{0x62u, 0x02u},
 996:Generated_Source\PSoC5/cyfitter_cfg.c **** 			{0x65u, 0x02u},
 997:Generated_Source\PSoC5/cyfitter_cfg.c **** 			{0x6Du, 0x10u},
 998:Generated_Source\PSoC5/cyfitter_cfg.c **** 			{0x6Eu, 0x04u},
 999:Generated_Source\PSoC5/cyfitter_cfg.c **** 			{0x6Fu, 0x02u},
1000:Generated_Source\PSoC5/cyfitter_cfg.c **** 			{0x82u, 0x0Au},
1001:Generated_Source\PSoC5/cyfitter_cfg.c **** 			{0x85u, 0x02u},
1002:Generated_Source\PSoC5/cyfitter_cfg.c **** 			{0x87u, 0x02u},
1003:Generated_Source\PSoC5/cyfitter_cfg.c **** 			{0x89u, 0x40u},
1004:Generated_Source\PSoC5/cyfitter_cfg.c **** 			{0x8Au, 0x04u},
1005:Generated_Source\PSoC5/cyfitter_cfg.c **** 			{0x8Cu, 0x28u},
1006:Generated_Source\PSoC5/cyfitter_cfg.c **** 			{0x94u, 0x18u},
1007:Generated_Source\PSoC5/cyfitter_cfg.c **** 			{0x95u, 0x10u},
1008:Generated_Source\PSoC5/cyfitter_cfg.c **** 			{0x96u, 0x08u},
1009:Generated_Source\PSoC5/cyfitter_cfg.c **** 			{0x99u, 0x10u},
1010:Generated_Source\PSoC5/cyfitter_cfg.c **** 			{0x9Bu, 0x01u},
1011:Generated_Source\PSoC5/cyfitter_cfg.c **** 			{0x9Fu, 0x28u},
1012:Generated_Source\PSoC5/cyfitter_cfg.c **** 			{0xA0u, 0x40u},
1013:Generated_Source\PSoC5/cyfitter_cfg.c **** 			{0xA1u, 0x88u},
1014:Generated_Source\PSoC5/cyfitter_cfg.c **** 			{0xA2u, 0x14u},
1015:Generated_Source\PSoC5/cyfitter_cfg.c **** 			{0xA5u, 0x04u},
1016:Generated_Source\PSoC5/cyfitter_cfg.c **** 			{0xABu, 0x01u},
1017:Generated_Source\PSoC5/cyfitter_cfg.c **** 			{0xC0u, 0x63u},
1018:Generated_Source\PSoC5/cyfitter_cfg.c **** 			{0xC2u, 0xE2u},
1019:Generated_Source\PSoC5/cyfitter_cfg.c **** 			{0xC4u, 0x32u},
1020:Generated_Source\PSoC5/cyfitter_cfg.c **** 			{0xCAu, 0xE8u},
1021:Generated_Source\PSoC5/cyfitter_cfg.c **** 			{0xCCu, 0xE2u},
1022:Generated_Source\PSoC5/cyfitter_cfg.c **** 			{0xCEu, 0xC0u},
1023:Generated_Source\PSoC5/cyfitter_cfg.c **** 			{0xD6u, 0x1Fu},
1024:Generated_Source\PSoC5/cyfitter_cfg.c **** 			{0xD8u, 0x81u},
1025:Generated_Source\PSoC5/cyfitter_cfg.c **** 			{0xE2u, 0x04u},
1026:Generated_Source\PSoC5/cyfitter_cfg.c **** 			{0xEEu, 0x04u},
1027:Generated_Source\PSoC5/cyfitter_cfg.c **** 			{0x02u, 0x20u},
ARM GAS  C:\Users\miker\AppData\Local\Temp\ccyxJrri.s 			page 28


1028:Generated_Source\PSoC5/cyfitter_cfg.c **** 			{0x30u, 0x01u},
1029:Generated_Source\PSoC5/cyfitter_cfg.c **** 			{0x33u, 0x80u},
1030:Generated_Source\PSoC5/cyfitter_cfg.c **** 			{0x36u, 0x40u},
1031:Generated_Source\PSoC5/cyfitter_cfg.c **** 			{0x37u, 0x04u},
1032:Generated_Source\PSoC5/cyfitter_cfg.c **** 			{0x3Bu, 0x40u},
1033:Generated_Source\PSoC5/cyfitter_cfg.c **** 			{0x81u, 0x80u},
1034:Generated_Source\PSoC5/cyfitter_cfg.c **** 			{0xC0u, 0x10u},
1035:Generated_Source\PSoC5/cyfitter_cfg.c **** 			{0xCCu, 0xF0u},
1036:Generated_Source\PSoC5/cyfitter_cfg.c **** 			{0xCEu, 0x10u},
1037:Generated_Source\PSoC5/cyfitter_cfg.c **** 			{0xE2u, 0x20u},
1038:Generated_Source\PSoC5/cyfitter_cfg.c **** 			{0x32u, 0x84u},
1039:Generated_Source\PSoC5/cyfitter_cfg.c **** 			{0x35u, 0x80u},
1040:Generated_Source\PSoC5/cyfitter_cfg.c **** 			{0x58u, 0x40u},
1041:Generated_Source\PSoC5/cyfitter_cfg.c **** 			{0x5Cu, 0x02u},
1042:Generated_Source\PSoC5/cyfitter_cfg.c **** 			{0x5Fu, 0x10u},
1043:Generated_Source\PSoC5/cyfitter_cfg.c **** 			{0x63u, 0x08u},
1044:Generated_Source\PSoC5/cyfitter_cfg.c **** 			{0x67u, 0x08u},
1045:Generated_Source\PSoC5/cyfitter_cfg.c **** 			{0x97u, 0x40u},
1046:Generated_Source\PSoC5/cyfitter_cfg.c **** 			{0x99u, 0x80u},
1047:Generated_Source\PSoC5/cyfitter_cfg.c **** 			{0x9Cu, 0x01u},
1048:Generated_Source\PSoC5/cyfitter_cfg.c **** 			{0x9Fu, 0x04u},
1049:Generated_Source\PSoC5/cyfitter_cfg.c **** 			{0xA6u, 0x40u},
1050:Generated_Source\PSoC5/cyfitter_cfg.c **** 			{0xA7u, 0x80u},
1051:Generated_Source\PSoC5/cyfitter_cfg.c **** 			{0xAEu, 0x20u},
1052:Generated_Source\PSoC5/cyfitter_cfg.c **** 			{0xCCu, 0x70u},
1053:Generated_Source\PSoC5/cyfitter_cfg.c **** 			{0xD4u, 0x80u},
1054:Generated_Source\PSoC5/cyfitter_cfg.c **** 			{0xD6u, 0xA0u},
1055:Generated_Source\PSoC5/cyfitter_cfg.c **** 			{0xD8u, 0xC0u},
1056:Generated_Source\PSoC5/cyfitter_cfg.c **** 			{0xECu, 0x40u},
1057:Generated_Source\PSoC5/cyfitter_cfg.c **** 			{0x63u, 0x02u},
1058:Generated_Source\PSoC5/cyfitter_cfg.c **** 			{0x67u, 0x02u},
1059:Generated_Source\PSoC5/cyfitter_cfg.c **** 			{0x87u, 0x04u},
1060:Generated_Source\PSoC5/cyfitter_cfg.c **** 			{0x88u, 0x02u},
1061:Generated_Source\PSoC5/cyfitter_cfg.c **** 			{0x96u, 0x08u},
1062:Generated_Source\PSoC5/cyfitter_cfg.c **** 			{0x97u, 0x58u},
1063:Generated_Source\PSoC5/cyfitter_cfg.c **** 			{0x9Cu, 0x43u},
1064:Generated_Source\PSoC5/cyfitter_cfg.c **** 			{0x9Fu, 0x04u},
1065:Generated_Source\PSoC5/cyfitter_cfg.c **** 			{0xA6u, 0xC0u},
1066:Generated_Source\PSoC5/cyfitter_cfg.c **** 			{0xA7u, 0x84u},
1067:Generated_Source\PSoC5/cyfitter_cfg.c **** 			{0xD6u, 0xC0u},
1068:Generated_Source\PSoC5/cyfitter_cfg.c **** 			{0xE6u, 0x10u},
1069:Generated_Source\PSoC5/cyfitter_cfg.c **** 			{0x18u, 0x10u},
1070:Generated_Source\PSoC5/cyfitter_cfg.c **** 			{0x84u, 0x01u},
1071:Generated_Source\PSoC5/cyfitter_cfg.c **** 			{0x96u, 0x08u},
1072:Generated_Source\PSoC5/cyfitter_cfg.c **** 			{0x97u, 0x10u},
1073:Generated_Source\PSoC5/cyfitter_cfg.c **** 			{0x9Cu, 0x41u},
1074:Generated_Source\PSoC5/cyfitter_cfg.c **** 			{0x9Fu, 0x04u},
1075:Generated_Source\PSoC5/cyfitter_cfg.c **** 			{0xA6u, 0xC0u},
1076:Generated_Source\PSoC5/cyfitter_cfg.c **** 			{0xA7u, 0x80u},
1077:Generated_Source\PSoC5/cyfitter_cfg.c **** 			{0xABu, 0x01u},
1078:Generated_Source\PSoC5/cyfitter_cfg.c **** 			{0xAFu, 0x41u},
1079:Generated_Source\PSoC5/cyfitter_cfg.c **** 			{0xB7u, 0x04u},
1080:Generated_Source\PSoC5/cyfitter_cfg.c **** 			{0xC6u, 0x10u},
1081:Generated_Source\PSoC5/cyfitter_cfg.c **** 			{0xE2u, 0x40u},
1082:Generated_Source\PSoC5/cyfitter_cfg.c **** 			{0xEEu, 0x70u},
1083:Generated_Source\PSoC5/cyfitter_cfg.c **** 			{0x08u, 0x40u},
1084:Generated_Source\PSoC5/cyfitter_cfg.c **** 			{0x0Du, 0x08u},
ARM GAS  C:\Users\miker\AppData\Local\Temp\ccyxJrri.s 			page 29


1085:Generated_Source\PSoC5/cyfitter_cfg.c **** 			{0x0Eu, 0x08u},
1086:Generated_Source\PSoC5/cyfitter_cfg.c **** 			{0x61u, 0x10u},
1087:Generated_Source\PSoC5/cyfitter_cfg.c **** 			{0xC2u, 0x07u},
1088:Generated_Source\PSoC5/cyfitter_cfg.c **** 			{0xD8u, 0x02u},
1089:Generated_Source\PSoC5/cyfitter_cfg.c **** 			{0x50u, 0x04u},
1090:Generated_Source\PSoC5/cyfitter_cfg.c **** 			{0x9Du, 0x10u},
1091:Generated_Source\PSoC5/cyfitter_cfg.c **** 			{0xA1u, 0x08u},
1092:Generated_Source\PSoC5/cyfitter_cfg.c **** 			{0xB0u, 0x40u},
1093:Generated_Source\PSoC5/cyfitter_cfg.c **** 			{0xB6u, 0x04u},
1094:Generated_Source\PSoC5/cyfitter_cfg.c **** 			{0xD4u, 0x04u},
1095:Generated_Source\PSoC5/cyfitter_cfg.c **** 			{0xEAu, 0x03u},
1096:Generated_Source\PSoC5/cyfitter_cfg.c **** 			{0x56u, 0x80u},
1097:Generated_Source\PSoC5/cyfitter_cfg.c **** 			{0x8Fu, 0x40u},
1098:Generated_Source\PSoC5/cyfitter_cfg.c **** 			{0x94u, 0x08u},
1099:Generated_Source\PSoC5/cyfitter_cfg.c **** 			{0x9Du, 0x10u},
1100:Generated_Source\PSoC5/cyfitter_cfg.c **** 			{0xA1u, 0x08u},
1101:Generated_Source\PSoC5/cyfitter_cfg.c **** 			{0xD4u, 0x02u},
1102:Generated_Source\PSoC5/cyfitter_cfg.c **** 			{0xE6u, 0x02u},
1103:Generated_Source\PSoC5/cyfitter_cfg.c **** 			{0x08u, 0x08u},
1104:Generated_Source\PSoC5/cyfitter_cfg.c **** 			{0x0Au, 0x04u},
1105:Generated_Source\PSoC5/cyfitter_cfg.c **** 			{0x0Fu, 0x40u},
1106:Generated_Source\PSoC5/cyfitter_cfg.c **** 			{0x86u, 0x04u},
1107:Generated_Source\PSoC5/cyfitter_cfg.c **** 			{0x8Du, 0x10u},
1108:Generated_Source\PSoC5/cyfitter_cfg.c **** 			{0x94u, 0x08u},
1109:Generated_Source\PSoC5/cyfitter_cfg.c **** 			{0x9Du, 0x10u},
1110:Generated_Source\PSoC5/cyfitter_cfg.c **** 			{0xA7u, 0x40u},
1111:Generated_Source\PSoC5/cyfitter_cfg.c **** 			{0xAAu, 0x80u},
1112:Generated_Source\PSoC5/cyfitter_cfg.c **** 			{0xB1u, 0x08u},
1113:Generated_Source\PSoC5/cyfitter_cfg.c **** 			{0xC2u, 0x0Eu},
1114:Generated_Source\PSoC5/cyfitter_cfg.c **** 			{0xE0u, 0x02u},
1115:Generated_Source\PSoC5/cyfitter_cfg.c **** 			{0xEEu, 0x04u},
1116:Generated_Source\PSoC5/cyfitter_cfg.c **** 			{0x88u, 0x40u},
1117:Generated_Source\PSoC5/cyfitter_cfg.c **** 			{0x96u, 0x08u},
1118:Generated_Source\PSoC5/cyfitter_cfg.c **** 			{0x97u, 0x10u},
1119:Generated_Source\PSoC5/cyfitter_cfg.c **** 			{0x9Cu, 0x40u},
1120:Generated_Source\PSoC5/cyfitter_cfg.c **** 			{0x9Fu, 0x04u},
1121:Generated_Source\PSoC5/cyfitter_cfg.c **** 			{0xA6u, 0x80u},
1122:Generated_Source\PSoC5/cyfitter_cfg.c **** 			{0xAEu, 0x40u},
1123:Generated_Source\PSoC5/cyfitter_cfg.c **** 			{0xAFu, 0x80u},
1124:Generated_Source\PSoC5/cyfitter_cfg.c **** 			{0xB4u, 0x10u},
1125:Generated_Source\PSoC5/cyfitter_cfg.c **** 			{0xEEu, 0x50u},
1126:Generated_Source\PSoC5/cyfitter_cfg.c **** 			{0x22u, 0x80u},
1127:Generated_Source\PSoC5/cyfitter_cfg.c **** 			{0x83u, 0x04u},
1128:Generated_Source\PSoC5/cyfitter_cfg.c **** 			{0x86u, 0x04u},
1129:Generated_Source\PSoC5/cyfitter_cfg.c **** 			{0x87u, 0x10u},
1130:Generated_Source\PSoC5/cyfitter_cfg.c **** 			{0x96u, 0x08u},
1131:Generated_Source\PSoC5/cyfitter_cfg.c **** 			{0x97u, 0x10u},
1132:Generated_Source\PSoC5/cyfitter_cfg.c **** 			{0x9Fu, 0x04u},
1133:Generated_Source\PSoC5/cyfitter_cfg.c **** 			{0xA6u, 0x80u},
1134:Generated_Source\PSoC5/cyfitter_cfg.c **** 			{0xC8u, 0x10u},
1135:Generated_Source\PSoC5/cyfitter_cfg.c **** 			{0xE2u, 0x90u},
1136:Generated_Source\PSoC5/cyfitter_cfg.c **** 			{0xE6u, 0x10u},
1137:Generated_Source\PSoC5/cyfitter_cfg.c **** 			{0x08u, 0x20u},
1138:Generated_Source\PSoC5/cyfitter_cfg.c **** 			{0x0Cu, 0x80u},
1139:Generated_Source\PSoC5/cyfitter_cfg.c **** 			{0x0Fu, 0x80u},
1140:Generated_Source\PSoC5/cyfitter_cfg.c **** 			{0x80u, 0x80u},
1141:Generated_Source\PSoC5/cyfitter_cfg.c **** 			{0xA7u, 0x40u},
ARM GAS  C:\Users\miker\AppData\Local\Temp\ccyxJrri.s 			page 30


1142:Generated_Source\PSoC5/cyfitter_cfg.c **** 			{0xACu, 0x08u},
1143:Generated_Source\PSoC5/cyfitter_cfg.c **** 			{0xAFu, 0x40u},
1144:Generated_Source\PSoC5/cyfitter_cfg.c **** 			{0xB4u, 0x04u},
1145:Generated_Source\PSoC5/cyfitter_cfg.c **** 			{0xC2u, 0x07u},
1146:Generated_Source\PSoC5/cyfitter_cfg.c **** 			{0xE8u, 0x08u},
1147:Generated_Source\PSoC5/cyfitter_cfg.c **** 			{0x00u, 0x40u},
1148:Generated_Source\PSoC5/cyfitter_cfg.c **** 			{0x03u, 0x20u},
1149:Generated_Source\PSoC5/cyfitter_cfg.c **** 			{0x06u, 0x20u},
1150:Generated_Source\PSoC5/cyfitter_cfg.c **** 			{0x07u, 0x04u},
1151:Generated_Source\PSoC5/cyfitter_cfg.c **** 			{0x62u, 0x02u},
1152:Generated_Source\PSoC5/cyfitter_cfg.c **** 			{0x82u, 0x20u},
1153:Generated_Source\PSoC5/cyfitter_cfg.c **** 			{0x8Au, 0x02u},
1154:Generated_Source\PSoC5/cyfitter_cfg.c **** 			{0x8Bu, 0x20u},
1155:Generated_Source\PSoC5/cyfitter_cfg.c **** 			{0x8Cu, 0x40u},
1156:Generated_Source\PSoC5/cyfitter_cfg.c **** 			{0x8Fu, 0x04u},
1157:Generated_Source\PSoC5/cyfitter_cfg.c **** 			{0xA8u, 0x20u},
1158:Generated_Source\PSoC5/cyfitter_cfg.c **** 			{0xC0u, 0x0Fu},
1159:Generated_Source\PSoC5/cyfitter_cfg.c **** 			{0xD8u, 0x02u},
1160:Generated_Source\PSoC5/cyfitter_cfg.c **** 			{0xE2u, 0x03u},
1161:Generated_Source\PSoC5/cyfitter_cfg.c **** 			{0xE4u, 0x04u},
1162:Generated_Source\PSoC5/cyfitter_cfg.c **** 			{0xE6u, 0x08u},
1163:Generated_Source\PSoC5/cyfitter_cfg.c **** 			{0x00u, 0x1Cu},
1164:Generated_Source\PSoC5/cyfitter_cfg.c **** 			{0x01u, 0x01u},
1165:Generated_Source\PSoC5/cyfitter_cfg.c **** 			{0x0Cu, 0x14u},
1166:Generated_Source\PSoC5/cyfitter_cfg.c **** 			{0x0Du, 0x01u},
1167:Generated_Source\PSoC5/cyfitter_cfg.c **** 			{0x0Eu, 0x08u},
1168:Generated_Source\PSoC5/cyfitter_cfg.c **** 			{0x0Fu, 0x01u},
1169:Generated_Source\PSoC5/cyfitter_cfg.c **** 			{0x10u, 0x02u},
1170:Generated_Source\PSoC5/cyfitter_cfg.c **** 			{0x11u, 0x01u},
1171:Generated_Source\PSoC5/cyfitter_cfg.c **** 			{0x1Cu, 0x02u},
1172:Generated_Source\PSoC5/cyfitter_cfg.c **** 			{0x1Du, 0x01u},
1173:Generated_Source\PSoC5/cyfitter_cfg.c **** 			{0x00u, 0xEAu},
1174:Generated_Source\PSoC5/cyfitter_cfg.c **** 			{0x01u, 0xFFu},
1175:Generated_Source\PSoC5/cyfitter_cfg.c **** 		};
1176:Generated_Source\PSoC5/cyfitter_cfg.c **** 
1177:Generated_Source\PSoC5/cyfitter_cfg.c **** 
1178:Generated_Source\PSoC5/cyfitter_cfg.c **** 
1179:Generated_Source\PSoC5/cyfitter_cfg.c **** 		CYPACKED typedef struct {
1180:Generated_Source\PSoC5/cyfitter_cfg.c **** 			void CYFAR *address;
1181:Generated_Source\PSoC5/cyfitter_cfg.c **** 			uint16 size;
1182:Generated_Source\PSoC5/cyfitter_cfg.c **** 		} CYPACKED_ATTR cfg_memset_t;
1183:Generated_Source\PSoC5/cyfitter_cfg.c **** 
1184:Generated_Source\PSoC5/cyfitter_cfg.c **** 		static const cfg_memset_t CYCODE cfg_memset_list [] = {
1185:Generated_Source\PSoC5/cyfitter_cfg.c **** 			/* address, size */
1186:Generated_Source\PSoC5/cyfitter_cfg.c **** 			{(void CYFAR *)(CYREG_TMR0_CFG0), 24u},
1187:Generated_Source\PSoC5/cyfitter_cfg.c **** 			{(void CYFAR *)(CYREG_PRT3_DR), 16u},
1188:Generated_Source\PSoC5/cyfitter_cfg.c **** 			{(void CYFAR *)(CYREG_PRT12_DR), 16u},
1189:Generated_Source\PSoC5/cyfitter_cfg.c **** 			{(void CYFAR *)(CYDEV_UCFG_B0_P0_U0_BASE), 4096u},
1190:Generated_Source\PSoC5/cyfitter_cfg.c **** 			{(void CYFAR *)(CYDEV_UCFG_B1_P2_U0_BASE), 2048u},
1191:Generated_Source\PSoC5/cyfitter_cfg.c **** 			{(void CYFAR *)(CYDEV_UCFG_DSI0_BASE), 2560u},
1192:Generated_Source\PSoC5/cyfitter_cfg.c **** 			{(void CYFAR *)(CYDEV_UCFG_DSI12_BASE), 512u},
1193:Generated_Source\PSoC5/cyfitter_cfg.c **** 			{(void CYFAR *)(CYREG_BCTL0_MDCLK_EN), 32u},
1194:Generated_Source\PSoC5/cyfitter_cfg.c **** 		};
1195:Generated_Source\PSoC5/cyfitter_cfg.c **** 
1196:Generated_Source\PSoC5/cyfitter_cfg.c **** 		uint8 CYDATA i;
1197:Generated_Source\PSoC5/cyfitter_cfg.c **** 
1198:Generated_Source\PSoC5/cyfitter_cfg.c **** 		/* Zero out critical memory blocks before beginning configuration */
ARM GAS  C:\Users\miker\AppData\Local\Temp\ccyxJrri.s 			page 31


1199:Generated_Source\PSoC5/cyfitter_cfg.c **** 		for (i = 0u; i < (sizeof(cfg_memset_list)/sizeof(cfg_memset_list[0])); i++)
 468              		.loc 1 1199 0
 469 0018 0024     		movs	r4, #0
 470 001a 0AE0     		b	.L30
 471              	.LVL33:
 472              	.L31:
 473              	.LBB4:
1200:Generated_Source\PSoC5/cyfitter_cfg.c **** 		{
1201:Generated_Source\PSoC5/cyfitter_cfg.c **** 			const cfg_memset_t CYCODE * CYDATA ms = &cfg_memset_list[i];
1202:Generated_Source\PSoC5/cyfitter_cfg.c **** 			CYMEMZERO(ms->address, (size_t)(uint32)(ms->size));
 474              		.loc 1 1202 0 discriminator 3
 475 001c 3749     		ldr	r1, .L33+8
 476 001e 6300     		lsls	r3, r4, #1
 477 0020 1A19     		adds	r2, r3, r4
 478 0022 5200     		lsls	r2, r2, #1
 479 0024 0A44     		add	r2, r2, r1
 480 0026 5068     		ldr	r0, [r2, #4]	@ unaligned
 481 0028 1189     		ldrh	r1, [r2, #8]
 482 002a FFF7FEFF 		bl	CYMEMZERO
 483              	.LVL34:
 484              	.LBE4:
1199:Generated_Source\PSoC5/cyfitter_cfg.c **** 		{
 485              		.loc 1 1199 0 discriminator 3
 486 002e 0134     		adds	r4, r4, #1
 487              	.LVL35:
 488 0030 E4B2     		uxtb	r4, r4
 489              	.LVL36:
 490              	.L30:
1199:Generated_Source\PSoC5/cyfitter_cfg.c **** 		{
 491              		.loc 1 1199 0 is_stmt 0 discriminator 1
 492 0032 072C     		cmp	r4, #7
 493 0034 F2D9     		bls	.L31
1203:Generated_Source\PSoC5/cyfitter_cfg.c **** 		}
1204:Generated_Source\PSoC5/cyfitter_cfg.c **** 
1205:Generated_Source\PSoC5/cyfitter_cfg.c **** 		cfg_write_bytes32(cy_cfg_addr_table, cy_cfg_data_table);
 494              		.loc 1 1205 0 is_stmt 1
 495 0036 314C     		ldr	r4, .L33+8
 496              	.LVL37:
 497 0038 04F13400 		add	r0, r4, #52
 498 003c 04F1C401 		add	r1, r4, #196
 499 0040 FFF7FEFF 		bl	cfg_write_bytes32
 500              	.LVL38:
1206:Generated_Source\PSoC5/cyfitter_cfg.c **** 
1207:Generated_Source\PSoC5/cyfitter_cfg.c **** 		/* Enable digital routing */
1208:Generated_Source\PSoC5/cyfitter_cfg.c **** 		CY_SET_XTND_REG8((void CYFAR *)CYREG_BCTL0_BANK_CTL, CY_GET_XTND_REG8((void CYFAR *)CYREG_BCTL0_B
 501              		.loc 1 1208 0
 502 0044 2E4A     		ldr	r2, .L33+12
 503 0046 1378     		ldrb	r3, [r2]	@ zero_extendqisi2
 504 0048 43F00203 		orr	r3, r3, #2
 505 004c 1370     		strb	r3, [r2]
1209:Generated_Source\PSoC5/cyfitter_cfg.c **** 		CY_SET_XTND_REG8((void CYFAR *)CYREG_BCTL1_BANK_CTL, CY_GET_XTND_REG8((void CYFAR *)CYREG_BCTL1_B
 506              		.loc 1 1209 0
 507 004e 1032     		adds	r2, r2, #16
 508 0050 1378     		ldrb	r3, [r2]	@ zero_extendqisi2
 509 0052 43F00203 		orr	r3, r3, #2
 510 0056 1370     		strb	r3, [r2]
1210:Generated_Source\PSoC5/cyfitter_cfg.c **** 
ARM GAS  C:\Users\miker\AppData\Local\Temp\ccyxJrri.s 			page 32


1211:Generated_Source\PSoC5/cyfitter_cfg.c **** 		/* Enable UDB array */
1212:Generated_Source\PSoC5/cyfitter_cfg.c **** 		CY_SET_XTND_REG8((void CYFAR *)CYREG_PM_ACT_CFG0, CY_GET_XTND_REG8((void CYFAR *)CYREG_PM_ACT_CFG
 511              		.loc 1 1212 0
 512 0058 2A4D     		ldr	r5, .L33+16
 513 005a 2B78     		ldrb	r3, [r5]	@ zero_extendqisi2
 514 005c 43F04003 		orr	r3, r3, #64
 515 0060 2B70     		strb	r3, [r5]
1213:Generated_Source\PSoC5/cyfitter_cfg.c **** 		CY_SET_XTND_REG8((void CYFAR *)CYREG_PM_AVAIL_CR2, CY_GET_XTND_REG8((void CYFAR *)CYREG_PM_AVAIL_
 516              		.loc 1 1213 0
 517 0062 A2F58632 		sub	r2, r2, #68608
 518 0066 513A     		subs	r2, r2, #81
 519 0068 1378     		ldrb	r3, [r2]	@ zero_extendqisi2
 520 006a 43F01003 		orr	r3, r3, #16
 521 006e 1370     		strb	r3, [r2]
 522              	.LBE3:
1214:Generated_Source\PSoC5/cyfitter_cfg.c **** 	}
1215:Generated_Source\PSoC5/cyfitter_cfg.c **** 
1216:Generated_Source\PSoC5/cyfitter_cfg.c **** 
1217:Generated_Source\PSoC5/cyfitter_cfg.c **** 	/* Perform second pass device configuration. These items must be configured in specific order afte
1218:Generated_Source\PSoC5/cyfitter_cfg.c **** 	CYCONFIGCPYCODE((void CYFAR *)(CYREG_PRT0_DM0), (const void CYCODE *)(BS_IOPINS0_0_VAL), 8u);
 523              		.loc 1 1218 0
 524 0070 2548     		ldr	r0, .L33+20
 525 0072 04F5D561 		add	r1, r4, #1704
 526 0076 0822     		movs	r2, #8
 527 0078 FFF7FEFF 		bl	CYCONFIGCPYCODE
 528              	.LVL39:
1219:Generated_Source\PSoC5/cyfitter_cfg.c **** 	CYCONFIGCPYCODE((void CYFAR *)(CYREG_PRT15_DR), (const void CYCODE *)(BS_IOPINS0_8_VAL), 10u);
 529              		.loc 1 1219 0
 530 007c 2348     		ldr	r0, .L33+24
 531 007e 04F5D661 		add	r1, r4, #1712
 532 0082 0A22     		movs	r2, #10
 533 0084 FFF7FEFF 		bl	CYCONFIGCPYCODE
 534              	.LVL40:
1220:Generated_Source\PSoC5/cyfitter_cfg.c **** 	CYCONFIGCPYCODE((void CYFAR *)(CYREG_PRT1_DR), (const void CYCODE *)(BS_IOPINS0_1_VAL), 10u);
 535              		.loc 1 1220 0
 536 0088 2148     		ldr	r0, .L33+28
 537 008a 04F2BC61 		addw	r1, r4, #1724
 538 008e 0A22     		movs	r2, #10
 539 0090 FFF7FEFF 		bl	CYCONFIGCPYCODE
 540              	.LVL41:
1221:Generated_Source\PSoC5/cyfitter_cfg.c **** 	CYCONFIGCPYCODE((void CYFAR *)(CYREG_PRT2_DM0), (const void CYCODE *)(BS_IOPINS0_2_VAL), 8u);
 541              		.loc 1 1221 0
 542 0094 1F48     		ldr	r0, .L33+32
 543 0096 04F5D961 		add	r1, r4, #1736
 544 009a 0822     		movs	r2, #8
 545 009c FFF7FEFF 		bl	CYCONFIGCPYCODE
 546              	.LVL42:
1222:Generated_Source\PSoC5/cyfitter_cfg.c **** 	CYCONFIGCPYCODE((void CYFAR *)(CYREG_PRT4_DR), (const void CYCODE *)(BS_IOPINS0_4_VAL), 10u);
 547              		.loc 1 1222 0
 548 00a0 1D48     		ldr	r0, .L33+36
 549 00a2 04F5DA61 		add	r1, r4, #1744
 550 00a6 0A22     		movs	r2, #10
 551 00a8 FFF7FEFF 		bl	CYCONFIGCPYCODE
 552              	.LVL43:
1223:Generated_Source\PSoC5/cyfitter_cfg.c **** 	CYCONFIGCPYCODE((void CYFAR *)(CYREG_PRT5_DR), (const void CYCODE *)(BS_IOPINS0_5_VAL), 10u);
 553              		.loc 1 1223 0
 554 00ac 1B48     		ldr	r0, .L33+40
ARM GAS  C:\Users\miker\AppData\Local\Temp\ccyxJrri.s 			page 33


 555 00ae 04F2DC61 		addw	r1, r4, #1756
 556 00b2 0A22     		movs	r2, #10
 557 00b4 FFF7FEFF 		bl	CYCONFIGCPYCODE
 558              	.LVL44:
1224:Generated_Source\PSoC5/cyfitter_cfg.c **** 	CYCONFIGCPYCODE((void CYFAR *)(CYREG_PRT6_DR), (const void CYCODE *)(BS_IOPINS0_6_VAL), 10u);
 559              		.loc 1 1224 0
 560 00b8 1948     		ldr	r0, .L33+44
 561 00ba 04F5DD61 		add	r1, r4, #1768
 562 00be 0A22     		movs	r2, #10
 563 00c0 FFF7FEFF 		bl	CYCONFIGCPYCODE
 564              	.LVL45:
1225:Generated_Source\PSoC5/cyfitter_cfg.c **** 	CY_SET_XTND_REG8((void CYFAR *)(CYREG_B0_P4_U1_CFG27), 0x44u);
 565              		.loc 1 1225 0
 566 00c4 4422     		movs	r2, #68
 567 00c6 174B     		ldr	r3, .L33+48
 568 00c8 1A70     		strb	r2, [r3]
1226:Generated_Source\PSoC5/cyfitter_cfg.c **** 	/* Switch Boost to the precision bandgap reference from its internal reference */
1227:Generated_Source\PSoC5/cyfitter_cfg.c **** 	CY_SET_REG8((void CYXDATA *)CYREG_BOOST_CR2, (CY_GET_REG8((void CYXDATA *)CYREG_BOOST_CR2) | 0x08u
 569              		.loc 1 1227 0
 570 00ca 174A     		ldr	r2, .L33+52
 571 00cc 1378     		ldrb	r3, [r2]	@ zero_extendqisi2
 572 00ce 43F00803 		orr	r3, r3, #8
 573 00d2 1370     		strb	r3, [r2]
1228:Generated_Source\PSoC5/cyfitter_cfg.c **** 
1229:Generated_Source\PSoC5/cyfitter_cfg.c **** 	/* Set Flash Cycles based on max possible frequency in case a glitch occurs during ClockSetup(). *
1230:Generated_Source\PSoC5/cyfitter_cfg.c **** 	CY_SET_XTND_REG8((void CYFAR *)(CYREG_CACHE_CC_CTL), (((CYDEV_INSTRUCT_CACHE_ENABLED) != 0) ? 0x01
 574              		.loc 1 1230 0
 575 00d4 154C     		ldr	r4, .L33+56
 576 00d6 0023     		movs	r3, #0
 577 00d8 2370     		strb	r3, [r4]
1231:Generated_Source\PSoC5/cyfitter_cfg.c **** 	/* Setup clocks based on selections from Clock DWR */
1232:Generated_Source\PSoC5/cyfitter_cfg.c **** 	ClockSetup();
 578              		.loc 1 1232 0
 579 00da FFF7FEFF 		bl	ClockSetup
 580              	.LVL46:
1233:Generated_Source\PSoC5/cyfitter_cfg.c **** 	/* Set Flash Cycles based on newly configured 24.00MHz Bus Clock. */
1234:Generated_Source\PSoC5/cyfitter_cfg.c **** 	CY_SET_XTND_REG8((void CYFAR *)(CYREG_CACHE_CC_CTL), (((CYDEV_INSTRUCT_CACHE_ENABLED) != 0) ? 0x81
 581              		.loc 1 1234 0
 582 00de 8023     		movs	r3, #128
 583 00e0 2370     		strb	r3, [r4]
1235:Generated_Source\PSoC5/cyfitter_cfg.c **** 
1236:Generated_Source\PSoC5/cyfitter_cfg.c **** 	/* Perform basic analog initialization to defaults */
1237:Generated_Source\PSoC5/cyfitter_cfg.c **** 	AnalogSetDefault();
 584              		.loc 1 1237 0
 585 00e2 FFF7FEFF 		bl	AnalogSetDefault
 586              	.LVL47:
1238:Generated_Source\PSoC5/cyfitter_cfg.c **** 
1239:Generated_Source\PSoC5/cyfitter_cfg.c **** 	/* Configure alternate active mode */
1240:Generated_Source\PSoC5/cyfitter_cfg.c **** 	CYCONFIGCPY((void CYFAR *)CYDEV_PM_STBY_BASE, (const void CYFAR *)CYDEV_PM_ACT_BASE, 14u);
 587              		.loc 1 1240 0
 588 00e6 1248     		ldr	r0, .L33+60
 589 00e8 2946     		mov	r1, r5
 590 00ea 0E22     		movs	r2, #14
 591 00ec FFF7FEFF 		bl	CYCONFIGCPY
 592              	.LVL48:
 593 00f0 38BD     		pop	{r3, r4, r5, pc}
 594              	.L34:
ARM GAS  C:\Users\miker\AppData\Local\Temp\ccyxJrri.s 			page 34


 595 00f2 00BF     		.align	2
 596              	.L33:
 597 00f4 E8460040 		.word	1073759976
 598 00f8 08000840 		.word	1074266120
 599 00fc 00000000 		.word	.LANCHOR0
 600 0100 03500140 		.word	1073827843
 601 0104 A0430040 		.word	1073759136
 602 0108 02510040 		.word	1073762562
 603 010c F0510040 		.word	1073762800
 604 0110 10510040 		.word	1073762576
 605 0114 22510040 		.word	1073762594
 606 0118 40510040 		.word	1073762624
 607 011c 50510040 		.word	1073762640
 608 0120 60510040 		.word	1073762656
 609 0124 DB080140 		.word	1073809627
 610 0128 22430040 		.word	1073759010
 611 012c 00480040 		.word	1073760256
 612 0130 B0430040 		.word	1073759152
 613              		.cfi_endproc
 614              	.LFE8:
 615              		.size	cyfitter_cfg, .-cyfitter_cfg
 616              		.section	.rodata
 617              		.align	2
 618              		.set	.LANCHOR0,. + 0
 619              		.type	BS_CYDEV_CLKDIST_ACFG0_CFG0_VAL.4898, %object
 620              		.size	BS_CYDEV_CLKDIST_ACFG0_CFG0_VAL.4898, 4
 621              	BS_CYDEV_CLKDIST_ACFG0_CFG0_VAL.4898:
 622 0000 01       		.byte	1
 623 0001 00       		.byte	0
 624 0002 11       		.byte	17
 625 0003 01       		.byte	1
 626              		.type	cfg_memset_list.4930, %object
 627              		.size	cfg_memset_list.4930, 48
 628              	cfg_memset_list.4930:
 629 0004 004F0040 		.word	1073762048
 630 0008 1800     		.short	24
 631 000a 30510040 		.4byte	1073762608
 632 000e 1000     		.short	16
 633 0010 C0510040 		.word	1073762752
 634 0014 1000     		.short	16
 635 0016 00000140 		.4byte	1073807360
 636 001a 0010     		.short	4096
 637 001c 00140140 		.word	1073812480
 638 0020 0008     		.short	2048
 639 0022 00400140 		.4byte	1073823744
 640 0026 000A     		.short	2560
 641 0028 004C0140 		.word	1073826816
 642 002c 0002     		.short	512
 643 002e 00500140 		.4byte	1073827840
 644 0032 2000     		.short	32
 645              		.type	cy_cfg_addr_table.4924, %object
 646              		.size	cy_cfg_addr_table.4924, 144
 647              	cy_cfg_addr_table.4924:
 648 0034 01450040 		.word	1073759489
 649 0038 034F0040 		.word	1073762051
 650 003c 06520040 		.word	1073762822
 651 0040 04640040 		.word	1073767428
ARM GAS  C:\Users\miker\AppData\Local\Temp\ccyxJrri.s 			page 35


 652 0044 02650040 		.word	1073767682
 653 0048 01010140 		.word	1073807617
 654 004c 01030140 		.word	1073808129
 655 0050 02050140 		.word	1073808642
 656 0054 03070140 		.word	1073809155
 657 0058 40080140 		.word	1073809472
 658 005c 44090140 		.word	1073809732
 659 0060 430A0140 		.word	1073809987
 660 0064 340B0140 		.word	1073810228
 661 0068 050D0140 		.word	1073810693
 662 006c 1A0E0140 		.word	1073810970
 663 0070 180F0140 		.word	1073811224
 664 0074 02150140 		.word	1073812738
 665 0078 03170140 		.word	1073813251
 666 007c 5D180140 		.word	1073813597
 667 0080 39190140 		.word	1073813817
 668 0084 3A1A0140 		.word	1073814074
 669 0088 3F1B0140 		.word	1073814335
 670 008c 0B400140 		.word	1073823755
 671 0090 13410140 		.word	1073824019
 672 0094 0C420140 		.word	1073824268
 673 0098 0E430140 		.word	1073824526
 674 009c 06440140 		.word	1073824774
 675 00a0 07450140 		.word	1073825031
 676 00a4 07460140 		.word	1073825287
 677 00a8 0D470140 		.word	1073825549
 678 00ac 0A480140 		.word	1073825802
 679 00b0 0B490140 		.word	1073826059
 680 00b4 0A4C0140 		.word	1073826826
 681 00b8 104D0140 		.word	1073827088
 682 00bc 0A500140 		.word	1073827850
 683 00c0 02510140 		.word	1073828098
 684              		.type	cy_cfg_data_table.4925, %object
 685              		.size	cy_cfg_data_table.4925, 1506
 686              	cy_cfg_data_table.4925:
 687 00c4 7E       		.byte	126
 688 00c5 02       		.byte	2
 689 00c6 0A       		.byte	10
 690 00c7 4B       		.byte	75
 691 00c8 0D       		.byte	13
 692 00c9 80       		.byte	-128
 693 00ca 16       		.byte	22
 694 00cb 4B       		.byte	75
 695 00cc 00       		.byte	0
 696 00cd 61       		.byte	97
 697 00ce 01       		.byte	1
 698 00cf 33       		.byte	51
 699 00d0 29       		.byte	41
 700 00d1 40       		.byte	64
 701 00d2 31       		.byte	49
 702 00d3 10       		.byte	16
 703 00d4 78       		.byte	120
 704 00d5 20       		.byte	32
 705 00d6 7C       		.byte	124
 706 00d7 40       		.byte	64
 707 00d8 89       		.byte	-119
 708 00d9 6F       		.byte	111
ARM GAS  C:\Users\miker\AppData\Local\Temp\ccyxJrri.s 			page 36


 709 00da 8A       		.byte	-118
 710 00db 0D       		.byte	13
 711 00dc 8B       		.byte	-117
 712 00dd 0F       		.byte	15
 713 00de 8E       		.byte	-114
 714 00df 07       		.byte	7
 715 00e0 8A       		.byte	-118
 716 00e1 0F       		.byte	15
 717 00e2 8B       		.byte	-117
 718 00e3 01       		.byte	1
 719 00e4 E2       		.byte	-30
 720 00e5 04       		.byte	4
 721 00e6 EC       		.byte	-20
 722 00e7 02       		.byte	2
 723 00e8 E2       		.byte	-30
 724 00e9 20       		.byte	32
 725 00ea E6       		.byte	-26
 726 00eb 08       		.byte	8
 727 00ec E2       		.byte	-30
 728 00ed 02       		.byte	2
 729 00ee EA       		.byte	-22
 730 00ef 40       		.byte	64
 731 00f0 EE       		.byte	-18
 732 00f1 0E       		.byte	14
 733 00f2 00       		.byte	0
 734 00f3 40       		.byte	64
 735 00f4 01       		.byte	1
 736 00f5 04       		.byte	4
 737 00f6 04       		.byte	4
 738 00f7 10       		.byte	16
 739 00f8 06       		.byte	6
 740 00f9 20       		.byte	32
 741 00fa 07       		.byte	7
 742 00fb 04       		.byte	4
 743 00fc 08       		.byte	8
 744 00fd 0F       		.byte	15
 745 00fe 0C       		.byte	12
 746 00ff 05       		.byte	5
 747 0100 0D       		.byte	13
 748 0101 02       		.byte	2
 749 0102 0E       		.byte	14
 750 0103 0A       		.byte	10
 751 0104 0F       		.byte	15
 752 0105 01       		.byte	1
 753 0106 10       		.byte	16
 754 0107 10       		.byte	16
 755 0108 12       		.byte	18
 756 0109 20       		.byte	32
 757 010a 14       		.byte	20
 758 010b 23       		.byte	35
 759 010c 16       		.byte	22
 760 010d 1C       		.byte	28
 761 010e 18       		.byte	24
 762 010f 07       		.byte	7
 763 0110 19       		.byte	25
 764 0111 01       		.byte	1
 765 0112 1B       		.byte	27
ARM GAS  C:\Users\miker\AppData\Local\Temp\ccyxJrri.s 			page 37


 766 0113 02       		.byte	2
 767 0114 1C       		.byte	28
 768 0115 40       		.byte	64
 769 0116 20       		.byte	32
 770 0117 0C       		.byte	12
 771 0118 21       		.byte	33
 772 0119 01       		.byte	1
 773 011a 22       		.byte	34
 774 011b 03       		.byte	3
 775 011c 23       		.byte	35
 776 011d 02       		.byte	2
 777 011e 24       		.byte	36
 778 011f 0A       		.byte	10
 779 0120 25       		.byte	37
 780 0121 01       		.byte	1
 781 0122 26       		.byte	38
 782 0123 05       		.byte	5
 783 0124 27       		.byte	39
 784 0125 02       		.byte	2
 785 0126 2A       		.byte	42
 786 0127 80       		.byte	-128
 787 0128 2C       		.byte	44
 788 0129 10       		.byte	16
 789 012a 2E       		.byte	46
 790 012b 20       		.byte	32
 791 012c 2F       		.byte	47
 792 012d 04       		.byte	4
 793 012e 30       		.byte	48
 794 012f 40       		.byte	64
 795 0130 31       		.byte	49
 796 0131 04       		.byte	4
 797 0132 32       		.byte	50
 798 0133 30       		.byte	48
 799 0134 34       		.byte	52
 800 0135 0F       		.byte	15
 801 0136 36       		.byte	54
 802 0137 80       		.byte	-128
 803 0138 37       		.byte	55
 804 0139 03       		.byte	3
 805 013a 38       		.byte	56
 806 013b 02       		.byte	2
 807 013c 3A       		.byte	58
 808 013d 08       		.byte	8
 809 013e 3B       		.byte	59
 810 013f 80       		.byte	-128
 811 0140 3F       		.byte	63
 812 0141 01       		.byte	1
 813 0142 58       		.byte	88
 814 0143 04       		.byte	4
 815 0144 59       		.byte	89
 816 0145 04       		.byte	4
 817 0146 5C       		.byte	92
 818 0147 99       		.byte	-103
 819 0148 5F       		.byte	95
 820 0149 01       		.byte	1
 821 014a 88       		.byte	-120
 822 014b 02       		.byte	2
ARM GAS  C:\Users\miker\AppData\Local\Temp\ccyxJrri.s 			page 38


 823 014c 90       		.byte	-112
 824 014d 01       		.byte	1
 825 014e 96       		.byte	-106
 826 014f 04       		.byte	4
 827 0150 98       		.byte	-104
 828 0151 04       		.byte	4
 829 0152 9E       		.byte	-98
 830 0153 0A       		.byte	10
 831 0154 9F       		.byte	-97
 832 0155 01       		.byte	1
 833 0156 A2       		.byte	-94
 834 0157 01       		.byte	1
 835 0158 B0       		.byte	-80
 836 0159 02       		.byte	2
 837 015a B2       		.byte	-78
 838 015b 08       		.byte	8
 839 015c B4       		.byte	-76
 840 015d 04       		.byte	4
 841 015e B6       		.byte	-74
 842 015f 01       		.byte	1
 843 0160 B7       		.byte	-73
 844 0161 01       		.byte	1
 845 0162 BE       		.byte	-66
 846 0163 51       		.byte	81
 847 0164 D4       		.byte	-44
 848 0165 0F       		.byte	15
 849 0166 D8       		.byte	-40
 850 0167 04       		.byte	4
 851 0168 D9       		.byte	-39
 852 0169 04       		.byte	4
 853 016a DB       		.byte	-37
 854 016b 04       		.byte	4
 855 016c DC       		.byte	-36
 856 016d 99       		.byte	-103
 857 016e DD       		.byte	-35
 858 016f 90       		.byte	-112
 859 0170 DF       		.byte	-33
 860 0171 05       		.byte	5
 861 0172 00       		.byte	0
 862 0173 10       		.byte	16
 863 0174 05       		.byte	5
 864 0175 10       		.byte	16
 865 0176 06       		.byte	6
 866 0177 20       		.byte	32
 867 0178 07       		.byte	7
 868 0179 82       		.byte	-126
 869 017a 09       		.byte	9
 870 017b 08       		.byte	8
 871 017c 0A       		.byte	10
 872 017d 88       		.byte	-120
 873 017e 0B       		.byte	11
 874 017f 01       		.byte	1
 875 0180 0E       		.byte	14
 876 0181 A8       		.byte	-88
 877 0182 0F       		.byte	15
 878 0183 01       		.byte	1
 879 0184 10       		.byte	16
ARM GAS  C:\Users\miker\AppData\Local\Temp\ccyxJrri.s 			page 39


 880 0185 80       		.byte	-128
 881 0186 16       		.byte	22
 882 0187 08       		.byte	8
 883 0188 17       		.byte	23
 884 0189 49       		.byte	73
 885 018a 18       		.byte	24
 886 018b 10       		.byte	16
 887 018c 19       		.byte	25
 888 018d 41       		.byte	65
 889 018e 1A       		.byte	26
 890 018f 04       		.byte	4
 891 0190 1C       		.byte	28
 892 0191 08       		.byte	8
 893 0192 1D       		.byte	29
 894 0193 10       		.byte	16
 895 0194 1E       		.byte	30
 896 0195 60       		.byte	96
 897 0196 1F       		.byte	31
 898 0197 40       		.byte	64
 899 0198 20       		.byte	32
 900 0199 01       		.byte	1
 901 019a 22       		.byte	34
 902 019b 40       		.byte	64
 903 019c 24       		.byte	36
 904 019d 40       		.byte	64
 905 019e 25       		.byte	37
 906 019f C0       		.byte	-64
 907 01a0 27       		.byte	39
 908 01a1 02       		.byte	2
 909 01a2 2E       		.byte	46
 910 01a3 48       		.byte	72
 911 01a4 2F       		.byte	47
 912 01a5 40       		.byte	64
 913 01a6 30       		.byte	48
 914 01a7 80       		.byte	-128
 915 01a8 37       		.byte	55
 916 01a9 10       		.byte	16
 917 01aa 3C       		.byte	60
 918 01ab 01       		.byte	1
 919 01ac 3D       		.byte	61
 920 01ad 88       		.byte	-120
 921 01ae 59       		.byte	89
 922 01af 41       		.byte	65
 923 01b0 5A       		.byte	90
 924 01b1 04       		.byte	4
 925 01b2 5B       		.byte	91
 926 01b3 20       		.byte	32
 927 01b4 61       		.byte	97
 928 01b5 04       		.byte	4
 929 01b6 62       		.byte	98
 930 01b7 10       		.byte	16
 931 01b8 69       		.byte	105
 932 01b9 40       		.byte	64
 933 01ba 7A       		.byte	122
 934 01bb 04       		.byte	4
 935 01bc 8A       		.byte	-118
 936 01bd 21       		.byte	33
ARM GAS  C:\Users\miker\AppData\Local\Temp\ccyxJrri.s 			page 40


 937 01be 8D       		.byte	-115
 938 01bf 40       		.byte	64
 939 01c0 8F       		.byte	-113
 940 01c1 21       		.byte	33
 941 01c2 94       		.byte	-108
 942 01c3 41       		.byte	65
 943 01c4 96       		.byte	-106
 944 01c5 41       		.byte	65
 945 01c6 9A       		.byte	-102
 946 01c7 08       		.byte	8
 947 01c8 9B       		.byte	-101
 948 01c9 40       		.byte	64
 949 01ca 9D       		.byte	-99
 950 01cb 02       		.byte	2
 951 01cc 9F       		.byte	-97
 952 01cd 10       		.byte	16
 953 01ce A0       		.byte	-96
 954 01cf 40       		.byte	64
 955 01d0 A2       		.byte	-94
 956 01d1 40       		.byte	64
 957 01d2 A5       		.byte	-91
 958 01d3 04       		.byte	4
 959 01d4 A6       		.byte	-90
 960 01d5 04       		.byte	4
 961 01d6 A9       		.byte	-87
 962 01d7 08       		.byte	8
 963 01d8 AB       		.byte	-85
 964 01d9 20       		.byte	32
 965 01da AE       		.byte	-82
 966 01db 01       		.byte	1
 967 01dc AF       		.byte	-81
 968 01dd 20       		.byte	32
 969 01de B0       		.byte	-80
 970 01df 40       		.byte	64
 971 01e0 B5       		.byte	-75
 972 01e1 40       		.byte	64
 973 01e2 C0       		.byte	-64
 974 01e3 F2       		.byte	-14
 975 01e4 C2       		.byte	-62
 976 01e5 FF       		.byte	-1
 977 01e6 C4       		.byte	-60
 978 01e7 F8       		.byte	-8
 979 01e8 CA       		.byte	-54
 980 01e9 D0       		.byte	-48
 981 01ea CC       		.byte	-52
 982 01eb 28       		.byte	40
 983 01ec CE       		.byte	-50
 984 01ed D0       		.byte	-48
 985 01ee D6       		.byte	-42
 986 01ef 0F       		.byte	15
 987 01f0 D8       		.byte	-40
 988 01f1 06       		.byte	6
 989 01f2 DE       		.byte	-34
 990 01f3 04       		.byte	4
 991 01f4 E2       		.byte	-30
 992 01f5 02       		.byte	2
 993 01f6 E8       		.byte	-24
ARM GAS  C:\Users\miker\AppData\Local\Temp\ccyxJrri.s 			page 41


 994 01f7 01       		.byte	1
 995 01f8 EA       		.byte	-22
 996 01f9 40       		.byte	64
 997 01fa 06       		.byte	6
 998 01fb 01       		.byte	1
 999 01fc 0C       		.byte	12
 1000 01fd 01       		.byte	1
 1001 01fe 0D       		.byte	13
 1002 01ff 08       		.byte	8
 1003 0200 0E       		.byte	14
 1004 0201 02       		.byte	2
 1005 0202 16       		.byte	22
 1006 0203 08       		.byte	8
 1007 0204 17       		.byte	23
 1008 0205 0E       		.byte	14
 1009 0206 1B       		.byte	27
 1010 0207 02       		.byte	2
 1011 0208 22       		.byte	34
 1012 0209 04       		.byte	4
 1013 020a 26       		.byte	38
 1014 020b 08       		.byte	8
 1015 020c 2F       		.byte	47
 1016 020d 01       		.byte	1
 1017 020e 30       		.byte	48
 1018 020f 04       		.byte	4
 1019 0210 31       		.byte	49
 1020 0211 04       		.byte	4
 1021 0212 32       		.byte	50
 1022 0213 02       		.byte	2
 1023 0214 33       		.byte	51
 1024 0215 02       		.byte	2
 1025 0216 34       		.byte	52
 1026 0217 08       		.byte	8
 1027 0218 35       		.byte	53
 1028 0219 01       		.byte	1
 1029 021a 36       		.byte	54
 1030 021b 01       		.byte	1
 1031 021c 37       		.byte	55
 1032 021d 08       		.byte	8
 1033 021e 3E       		.byte	62
 1034 021f 10       		.byte	16
 1035 0220 40       		.byte	64
 1036 0221 20       		.byte	32
 1037 0222 41       		.byte	65
 1038 0223 06       		.byte	6
 1039 0224 45       		.byte	69
 1040 0225 D0       		.byte	-48
 1041 0226 46       		.byte	70
 1042 0227 20       		.byte	32
 1043 0228 47       		.byte	71
 1044 0229 01       		.byte	1
 1045 022a 48       		.byte	72
 1046 022b 1A       		.byte	26
 1047 022c 49       		.byte	73
 1048 022d FF       		.byte	-1
 1049 022e 4A       		.byte	74
 1050 022f FF       		.byte	-1
ARM GAS  C:\Users\miker\AppData\Local\Temp\ccyxJrri.s 			page 42


 1051 0230 4B       		.byte	75
 1052 0231 FF       		.byte	-1
 1053 0232 4D       		.byte	77
 1054 0233 A0       		.byte	-96
 1055 0234 4F       		.byte	79
 1056 0235 04       		.byte	4
 1057 0236 50       		.byte	80
 1058 0237 18       		.byte	24
 1059 0238 52       		.byte	82
 1060 0239 80       		.byte	-128
 1061 023a 54       		.byte	84
 1062 023b 05       		.byte	5
 1063 023c 58       		.byte	88
 1064 023d 04       		.byte	4
 1065 023e 59       		.byte	89
 1066 023f 04       		.byte	4
 1067 0240 5A       		.byte	90
 1068 0241 04       		.byte	4
 1069 0242 5B       		.byte	91
 1070 0243 04       		.byte	4
 1071 0244 5C       		.byte	92
 1072 0245 24       		.byte	36
 1073 0246 5D       		.byte	93
 1074 0247 22       		.byte	34
 1075 0248 5F       		.byte	95
 1076 0249 01       		.byte	1
 1077 024a 60       		.byte	96
 1078 024b 40       		.byte	64
 1079 024c 62       		.byte	98
 1080 024d C0       		.byte	-64
 1081 024e 64       		.byte	100
 1082 024f 40       		.byte	64
 1083 0250 65       		.byte	101
 1084 0251 40       		.byte	64
 1085 0252 66       		.byte	102
 1086 0253 C0       		.byte	-64
 1087 0254 68       		.byte	104
 1088 0255 C0       		.byte	-64
 1089 0256 6A       		.byte	106
 1090 0257 C0       		.byte	-64
 1091 0258 6C       		.byte	108
 1092 0259 C0       		.byte	-64
 1093 025a 6E       		.byte	110
 1094 025b C0       		.byte	-64
 1095 025c 81       		.byte	-127
 1096 025d 01       		.byte	1
 1097 025e 85       		.byte	-123
 1098 025f 01       		.byte	1
 1099 0260 8F       		.byte	-113
 1100 0261 01       		.byte	1
 1101 0262 A3       		.byte	-93
 1102 0263 02       		.byte	2
 1103 0264 AE       		.byte	-82
 1104 0265 01       		.byte	1
 1105 0266 B0       		.byte	-80
 1106 0267 01       		.byte	1
 1107 0268 B1       		.byte	-79
ARM GAS  C:\Users\miker\AppData\Local\Temp\ccyxJrri.s 			page 43


 1108 0269 02       		.byte	2
 1109 026a B3       		.byte	-77
 1110 026b 01       		.byte	1
 1111 026c B8       		.byte	-72
 1112 026d 20       		.byte	32
 1113 026e BE       		.byte	-66
 1114 026f 10       		.byte	16
 1115 0270 BF       		.byte	-65
 1116 0271 04       		.byte	4
 1117 0272 D4       		.byte	-44
 1118 0273 0F       		.byte	15
 1119 0274 D8       		.byte	-40
 1120 0275 04       		.byte	4
 1121 0276 D9       		.byte	-39
 1122 0277 04       		.byte	4
 1123 0278 DB       		.byte	-37
 1124 0279 04       		.byte	4
 1125 027a DC       		.byte	-36
 1126 027b 99       		.byte	-103
 1127 027c DD       		.byte	-35
 1128 027d 90       		.byte	-112
 1129 027e DF       		.byte	-33
 1130 027f 01       		.byte	1
 1131 0280 01       		.byte	1
 1132 0281 08       		.byte	8
 1133 0282 03       		.byte	3
 1134 0283 02       		.byte	2
 1135 0284 0A       		.byte	10
 1136 0285 20       		.byte	32
 1137 0286 10       		.byte	16
 1138 0287 A0       		.byte	-96
 1139 0288 17       		.byte	23
 1140 0289 40       		.byte	64
 1141 028a 19       		.byte	25
 1142 028b 08       		.byte	8
 1143 028c 1A       		.byte	26
 1144 028d 0A       		.byte	10
 1145 028e 1B       		.byte	27
 1146 028f 02       		.byte	2
 1147 0290 1E       		.byte	30
 1148 0291 80       		.byte	-128
 1149 0292 1F       		.byte	31
 1150 0293 20       		.byte	32
 1151 0294 21       		.byte	33
 1152 0295 28       		.byte	40
 1153 0296 22       		.byte	34
 1154 0297 50       		.byte	80
 1155 0298 23       		.byte	35
 1156 0299 40       		.byte	64
 1157 029a 27       		.byte	39
 1158 029b 60       		.byte	96
 1159 029c 2A       		.byte	42
 1160 029d 80       		.byte	-128
 1161 029e 2E       		.byte	46
 1162 029f 01       		.byte	1
 1163 02a0 31       		.byte	49
 1164 02a1 20       		.byte	32
ARM GAS  C:\Users\miker\AppData\Local\Temp\ccyxJrri.s 			page 44


 1165 02a2 32       		.byte	50
 1166 02a3 08       		.byte	8
 1167 02a4 3B       		.byte	59
 1168 02a5 40       		.byte	64
 1169 02a6 3C       		.byte	60
 1170 02a7 01       		.byte	1
 1171 02a8 3D       		.byte	61
 1172 02a9 08       		.byte	8
 1173 02aa 3E       		.byte	62
 1174 02ab 40       		.byte	64
 1175 02ac 41       		.byte	65
 1176 02ad 20       		.byte	32
 1177 02ae 49       		.byte	73
 1178 02af 01       		.byte	1
 1179 02b0 4B       		.byte	75
 1180 02b1 20       		.byte	32
 1181 02b2 50       		.byte	80
 1182 02b3 20       		.byte	32
 1183 02b4 52       		.byte	82
 1184 02b5 08       		.byte	8
 1185 02b6 53       		.byte	83
 1186 02b7 10       		.byte	16
 1187 02b8 59       		.byte	89
 1188 02b9 01       		.byte	1
 1189 02ba 5A       		.byte	90
 1190 02bb 88       		.byte	-120
 1191 02bc 5C       		.byte	92
 1192 02bd 40       		.byte	64
 1193 02be 5D       		.byte	93
 1194 02bf 02       		.byte	2
 1195 02c0 5E       		.byte	94
 1196 02c1 08       		.byte	8
 1197 02c2 5F       		.byte	95
 1198 02c3 20       		.byte	32
 1199 02c4 6D       		.byte	109
 1200 02c5 44       		.byte	68
 1201 02c6 6E       		.byte	110
 1202 02c7 20       		.byte	32
 1203 02c8 72       		.byte	114
 1204 02c9 80       		.byte	-128
 1205 02ca 86       		.byte	-122
 1206 02cb 10       		.byte	16
 1207 02cc 89       		.byte	-119
 1208 02cd 04       		.byte	4
 1209 02ce 8C       		.byte	-116
 1210 02cf 80       		.byte	-128
 1211 02d0 9A       		.byte	-102
 1212 02d1 08       		.byte	8
 1213 02d2 9F       		.byte	-97
 1214 02d3 10       		.byte	16
 1215 02d4 C0       		.byte	-64
 1216 02d5 05       		.byte	5
 1217 02d6 C2       		.byte	-62
 1218 02d7 04       		.byte	4
 1219 02d8 C4       		.byte	-60
 1220 02d9 8C       		.byte	-116
 1221 02da CA       		.byte	-54
ARM GAS  C:\Users\miker\AppData\Local\Temp\ccyxJrri.s 			page 45


 1222 02db 88       		.byte	-120
 1223 02dc CC       		.byte	-52
 1224 02dd 06       		.byte	6
 1225 02de CE       		.byte	-50
 1226 02df D8       		.byte	-40
 1227 02e0 D0       		.byte	-48
 1228 02e1 04       		.byte	4
 1229 02e2 D2       		.byte	-46
 1230 02e3 04       		.byte	4
 1231 02e4 D6       		.byte	-42
 1232 02e5 FB       		.byte	-5
 1233 02e6 E2       		.byte	-30
 1234 02e7 20       		.byte	32
 1235 02e8 9A       		.byte	-102
 1236 02e9 08       		.byte	8
 1237 02ea 9F       		.byte	-97
 1238 02eb 10       		.byte	16
 1239 02ec AF       		.byte	-81
 1240 02ed 40       		.byte	64
 1241 02ee B0       		.byte	-80
 1242 02ef 01       		.byte	1
 1243 02f0 B4       		.byte	-76
 1244 02f1 20       		.byte	32
 1245 02f2 02       		.byte	2
 1246 02f3 02       		.byte	2
 1247 02f4 0C       		.byte	12
 1248 02f5 04       		.byte	4
 1249 02f6 11       		.byte	17
 1250 02f7 02       		.byte	2
 1251 02f8 1C       		.byte	28
 1252 02f9 01       		.byte	1
 1253 02fa 27       		.byte	39
 1254 02fb 01       		.byte	1
 1255 02fc 31       		.byte	49
 1256 02fd 01       		.byte	1
 1257 02fe 32       		.byte	50
 1258 02ff 01       		.byte	1
 1259 0300 34       		.byte	52
 1260 0301 04       		.byte	4
 1261 0302 36       		.byte	54
 1262 0303 02       		.byte	2
 1263 0304 37       		.byte	55
 1264 0305 02       		.byte	2
 1265 0306 3E       		.byte	62
 1266 0307 14       		.byte	20
 1267 0308 3F       		.byte	63
 1268 0309 40       		.byte	64
 1269 030a 56       		.byte	86
 1270 030b 04       		.byte	4
 1271 030c 58       		.byte	88
 1272 030d 04       		.byte	4
 1273 030e 59       		.byte	89
 1274 030f 04       		.byte	4
 1275 0310 5B       		.byte	91
 1276 0311 04       		.byte	4
 1277 0312 5C       		.byte	92
 1278 0313 33       		.byte	51
ARM GAS  C:\Users\miker\AppData\Local\Temp\ccyxJrri.s 			page 46


 1279 0314 5F       		.byte	95
 1280 0315 01       		.byte	1
 1281 0316 92       		.byte	-110
 1282 0317 01       		.byte	1
 1283 0318 9B       		.byte	-101
 1284 0319 01       		.byte	1
 1285 031a B3       		.byte	-77
 1286 031b 01       		.byte	1
 1287 031c B6       		.byte	-74
 1288 031d 01       		.byte	1
 1289 031e D8       		.byte	-40
 1290 031f 04       		.byte	4
 1291 0320 D9       		.byte	-39
 1292 0321 04       		.byte	4
 1293 0322 DC       		.byte	-36
 1294 0323 93       		.byte	-109
 1295 0324 DF       		.byte	-33
 1296 0325 01       		.byte	1
 1297 0326 00       		.byte	0
 1298 0327 02       		.byte	2
 1299 0328 01       		.byte	1
 1300 0329 80       		.byte	-128
 1301 032a 09       		.byte	9
 1302 032b 80       		.byte	-128
 1303 032c 0F       		.byte	15
 1304 032d 40       		.byte	64
 1305 032e 16       		.byte	22
 1306 032f 08       		.byte	8
 1307 0330 17       		.byte	23
 1308 0331 20       		.byte	32
 1309 0332 19       		.byte	25
 1310 0333 94       		.byte	-108
 1311 0334 1D       		.byte	29
 1312 0335 80       		.byte	-128
 1313 0336 21       		.byte	33
 1314 0337 02       		.byte	2
 1315 0338 22       		.byte	34
 1316 0339 40       		.byte	64
 1317 033a 27       		.byte	39
 1318 033b 20       		.byte	32
 1319 033c 28       		.byte	40
 1320 033d 20       		.byte	32
 1321 033e 31       		.byte	49
 1322 033f 02       		.byte	2
 1323 0340 37       		.byte	55
 1324 0341 10       		.byte	16
 1325 0342 59       		.byte	89
 1326 0343 14       		.byte	20
 1327 0344 5A       		.byte	90
 1328 0345 80       		.byte	-128
 1329 0346 63       		.byte	99
 1330 0347 80       		.byte	-128
 1331 0348 83       		.byte	-125
 1332 0349 40       		.byte	64
 1333 034a C0       		.byte	-64
 1334 034b 09       		.byte	9
 1335 034c C2       		.byte	-62
ARM GAS  C:\Users\miker\AppData\Local\Temp\ccyxJrri.s 			page 47


 1336 034d 11       		.byte	17
 1337 034e CA       		.byte	-54
 1338 034f 02       		.byte	2
 1339 0350 CC       		.byte	-52
 1340 0351 21       		.byte	33
 1341 0352 D6       		.byte	-42
 1342 0353 0E       		.byte	14
 1343 0354 D8       		.byte	-40
 1344 0355 01       		.byte	1
 1345 0356 E2       		.byte	-30
 1346 0357 09       		.byte	9
 1347 0358 E6       		.byte	-26
 1348 0359 08       		.byte	8
 1349 035a E2       		.byte	-30
 1350 035b 80       		.byte	-128
 1351 035c E8       		.byte	-24
 1352 035d 10       		.byte	16
 1353 035e EE       		.byte	-18
 1354 035f 0A       		.byte	10
 1355 0360 01       		.byte	1
 1356 0361 20       		.byte	32
 1357 0362 02       		.byte	2
 1358 0363 08       		.byte	8
 1359 0364 04       		.byte	4
 1360 0365 56       		.byte	86
 1361 0366 05       		.byte	5
 1362 0367 16       		.byte	22
 1363 0368 06       		.byte	6
 1364 0369 20       		.byte	32
 1365 036a 07       		.byte	7
 1366 036b 08       		.byte	8
 1367 036c 08       		.byte	8
 1368 036d 65       		.byte	101
 1369 036e 0A       		.byte	10
 1370 036f 10       		.byte	16
 1371 0370 0D       		.byte	13
 1372 0371 10       		.byte	16
 1373 0372 0E       		.byte	14
 1374 0373 18       		.byte	24
 1375 0374 0F       		.byte	15
 1376 0375 02       		.byte	2
 1377 0376 11       		.byte	17
 1378 0377 18       		.byte	24
 1379 0378 13       		.byte	19
 1380 0379 04       		.byte	4
 1381 037a 14       		.byte	20
 1382 037b 60       		.byte	96
 1383 037c 15       		.byte	21
 1384 037d 18       		.byte	24
 1385 037e 17       		.byte	23
 1386 037f 02       		.byte	2
 1387 0380 18       		.byte	24
 1388 0381 33       		.byte	51
 1389 0382 1B       		.byte	27
 1390 0383 1E       		.byte	30
 1391 0384 1C       		.byte	28
 1392 0385 20       		.byte	32
ARM GAS  C:\Users\miker\AppData\Local\Temp\ccyxJrri.s 			page 48


 1393 0386 1E       		.byte	30
 1394 0387 40       		.byte	64
 1395 0388 1F       		.byte	31
 1396 0389 01       		.byte	1
 1397 038a 20       		.byte	32
 1398 038b 76       		.byte	118
 1399 038c 24       		.byte	36
 1400 038d 08       		.byte	8
 1401 038e 25       		.byte	37
 1402 038f 2E       		.byte	46
 1403 0390 29       		.byte	41
 1404 0391 20       		.byte	32
 1405 0392 2F       		.byte	47
 1406 0393 40       		.byte	64
 1407 0394 30       		.byte	48
 1408 0395 08       		.byte	8
 1409 0396 31       		.byte	49
 1410 0397 20       		.byte	32
 1411 0398 33       		.byte	51
 1412 0399 40       		.byte	64
 1413 039a 34       		.byte	52
 1414 039b 07       		.byte	7
 1415 039c 35       		.byte	53
 1416 039d 01       		.byte	1
 1417 039e 36       		.byte	54
 1418 039f 70       		.byte	112
 1419 03a0 37       		.byte	55
 1420 03a1 1E       		.byte	30
 1421 03a2 38       		.byte	56
 1422 03a3 20       		.byte	32
 1423 03a4 39       		.byte	57
 1424 03a5 02       		.byte	2
 1425 03a6 3E       		.byte	62
 1426 03a7 01       		.byte	1
 1427 03a8 3F       		.byte	63
 1428 03a9 01       		.byte	1
 1429 03aa 40       		.byte	64
 1430 03ab 41       		.byte	65
 1431 03ac 41       		.byte	65
 1432 03ad 02       		.byte	2
 1433 03ae 49       		.byte	73
 1434 03af FF       		.byte	-1
 1435 03b0 4A       		.byte	74
 1436 03b1 FF       		.byte	-1
 1437 03b2 4B       		.byte	75
 1438 03b3 FF       		.byte	-1
 1439 03b4 4D       		.byte	77
 1440 03b5 A0       		.byte	-96
 1441 03b6 4F       		.byte	79
 1442 03b7 01       		.byte	1
 1443 03b8 50       		.byte	80
 1444 03b9 18       		.byte	24
 1445 03ba 52       		.byte	82
 1446 03bb 80       		.byte	-128
 1447 03bc 58       		.byte	88
 1448 03bd 04       		.byte	4
 1449 03be 59       		.byte	89
ARM GAS  C:\Users\miker\AppData\Local\Temp\ccyxJrri.s 			page 49


 1450 03bf 04       		.byte	4
 1451 03c0 5A       		.byte	90
 1452 03c1 04       		.byte	4
 1453 03c2 5B       		.byte	91
 1454 03c3 04       		.byte	4
 1455 03c4 5C       		.byte	92
 1456 03c5 99       		.byte	-103
 1457 03c6 5D       		.byte	93
 1458 03c7 99       		.byte	-103
 1459 03c8 5F       		.byte	95
 1460 03c9 01       		.byte	1
 1461 03ca 60       		.byte	96
 1462 03cb 40       		.byte	64
 1463 03cc 62       		.byte	98
 1464 03cd 80       		.byte	-128
 1465 03ce 64       		.byte	100
 1466 03cf 40       		.byte	64
 1467 03d0 65       		.byte	101
 1468 03d1 40       		.byte	64
 1469 03d2 66       		.byte	102
 1470 03d3 80       		.byte	-128
 1471 03d4 68       		.byte	104
 1472 03d5 40       		.byte	64
 1473 03d6 6A       		.byte	106
 1474 03d7 80       		.byte	-128
 1475 03d8 6C       		.byte	108
 1476 03d9 40       		.byte	64
 1477 03da 6D       		.byte	109
 1478 03db 20       		.byte	32
 1479 03dc 6E       		.byte	110
 1480 03dd 80       		.byte	-128
 1481 03de 8E       		.byte	-114
 1482 03df 01       		.byte	1
 1483 03e0 B6       		.byte	-74
 1484 03e1 01       		.byte	1
 1485 03e2 C0       		.byte	-64
 1486 03e3 41       		.byte	65
 1487 03e4 C1       		.byte	-63
 1488 03e5 03       		.byte	3
 1489 03e6 C5       		.byte	-59
 1490 03e7 2E       		.byte	46
 1491 03e8 C6       		.byte	-58
 1492 03e9 C4       		.byte	-60
 1493 03ea C7       		.byte	-57
 1494 03eb 03       		.byte	3
 1495 03ec C8       		.byte	-56
 1496 03ed 1F       		.byte	31
 1497 03ee C9       		.byte	-55
 1498 03ef FF       		.byte	-1
 1499 03f0 CA       		.byte	-54
 1500 03f1 FF       		.byte	-1
 1501 03f2 CB       		.byte	-53
 1502 03f3 FF       		.byte	-1
 1503 03f4 CD       		.byte	-51
 1504 03f5 AF       		.byte	-81
 1505 03f6 CE       		.byte	-50
 1506 03f7 07       		.byte	7
ARM GAS  C:\Users\miker\AppData\Local\Temp\ccyxJrri.s 			page 50


 1507 03f8 CF       		.byte	-49
 1508 03f9 01       		.byte	1
 1509 03fa D0       		.byte	-48
 1510 03fb 18       		.byte	24
 1511 03fc D8       		.byte	-40
 1512 03fd 04       		.byte	4
 1513 03fe DA       		.byte	-38
 1514 03ff 04       		.byte	4
 1515 0400 DC       		.byte	-36
 1516 0401 09       		.byte	9
 1517 0402 DD       		.byte	-35
 1518 0403 09       		.byte	9
 1519 0404 DF       		.byte	-33
 1520 0405 01       		.byte	1
 1521 0406 E0       		.byte	-32
 1522 0407 40       		.byte	64
 1523 0408 E2       		.byte	-30
 1524 0409 80       		.byte	-128
 1525 040a E4       		.byte	-28
 1526 040b 40       		.byte	64
 1527 040c E5       		.byte	-27
 1528 040d 40       		.byte	64
 1529 040e E6       		.byte	-26
 1530 040f 80       		.byte	-128
 1531 0410 E8       		.byte	-24
 1532 0411 40       		.byte	64
 1533 0412 EA       		.byte	-22
 1534 0413 80       		.byte	-128
 1535 0414 EC       		.byte	-20
 1536 0415 40       		.byte	64
 1537 0416 ED       		.byte	-19
 1538 0417 20       		.byte	32
 1539 0418 EE       		.byte	-18
 1540 0419 80       		.byte	-128
 1541 041a 02       		.byte	2
 1542 041b 01       		.byte	1
 1543 041c 04       		.byte	4
 1544 041d 08       		.byte	8
 1545 041e 05       		.byte	5
 1546 041f 50       		.byte	80
 1547 0420 06       		.byte	6
 1548 0421 80       		.byte	-128
 1549 0422 0D       		.byte	13
 1550 0423 80       		.byte	-128
 1551 0424 0E       		.byte	14
 1552 0425 28       		.byte	40
 1553 0426 17       		.byte	23
 1554 0427 05       		.byte	5
 1555 0428 1A       		.byte	26
 1556 0429 01       		.byte	1
 1557 042a 1D       		.byte	29
 1558 042b 42       		.byte	66
 1559 042c 1E       		.byte	30
 1560 042d 08       		.byte	8
 1561 042e 1F       		.byte	31
 1562 042f 20       		.byte	32
 1563 0430 27       		.byte	39
ARM GAS  C:\Users\miker\AppData\Local\Temp\ccyxJrri.s 			page 51


 1564 0431 55       		.byte	85
 1565 0432 2F       		.byte	47
 1566 0433 29       		.byte	41
 1567 0434 35       		.byte	53
 1568 0435 40       		.byte	64
 1569 0436 36       		.byte	54
 1570 0437 10       		.byte	16
 1571 0438 37       		.byte	55
 1572 0439 09       		.byte	9
 1573 043a 3C       		.byte	60
 1574 043b 08       		.byte	8
 1575 043c 3D       		.byte	61
 1576 043d 80       		.byte	-128
 1577 043e 3F       		.byte	63
 1578 043f 01       		.byte	1
 1579 0440 40       		.byte	64
 1580 0441 10       		.byte	16
 1581 0442 41       		.byte	65
 1582 0443 02       		.byte	2
 1583 0444 43       		.byte	67
 1584 0445 40       		.byte	64
 1585 0446 45       		.byte	69
 1586 0447 02       		.byte	2
 1587 0448 47       		.byte	71
 1588 0449 60       		.byte	96
 1589 044a 49       		.byte	73
 1590 044b 04       		.byte	4
 1591 044c 4B       		.byte	75
 1592 044d 01       		.byte	1
 1593 044e 50       		.byte	80
 1594 044f 80       		.byte	-128
 1595 0450 51       		.byte	81
 1596 0451 08       		.byte	8
 1597 0452 52       		.byte	82
 1598 0453 10       		.byte	16
 1599 0454 53       		.byte	83
 1600 0455 08       		.byte	8
 1601 0456 76       		.byte	118
 1602 0457 80       		.byte	-128
 1603 0458 82       		.byte	-126
 1604 0459 01       		.byte	1
 1605 045a 89       		.byte	-119
 1606 045b 10       		.byte	16
 1607 045c 96       		.byte	-106
 1608 045d 09       		.byte	9
 1609 045e 97       		.byte	-105
 1610 045f 01       		.byte	1
 1611 0460 99       		.byte	-103
 1612 0461 10       		.byte	16
 1613 0462 9D       		.byte	-99
 1614 0463 04       		.byte	4
 1615 0464 9E       		.byte	-98
 1616 0465 10       		.byte	16
 1617 0466 9F       		.byte	-97
 1618 0467 19       		.byte	25
 1619 0468 A0       		.byte	-96
 1620 0469 44       		.byte	68
ARM GAS  C:\Users\miker\AppData\Local\Temp\ccyxJrri.s 			page 52


 1621 046a A1       		.byte	-95
 1622 046b C0       		.byte	-64
 1623 046c A2       		.byte	-94
 1624 046d 10       		.byte	16
 1625 046e A4       		.byte	-92
 1626 046f 80       		.byte	-128
 1627 0470 A5       		.byte	-91
 1628 0471 0C       		.byte	12
 1629 0472 A6       		.byte	-90
 1630 0473 04       		.byte	4
 1631 0474 B5       		.byte	-75
 1632 0475 1A       		.byte	26
 1633 0476 B7       		.byte	-73
 1634 0477 80       		.byte	-128
 1635 0478 C0       		.byte	-64
 1636 0479 F1       		.byte	-15
 1637 047a C2       		.byte	-62
 1638 047b E0       		.byte	-32
 1639 047c C4       		.byte	-60
 1640 047d 30       		.byte	48
 1641 047e CA       		.byte	-54
 1642 047f 70       		.byte	112
 1643 0480 CC       		.byte	-52
 1644 0481 F0       		.byte	-16
 1645 0482 CE       		.byte	-50
 1646 0483 D0       		.byte	-48
 1647 0484 D0       		.byte	-48
 1648 0485 BB       		.byte	-69
 1649 0486 E2       		.byte	-30
 1650 0487 84       		.byte	-124
 1651 0488 E8       		.byte	-24
 1652 0489 10       		.byte	16
 1653 048a EE       		.byte	-18
 1654 048b 0A       		.byte	10
 1655 048c 08       		.byte	8
 1656 048d 08       		.byte	8
 1657 048e 0C       		.byte	12
 1658 048f 01       		.byte	1
 1659 0490 17       		.byte	23
 1660 0491 02       		.byte	2
 1661 0492 18       		.byte	24
 1662 0493 04       		.byte	4
 1663 0494 28       		.byte	40
 1664 0495 02       		.byte	2
 1665 0496 2D       		.byte	45
 1666 0497 01       		.byte	1
 1667 0498 30       		.byte	48
 1668 0499 02       		.byte	2
 1669 049a 32       		.byte	50
 1670 049b 04       		.byte	4
 1671 049c 33       		.byte	51
 1672 049d 02       		.byte	2
 1673 049e 34       		.byte	52
 1674 049f 08       		.byte	8
 1675 04a0 36       		.byte	54
 1676 04a1 01       		.byte	1
 1677 04a2 37       		.byte	55
ARM GAS  C:\Users\miker\AppData\Local\Temp\ccyxJrri.s 			page 53


 1678 04a3 01       		.byte	1
 1679 04a4 3E       		.byte	62
 1680 04a5 55       		.byte	85
 1681 04a6 3F       		.byte	63
 1682 04a7 40       		.byte	64
 1683 04a8 56       		.byte	86
 1684 04a9 04       		.byte	4
 1685 04aa 58       		.byte	88
 1686 04ab 04       		.byte	4
 1687 04ac 59       		.byte	89
 1688 04ad 04       		.byte	4
 1689 04ae 5B       		.byte	91
 1690 04af 04       		.byte	4
 1691 04b0 5C       		.byte	92
 1692 04b1 90       		.byte	-112
 1693 04b2 5F       		.byte	95
 1694 04b3 01       		.byte	1
 1695 04b4 81       		.byte	-127
 1696 04b5 04       		.byte	4
 1697 04b6 83       		.byte	-125
 1698 04b7 F0       		.byte	-16
 1699 04b8 86       		.byte	-122
 1700 04b9 0F       		.byte	15
 1701 04ba 87       		.byte	-121
 1702 04bb 07       		.byte	7
 1703 04bc 88       		.byte	-120
 1704 04bd FD       		.byte	-3
 1705 04be 8A       		.byte	-118
 1706 04bf 02       		.byte	2
 1707 04c0 91       		.byte	-111
 1708 04c1 C0       		.byte	-64
 1709 04c2 93       		.byte	-109
 1710 04c3 14       		.byte	20
 1711 04c4 94       		.byte	-108
 1712 04c5 94       		.byte	-108
 1713 04c6 95       		.byte	-107
 1714 04c7 77       		.byte	119
 1715 04c8 96       		.byte	-106
 1716 04c9 60       		.byte	96
 1717 04ca 98       		.byte	-104
 1718 04cb 73       		.byte	115
 1719 04cc 99       		.byte	-103
 1720 04cd B7       		.byte	-73
 1721 04ce 9B       		.byte	-101
 1722 04cf 40       		.byte	64
 1723 04d0 9C       		.byte	-100
 1724 04d1 30       		.byte	48
 1725 04d2 9E       		.byte	-98
 1726 04d3 C9       		.byte	-55
 1727 04d4 A0       		.byte	-96
 1728 04d5 CF       		.byte	-49
 1729 04d6 A2       		.byte	-94
 1730 04d7 30       		.byte	48
 1731 04d8 A3       		.byte	-93
 1732 04d9 08       		.byte	8
 1733 04da A4       		.byte	-92
 1734 04db 9E       		.byte	-98
ARM GAS  C:\Users\miker\AppData\Local\Temp\ccyxJrri.s 			page 54


 1735 04dc A5       		.byte	-91
 1736 04dd C1       		.byte	-63
 1737 04de A6       		.byte	-90
 1738 04df 60       		.byte	96
 1739 04e0 A7       		.byte	-89
 1740 04e1 22       		.byte	34
 1741 04e2 A9       		.byte	-87
 1742 04e3 81       		.byte	-127
 1743 04e4 AB       		.byte	-85
 1744 04e5 12       		.byte	18
 1745 04e6 B3       		.byte	-77
 1746 04e7 0F       		.byte	15
 1747 04e8 B5       		.byte	-75
 1748 04e9 F0       		.byte	-16
 1749 04ea B6       		.byte	-74
 1750 04eb FF       		.byte	-1
 1751 04ec BE       		.byte	-66
 1752 04ed 40       		.byte	64
 1753 04ee D2       		.byte	-46
 1754 04ef 07       		.byte	7
 1755 04f0 D3       		.byte	-45
 1756 04f1 07       		.byte	7
 1757 04f2 D6       		.byte	-42
 1758 04f3 14       		.byte	20
 1759 04f4 D8       		.byte	-40
 1760 04f5 04       		.byte	4
 1761 04f6 D9       		.byte	-39
 1762 04f7 04       		.byte	4
 1763 04f8 DB       		.byte	-37
 1764 04f9 04       		.byte	4
 1765 04fa DC       		.byte	-36
 1766 04fb 90       		.byte	-112
 1767 04fc DD       		.byte	-35
 1768 04fd 10       		.byte	16
 1769 04fe DF       		.byte	-33
 1770 04ff 01       		.byte	1
 1771 0500 00       		.byte	0
 1772 0501 80       		.byte	-128
 1773 0502 02       		.byte	2
 1774 0503 08       		.byte	8
 1775 0504 05       		.byte	5
 1776 0505 10       		.byte	16
 1777 0506 07       		.byte	7
 1778 0507 20       		.byte	32
 1779 0508 08       		.byte	8
 1780 0509 20       		.byte	32
 1781 050a 0C       		.byte	12
 1782 050b 04       		.byte	4
 1783 050c 0D       		.byte	13
 1784 050d 80       		.byte	-128
 1785 050e 0E       		.byte	14
 1786 050f 28       		.byte	40
 1787 0510 0F       		.byte	15
 1788 0511 02       		.byte	2
 1789 0512 10       		.byte	16
 1790 0513 08       		.byte	8
 1791 0514 15       		.byte	21
ARM GAS  C:\Users\miker\AppData\Local\Temp\ccyxJrri.s 			page 55


 1792 0515 04       		.byte	4
 1793 0516 17       		.byte	23
 1794 0517 09       		.byte	9
 1795 0518 19       		.byte	25
 1796 0519 A5       		.byte	-91
 1797 051a 1F       		.byte	31
 1798 051b 80       		.byte	-128
 1799 051c 22       		.byte	34
 1800 051d 44       		.byte	68
 1801 051e 24       		.byte	36
 1802 051f 18       		.byte	24
 1803 0520 25       		.byte	37
 1804 0521 04       		.byte	4
 1805 0522 27       		.byte	39
 1806 0523 28       		.byte	40
 1807 0524 29       		.byte	41
 1808 0525 40       		.byte	64
 1809 0526 2C       		.byte	44
 1810 0527 04       		.byte	4
 1811 0528 2D       		.byte	45
 1812 0529 04       		.byte	4
 1813 052a 2F       		.byte	47
 1814 052b 80       		.byte	-128
 1815 052c 31       		.byte	49
 1816 052d 08       		.byte	8
 1817 052e 35       		.byte	53
 1818 052f 10       		.byte	16
 1819 0530 36       		.byte	54
 1820 0531 04       		.byte	4
 1821 0532 37       		.byte	55
 1822 0533 01       		.byte	1
 1823 0534 3D       		.byte	61
 1824 0535 08       		.byte	8
 1825 0536 3F       		.byte	63
 1826 0537 02       		.byte	2
 1827 0538 59       		.byte	89
 1828 0539 25       		.byte	37
 1829 053a 5A       		.byte	90
 1830 053b 80       		.byte	-128
 1831 053c 5D       		.byte	93
 1832 053d 80       		.byte	-128
 1833 053e 62       		.byte	98
 1834 053f 02       		.byte	2
 1835 0540 65       		.byte	101
 1836 0541 02       		.byte	2
 1837 0542 6D       		.byte	109
 1838 0543 10       		.byte	16
 1839 0544 6E       		.byte	110
 1840 0545 04       		.byte	4
 1841 0546 6F       		.byte	111
 1842 0547 02       		.byte	2
 1843 0548 82       		.byte	-126
 1844 0549 0A       		.byte	10
 1845 054a 85       		.byte	-123
 1846 054b 02       		.byte	2
 1847 054c 87       		.byte	-121
 1848 054d 02       		.byte	2
ARM GAS  C:\Users\miker\AppData\Local\Temp\ccyxJrri.s 			page 56


 1849 054e 89       		.byte	-119
 1850 054f 40       		.byte	64
 1851 0550 8A       		.byte	-118
 1852 0551 04       		.byte	4
 1853 0552 8C       		.byte	-116
 1854 0553 28       		.byte	40
 1855 0554 94       		.byte	-108
 1856 0555 18       		.byte	24
 1857 0556 95       		.byte	-107
 1858 0557 10       		.byte	16
 1859 0558 96       		.byte	-106
 1860 0559 08       		.byte	8
 1861 055a 99       		.byte	-103
 1862 055b 10       		.byte	16
 1863 055c 9B       		.byte	-101
 1864 055d 01       		.byte	1
 1865 055e 9F       		.byte	-97
 1866 055f 28       		.byte	40
 1867 0560 A0       		.byte	-96
 1868 0561 40       		.byte	64
 1869 0562 A1       		.byte	-95
 1870 0563 88       		.byte	-120
 1871 0564 A2       		.byte	-94
 1872 0565 14       		.byte	20
 1873 0566 A5       		.byte	-91
 1874 0567 04       		.byte	4
 1875 0568 AB       		.byte	-85
 1876 0569 01       		.byte	1
 1877 056a C0       		.byte	-64
 1878 056b 63       		.byte	99
 1879 056c C2       		.byte	-62
 1880 056d E2       		.byte	-30
 1881 056e C4       		.byte	-60
 1882 056f 32       		.byte	50
 1883 0570 CA       		.byte	-54
 1884 0571 E8       		.byte	-24
 1885 0572 CC       		.byte	-52
 1886 0573 E2       		.byte	-30
 1887 0574 CE       		.byte	-50
 1888 0575 C0       		.byte	-64
 1889 0576 D6       		.byte	-42
 1890 0577 1F       		.byte	31
 1891 0578 D8       		.byte	-40
 1892 0579 81       		.byte	-127
 1893 057a E2       		.byte	-30
 1894 057b 04       		.byte	4
 1895 057c EE       		.byte	-18
 1896 057d 04       		.byte	4
 1897 057e 02       		.byte	2
 1898 057f 20       		.byte	32
 1899 0580 30       		.byte	48
 1900 0581 01       		.byte	1
 1901 0582 33       		.byte	51
 1902 0583 80       		.byte	-128
 1903 0584 36       		.byte	54
 1904 0585 40       		.byte	64
 1905 0586 37       		.byte	55
ARM GAS  C:\Users\miker\AppData\Local\Temp\ccyxJrri.s 			page 57


 1906 0587 04       		.byte	4
 1907 0588 3B       		.byte	59
 1908 0589 40       		.byte	64
 1909 058a 81       		.byte	-127
 1910 058b 80       		.byte	-128
 1911 058c C0       		.byte	-64
 1912 058d 10       		.byte	16
 1913 058e CC       		.byte	-52
 1914 058f F0       		.byte	-16
 1915 0590 CE       		.byte	-50
 1916 0591 10       		.byte	16
 1917 0592 E2       		.byte	-30
 1918 0593 20       		.byte	32
 1919 0594 32       		.byte	50
 1920 0595 84       		.byte	-124
 1921 0596 35       		.byte	53
 1922 0597 80       		.byte	-128
 1923 0598 58       		.byte	88
 1924 0599 40       		.byte	64
 1925 059a 5C       		.byte	92
 1926 059b 02       		.byte	2
 1927 059c 5F       		.byte	95
 1928 059d 10       		.byte	16
 1929 059e 63       		.byte	99
 1930 059f 08       		.byte	8
 1931 05a0 67       		.byte	103
 1932 05a1 08       		.byte	8
 1933 05a2 97       		.byte	-105
 1934 05a3 40       		.byte	64
 1935 05a4 99       		.byte	-103
 1936 05a5 80       		.byte	-128
 1937 05a6 9C       		.byte	-100
 1938 05a7 01       		.byte	1
 1939 05a8 9F       		.byte	-97
 1940 05a9 04       		.byte	4
 1941 05aa A6       		.byte	-90
 1942 05ab 40       		.byte	64
 1943 05ac A7       		.byte	-89
 1944 05ad 80       		.byte	-128
 1945 05ae AE       		.byte	-82
 1946 05af 20       		.byte	32
 1947 05b0 CC       		.byte	-52
 1948 05b1 70       		.byte	112
 1949 05b2 D4       		.byte	-44
 1950 05b3 80       		.byte	-128
 1951 05b4 D6       		.byte	-42
 1952 05b5 A0       		.byte	-96
 1953 05b6 D8       		.byte	-40
 1954 05b7 C0       		.byte	-64
 1955 05b8 EC       		.byte	-20
 1956 05b9 40       		.byte	64
 1957 05ba 63       		.byte	99
 1958 05bb 02       		.byte	2
 1959 05bc 67       		.byte	103
 1960 05bd 02       		.byte	2
 1961 05be 87       		.byte	-121
 1962 05bf 04       		.byte	4
ARM GAS  C:\Users\miker\AppData\Local\Temp\ccyxJrri.s 			page 58


 1963 05c0 88       		.byte	-120
 1964 05c1 02       		.byte	2
 1965 05c2 96       		.byte	-106
 1966 05c3 08       		.byte	8
 1967 05c4 97       		.byte	-105
 1968 05c5 58       		.byte	88
 1969 05c6 9C       		.byte	-100
 1970 05c7 43       		.byte	67
 1971 05c8 9F       		.byte	-97
 1972 05c9 04       		.byte	4
 1973 05ca A6       		.byte	-90
 1974 05cb C0       		.byte	-64
 1975 05cc A7       		.byte	-89
 1976 05cd 84       		.byte	-124
 1977 05ce D6       		.byte	-42
 1978 05cf C0       		.byte	-64
 1979 05d0 E6       		.byte	-26
 1980 05d1 10       		.byte	16
 1981 05d2 18       		.byte	24
 1982 05d3 10       		.byte	16
 1983 05d4 84       		.byte	-124
 1984 05d5 01       		.byte	1
 1985 05d6 96       		.byte	-106
 1986 05d7 08       		.byte	8
 1987 05d8 97       		.byte	-105
 1988 05d9 10       		.byte	16
 1989 05da 9C       		.byte	-100
 1990 05db 41       		.byte	65
 1991 05dc 9F       		.byte	-97
 1992 05dd 04       		.byte	4
 1993 05de A6       		.byte	-90
 1994 05df C0       		.byte	-64
 1995 05e0 A7       		.byte	-89
 1996 05e1 80       		.byte	-128
 1997 05e2 AB       		.byte	-85
 1998 05e3 01       		.byte	1
 1999 05e4 AF       		.byte	-81
 2000 05e5 41       		.byte	65
 2001 05e6 B7       		.byte	-73
 2002 05e7 04       		.byte	4
 2003 05e8 C6       		.byte	-58
 2004 05e9 10       		.byte	16
 2005 05ea E2       		.byte	-30
 2006 05eb 40       		.byte	64
 2007 05ec EE       		.byte	-18
 2008 05ed 70       		.byte	112
 2009 05ee 08       		.byte	8
 2010 05ef 40       		.byte	64
 2011 05f0 0D       		.byte	13
 2012 05f1 08       		.byte	8
 2013 05f2 0E       		.byte	14
 2014 05f3 08       		.byte	8
 2015 05f4 61       		.byte	97
 2016 05f5 10       		.byte	16
 2017 05f6 C2       		.byte	-62
 2018 05f7 07       		.byte	7
 2019 05f8 D8       		.byte	-40
ARM GAS  C:\Users\miker\AppData\Local\Temp\ccyxJrri.s 			page 59


 2020 05f9 02       		.byte	2
 2021 05fa 50       		.byte	80
 2022 05fb 04       		.byte	4
 2023 05fc 9D       		.byte	-99
 2024 05fd 10       		.byte	16
 2025 05fe A1       		.byte	-95
 2026 05ff 08       		.byte	8
 2027 0600 B0       		.byte	-80
 2028 0601 40       		.byte	64
 2029 0602 B6       		.byte	-74
 2030 0603 04       		.byte	4
 2031 0604 D4       		.byte	-44
 2032 0605 04       		.byte	4
 2033 0606 EA       		.byte	-22
 2034 0607 03       		.byte	3
 2035 0608 56       		.byte	86
 2036 0609 80       		.byte	-128
 2037 060a 8F       		.byte	-113
 2038 060b 40       		.byte	64
 2039 060c 94       		.byte	-108
 2040 060d 08       		.byte	8
 2041 060e 9D       		.byte	-99
 2042 060f 10       		.byte	16
 2043 0610 A1       		.byte	-95
 2044 0611 08       		.byte	8
 2045 0612 D4       		.byte	-44
 2046 0613 02       		.byte	2
 2047 0614 E6       		.byte	-26
 2048 0615 02       		.byte	2
 2049 0616 08       		.byte	8
 2050 0617 08       		.byte	8
 2051 0618 0A       		.byte	10
 2052 0619 04       		.byte	4
 2053 061a 0F       		.byte	15
 2054 061b 40       		.byte	64
 2055 061c 86       		.byte	-122
 2056 061d 04       		.byte	4
 2057 061e 8D       		.byte	-115
 2058 061f 10       		.byte	16
 2059 0620 94       		.byte	-108
 2060 0621 08       		.byte	8
 2061 0622 9D       		.byte	-99
 2062 0623 10       		.byte	16
 2063 0624 A7       		.byte	-89
 2064 0625 40       		.byte	64
 2065 0626 AA       		.byte	-86
 2066 0627 80       		.byte	-128
 2067 0628 B1       		.byte	-79
 2068 0629 08       		.byte	8
 2069 062a C2       		.byte	-62
 2070 062b 0E       		.byte	14
 2071 062c E0       		.byte	-32
 2072 062d 02       		.byte	2
 2073 062e EE       		.byte	-18
 2074 062f 04       		.byte	4
 2075 0630 88       		.byte	-120
 2076 0631 40       		.byte	64
ARM GAS  C:\Users\miker\AppData\Local\Temp\ccyxJrri.s 			page 60


 2077 0632 96       		.byte	-106
 2078 0633 08       		.byte	8
 2079 0634 97       		.byte	-105
 2080 0635 10       		.byte	16
 2081 0636 9C       		.byte	-100
 2082 0637 40       		.byte	64
 2083 0638 9F       		.byte	-97
 2084 0639 04       		.byte	4
 2085 063a A6       		.byte	-90
 2086 063b 80       		.byte	-128
 2087 063c AE       		.byte	-82
 2088 063d 40       		.byte	64
 2089 063e AF       		.byte	-81
 2090 063f 80       		.byte	-128
 2091 0640 B4       		.byte	-76
 2092 0641 10       		.byte	16
 2093 0642 EE       		.byte	-18
 2094 0643 50       		.byte	80
 2095 0644 22       		.byte	34
 2096 0645 80       		.byte	-128
 2097 0646 83       		.byte	-125
 2098 0647 04       		.byte	4
 2099 0648 86       		.byte	-122
 2100 0649 04       		.byte	4
 2101 064a 87       		.byte	-121
 2102 064b 10       		.byte	16
 2103 064c 96       		.byte	-106
 2104 064d 08       		.byte	8
 2105 064e 97       		.byte	-105
 2106 064f 10       		.byte	16
 2107 0650 9F       		.byte	-97
 2108 0651 04       		.byte	4
 2109 0652 A6       		.byte	-90
 2110 0653 80       		.byte	-128
 2111 0654 C8       		.byte	-56
 2112 0655 10       		.byte	16
 2113 0656 E2       		.byte	-30
 2114 0657 90       		.byte	-112
 2115 0658 E6       		.byte	-26
 2116 0659 10       		.byte	16
 2117 065a 08       		.byte	8
 2118 065b 20       		.byte	32
 2119 065c 0C       		.byte	12
 2120 065d 80       		.byte	-128
 2121 065e 0F       		.byte	15
 2122 065f 80       		.byte	-128
 2123 0660 80       		.byte	-128
 2124 0661 80       		.byte	-128
 2125 0662 A7       		.byte	-89
 2126 0663 40       		.byte	64
 2127 0664 AC       		.byte	-84
 2128 0665 08       		.byte	8
 2129 0666 AF       		.byte	-81
 2130 0667 40       		.byte	64
 2131 0668 B4       		.byte	-76
 2132 0669 04       		.byte	4
 2133 066a C2       		.byte	-62
ARM GAS  C:\Users\miker\AppData\Local\Temp\ccyxJrri.s 			page 61


 2134 066b 07       		.byte	7
 2135 066c E8       		.byte	-24
 2136 066d 08       		.byte	8
 2137 066e 00       		.byte	0
 2138 066f 40       		.byte	64
 2139 0670 03       		.byte	3
 2140 0671 20       		.byte	32
 2141 0672 06       		.byte	6
 2142 0673 20       		.byte	32
 2143 0674 07       		.byte	7
 2144 0675 04       		.byte	4
 2145 0676 62       		.byte	98
 2146 0677 02       		.byte	2
 2147 0678 82       		.byte	-126
 2148 0679 20       		.byte	32
 2149 067a 8A       		.byte	-118
 2150 067b 02       		.byte	2
 2151 067c 8B       		.byte	-117
 2152 067d 20       		.byte	32
 2153 067e 8C       		.byte	-116
 2154 067f 40       		.byte	64
 2155 0680 8F       		.byte	-113
 2156 0681 04       		.byte	4
 2157 0682 A8       		.byte	-88
 2158 0683 20       		.byte	32
 2159 0684 C0       		.byte	-64
 2160 0685 0F       		.byte	15
 2161 0686 D8       		.byte	-40
 2162 0687 02       		.byte	2
 2163 0688 E2       		.byte	-30
 2164 0689 03       		.byte	3
 2165 068a E4       		.byte	-28
 2166 068b 04       		.byte	4
 2167 068c E6       		.byte	-26
 2168 068d 08       		.byte	8
 2169 068e 00       		.byte	0
 2170 068f 1C       		.byte	28
 2171 0690 01       		.byte	1
 2172 0691 01       		.byte	1
 2173 0692 0C       		.byte	12
 2174 0693 14       		.byte	20
 2175 0694 0D       		.byte	13
 2176 0695 01       		.byte	1
 2177 0696 0E       		.byte	14
 2178 0697 08       		.byte	8
 2179 0698 0F       		.byte	15
 2180 0699 01       		.byte	1
 2181 069a 10       		.byte	16
 2182 069b 02       		.byte	2
 2183 069c 11       		.byte	17
 2184 069d 01       		.byte	1
 2185 069e 1C       		.byte	28
 2186 069f 02       		.byte	2
 2187 06a0 1D       		.byte	29
 2188 06a1 01       		.byte	1
 2189 06a2 00       		.byte	0
 2190 06a3 EA       		.byte	-22
ARM GAS  C:\Users\miker\AppData\Local\Temp\ccyxJrri.s 			page 62


 2191 06a4 01       		.byte	1
 2192 06a5 FF       		.byte	-1
 2193 06a6 0000     		.space	2
 2194              		.type	BS_IOPINS0_0_VAL.4917, %object
 2195              		.size	BS_IOPINS0_0_VAL.4917, 8
 2196              	BS_IOPINS0_0_VAL.4917:
 2197 06a8 00       		.byte	0
 2198 06a9 73       		.byte	115
 2199 06aa 73       		.byte	115
 2200 06ab 00       		.byte	0
 2201 06ac 73       		.byte	115
 2202 06ad 00       		.byte	0
 2203 06ae 00       		.byte	0
 2204 06af 00       		.byte	0
 2205              		.type	BS_IOPINS0_8_VAL.4918, %object
 2206              		.size	BS_IOPINS0_8_VAL.4918, 10
 2207              	BS_IOPINS0_8_VAL.4918:
 2208 06b0 40       		.byte	64
 2209 06b1 00       		.byte	0
 2210 06b2 00       		.byte	0
 2211 06b3 30       		.byte	48
 2212 06b4 30       		.byte	48
 2213 06b5 00       		.byte	0
 2214 06b6 20       		.byte	32
 2215 06b7 00       		.byte	0
 2216 06b8 C0       		.byte	-64
 2217 06b9 00       		.byte	0
 2218 06ba 0000     		.space	2
 2219              		.type	BS_IOPINS0_1_VAL.4919, %object
 2220              		.size	BS_IOPINS0_1_VAL.4919, 10
 2221              	BS_IOPINS0_1_VAL.4919:
 2222 06bc E0       		.byte	-32
 2223 06bd 00       		.byte	0
 2224 06be 00       		.byte	0
 2225 06bf EB       		.byte	-21
 2226 06c0 0B       		.byte	11
 2227 06c1 00       		.byte	0
 2228 06c2 00       		.byte	0
 2229 06c3 00       		.byte	0
 2230 06c4 00       		.byte	0
 2231 06c5 00       		.byte	0
 2232 06c6 0000     		.space	2
 2233              		.type	BS_IOPINS0_2_VAL.4920, %object
 2234              		.size	BS_IOPINS0_2_VAL.4920, 8
 2235              	BS_IOPINS0_2_VAL.4920:
 2236 06c8 00       		.byte	0
 2237 06c9 FF       		.byte	-1
 2238 06ca FF       		.byte	-1
 2239 06cb 00       		.byte	0
 2240 06cc 01       		.byte	1
 2241 06cd 00       		.byte	0
 2242 06ce 00       		.byte	0
 2243 06cf 00       		.byte	0
 2244              		.type	BS_IOPINS0_4_VAL.4921, %object
 2245              		.size	BS_IOPINS0_4_VAL.4921, 10
 2246              	BS_IOPINS0_4_VAL.4921:
 2247 06d0 01       		.byte	1
ARM GAS  C:\Users\miker\AppData\Local\Temp\ccyxJrri.s 			page 63


 2248 06d1 00       		.byte	0
 2249 06d2 00       		.byte	0
 2250 06d3 FF       		.byte	-1
 2251 06d4 FE       		.byte	-2
 2252 06d5 00       		.byte	0
 2253 06d6 00       		.byte	0
 2254 06d7 00       		.byte	0
 2255 06d8 00       		.byte	0
 2256 06d9 00       		.byte	0
 2257 06da 0000     		.space	2
 2258              		.type	BS_IOPINS0_5_VAL.4922, %object
 2259              		.size	BS_IOPINS0_5_VAL.4922, 10
 2260              	BS_IOPINS0_5_VAL.4922:
 2261 06dc 0F       		.byte	15
 2262 06dd 00       		.byte	0
 2263 06de 00       		.byte	0
 2264 06df 7F       		.byte	127
 2265 06e0 70       		.byte	112
 2266 06e1 00       		.byte	0
 2267 06e2 40       		.byte	64
 2268 06e3 00       		.byte	0
 2269 06e4 00       		.byte	0
 2270 06e5 00       		.byte	0
 2271 06e6 0000     		.space	2
 2272              		.type	BS_IOPINS0_6_VAL.4923, %object
 2273              		.size	BS_IOPINS0_6_VAL.4923, 10
 2274              	BS_IOPINS0_6_VAL.4923:
 2275 06e8 E0       		.byte	-32
 2276 06e9 00       		.byte	0
 2277 06ea 00       		.byte	0
 2278 06eb F0       		.byte	-16
 2279 06ec 10       		.byte	16
 2280 06ed 00       		.byte	0
 2281 06ee 10       		.byte	16
 2282 06ef 00       		.byte	0
 2283 06f0 00       		.byte	0
 2284 06f1 00       		.byte	0
 2285 06f2 0000     		.text
 2286              	.Letext0:
 2287              		.file 2 "c:\\program files (x86)\\cypress\\psoc creator\\4.0\\psoc creator\\import\\gnu\\arm\\4.9.
 2288              		.file 3 "Generated_Source\\PSoC5\\cytypes.h"
 2289              		.file 4 "Generated_Source\\PSoC5\\CyLib.h"