ARM GAS  C:\Users\miker\AppData\Local\Temp\cctp1tOt.s 			page 1


   1              		.syntax unified
   2              		.cpu cortex-m3
   3              		.fpu softvfp
   4              		.eabi_attribute 20, 1
   5              		.eabi_attribute 21, 1
   6              		.eabi_attribute 23, 3
   7              		.eabi_attribute 24, 1
   8              		.eabi_attribute 25, 1
   9              		.eabi_attribute 26, 1
  10              		.eabi_attribute 30, 1
  11              		.eabi_attribute 34, 1
  12              		.eabi_attribute 18, 4
  13              		.thumb
  14              		.file	"gcode.c"
  15              		.text
  16              	.Ltext0:
  17              		.cfi_sections	.debug_frame
  18              		.section	.text.gc_init,"ax",%progbits
  19              		.align	2
  20              		.global	gc_init
  21              		.thumb
  22              		.thumb_func
  23              		.type	gc_init, %function
  24              	gc_init:
  25              	.LFB63:
  26              		.file 1 "gcode.c"
   1:gcode.c       **** /*
   2:gcode.c       ****   gcode.c - rs274/ngc parser.
   3:gcode.c       ****   Part of Grbl
   4:gcode.c       **** 
   5:gcode.c       ****   Copyright (c) 2011-2016 Sungeun K. Jeon for Gnea Research LLC
   6:gcode.c       ****   Copyright (c) 2009-2011 Simen Svale Skogsrud
   7:gcode.c       **** 
   8:gcode.c       ****   Grbl is free software: you can redistribute it and/or modify
   9:gcode.c       ****   it under the terms of the GNU General Public License as published by
  10:gcode.c       ****   the Free Software Foundation, either version 3 of the License, or
  11:gcode.c       ****   (at your option) any later version.
  12:gcode.c       **** 
  13:gcode.c       ****   Grbl is distributed in the hope that it will be useful,
  14:gcode.c       ****   but WITHOUT ANY WARRANTY; without even the implied warranty of
  15:gcode.c       ****   MERCHANTABILITY or FITNESS FOR A PARTICULAR PURPOSE.  See the
  16:gcode.c       ****   GNU General Public License for more details.
  17:gcode.c       **** 
  18:gcode.c       ****   You should have received a copy of the GNU General Public License
  19:gcode.c       ****   along with Grbl.  If not, see <http://www.gnu.org/licenses/>.
  20:gcode.c       **** */
  21:gcode.c       **** 
  22:gcode.c       **** #include "grbl.h"
  23:gcode.c       **** 
  24:gcode.c       **** // NOTE: Max line number is defined by the g-code standard to be 99999. It seems to be an
  25:gcode.c       **** // arbitrary value, and some GUIs may require more. So we increased it based on a max safe
  26:gcode.c       **** // value when converting a float (7.2 digit precision)s to an integer.
  27:gcode.c       **** #define MAX_LINE_NUMBER 10000000
  28:gcode.c       **** #define MAX_TOOL_NUMBER 255 // Limited by max unsigned 8-bit value
  29:gcode.c       **** 
  30:gcode.c       **** #define AXIS_COMMAND_NONE 0
  31:gcode.c       **** #define AXIS_COMMAND_NON_MODAL 1
ARM GAS  C:\Users\miker\AppData\Local\Temp\cctp1tOt.s 			page 2


  32:gcode.c       **** #define AXIS_COMMAND_MOTION_MODE 2
  33:gcode.c       **** #define AXIS_COMMAND_TOOL_LENGTH_OFFSET 3 // *Undefined but required
  34:gcode.c       **** 
  35:gcode.c       **** // Declare gc extern struct
  36:gcode.c       **** parser_state_t gc_state;
  37:gcode.c       **** parser_block_t gc_block;
  38:gcode.c       **** 
  39:gcode.c       **** #define FAIL(status) return(status);
  40:gcode.c       **** 
  41:gcode.c       **** 
  42:gcode.c       **** void gc_init()
  43:gcode.c       **** {
  27              		.loc 1 43 0
  28              		.cfi_startproc
  29              		@ args = 0, pretend = 0, frame = 0
  30              		@ frame_needed = 0, uses_anonymous_args = 0
  31 0000 10B5     		push	{r4, lr}
  32              		.cfi_def_cfa_offset 8
  33              		.cfi_offset 4, -8
  34              		.cfi_offset 14, -4
  44:gcode.c       ****   memset(&gc_state, 0, sizeof(parser_state_t));
  35              		.loc 1 44 0
  36 0002 084C     		ldr	r4, .L4
  37 0004 2046     		mov	r0, r4
  38 0006 0021     		movs	r1, #0
  39 0008 4422     		movs	r2, #68
  40 000a FFF7FEFF 		bl	memset
  41              	.LVL0:
  45:gcode.c       **** 
  46:gcode.c       ****   // Load default G54 coordinate system.
  47:gcode.c       ****   if (!(settings_read_coord_data(gc_state.modal.coord_select,gc_state.coord_system))) {
  42              		.loc 1 47 0
  43 000e 0020     		movs	r0, #0
  44 0010 04F12801 		add	r1, r4, #40
  45 0014 FFF7FEFF 		bl	settings_read_coord_data
  46              	.LVL1:
  47 0018 10B9     		cbnz	r0, .L1
  48:gcode.c       ****     report_status_message(STATUS_SETTING_READ_FAIL);
  48              		.loc 1 48 0
  49 001a 0720     		movs	r0, #7
  50 001c FFF7FEFF 		bl	report_status_message
  51              	.LVL2:
  52              	.L1:
  53 0020 10BD     		pop	{r4, pc}
  54              	.L5:
  55 0022 00BF     		.align	2
  56              	.L4:
  57 0024 00000000 		.word	gc_state
  58              		.cfi_endproc
  59              	.LFE63:
  60              		.size	gc_init, .-gc_init
  61              		.section	.text.gc_sync_position,"ax",%progbits
  62              		.align	2
  63              		.global	gc_sync_position
  64              		.thumb
  65              		.thumb_func
  66              		.type	gc_sync_position, %function
ARM GAS  C:\Users\miker\AppData\Local\Temp\cctp1tOt.s 			page 3


  67              	gc_sync_position:
  68              	.LFB64:
  49:gcode.c       ****   }
  50:gcode.c       **** }
  51:gcode.c       **** 
  52:gcode.c       **** 
  53:gcode.c       **** // Sets g-code parser position in mm. Input in steps. Called by the system abort and hard
  54:gcode.c       **** // limit pull-off routines.
  55:gcode.c       **** void gc_sync_position()
  56:gcode.c       **** {
  69              		.loc 1 56 0
  70              		.cfi_startproc
  71              		@ args = 0, pretend = 0, frame = 0
  72              		@ frame_needed = 0, uses_anonymous_args = 0
  73 0000 08B5     		push	{r3, lr}
  74              		.cfi_def_cfa_offset 8
  75              		.cfi_offset 3, -8
  76              		.cfi_offset 14, -4
  57:gcode.c       ****   system_convert_array_steps_to_mpos(gc_state.position,sys_position);
  77              		.loc 1 57 0
  78 0002 0248     		ldr	r0, .L8
  79 0004 0249     		ldr	r1, .L8+4
  80 0006 FFF7FEFF 		bl	system_convert_array_steps_to_mpos
  81              	.LVL3:
  82 000a 08BD     		pop	{r3, pc}
  83              	.L9:
  84              		.align	2
  85              	.L8:
  86 000c 1C000000 		.word	gc_state+28
  87 0010 00000000 		.word	sys_position
  88              		.cfi_endproc
  89              	.LFE64:
  90              		.size	gc_sync_position, .-gc_sync_position
  91              		.global	__aeabi_f2d
  92              		.global	__aeabi_d2uiz
  93              		.global	__aeabi_i2f
  94              		.global	__aeabi_fsub
  95              		.global	__aeabi_fmul
  96              		.global	__aeabi_f2iz
  97              		.global	__aeabi_fcmpgt
  98              		.global	__aeabi_fcmplt
  99              		.global	__aeabi_dmul
 100              		.global	__aeabi_d2f
 101              		.global	__aeabi_fadd
 102              		.global	__aeabi_fcmpeq
 103              		.global	__aeabi_dsub
 104              		.global	__aeabi_ddiv
 105              		.global	__aeabi_dcmpgt
 106              		.section	.text.gc_execute_line,"ax",%progbits
 107              		.align	2
 108              		.global	gc_execute_line
 109              		.thumb
 110              		.thumb_func
 111              		.type	gc_execute_line, %function
 112              	gc_execute_line:
 113              	.LFB65:
  58:gcode.c       **** }
ARM GAS  C:\Users\miker\AppData\Local\Temp\cctp1tOt.s 			page 4


  59:gcode.c       **** 
  60:gcode.c       **** 
  61:gcode.c       **** // Executes one line of 0-terminated G-Code. The line is assumed to contain only uppercase
  62:gcode.c       **** // characters and signed floating point values (no whitespace). Comments and block delete
  63:gcode.c       **** // characters have been removed. In this function, all units and positions are converted and
  64:gcode.c       **** // exported to grbl's internal functions in terms of (mm, mm/min) and absolute machine
  65:gcode.c       **** // coordinates, respectively.
  66:gcode.c       **** uint8_t gc_execute_line(char *line)
  67:gcode.c       **** {
 114              		.loc 1 67 0
 115              		.cfi_startproc
 116              		@ args = 0, pretend = 0, frame = 72
 117              		@ frame_needed = 0, uses_anonymous_args = 0
 118              	.LVL4:
 119 0000 2DE9F04F 		push	{r4, r5, r6, r7, r8, r9, r10, fp, lr}
 120              		.cfi_def_cfa_offset 36
 121              		.cfi_offset 4, -36
 122              		.cfi_offset 5, -32
 123              		.cfi_offset 6, -28
 124              		.cfi_offset 7, -24
 125              		.cfi_offset 8, -20
 126              		.cfi_offset 9, -16
 127              		.cfi_offset 10, -12
 128              		.cfi_offset 11, -8
 129              		.cfi_offset 14, -4
 130 0004 99B0     		sub	sp, sp, #100
 131              		.cfi_def_cfa_offset 136
 132 0006 8146     		mov	r9, r0
  68:gcode.c       ****   /* -------------------------------------------------------------------------------------
  69:gcode.c       ****      STEP 1: Initialize parser block struct and copy current g-code state modes. The parser
  70:gcode.c       ****      updates these modes and commands as the block line is parser and will only be used and
  71:gcode.c       ****      executed after successful error-checking. The parser block struct also contains a block
  72:gcode.c       ****      values struct, word tracking variables, and a non-modal commands tracker for the new
  73:gcode.c       ****      block. This struct contains all of the necessary information to execute the block. */
  74:gcode.c       **** 
  75:gcode.c       ****   memset(&gc_block, 0, sizeof(parser_block_t)); // Initialize the parser block struct.
 133              		.loc 1 75 0
 134 0008 9E4C     		ldr	r4, .L254
 135 000a 2046     		mov	r0, r4
 136              	.LVL5:
 137 000c 0021     		movs	r1, #0
 138 000e 4022     		movs	r2, #64
 139 0010 FFF7FEFF 		bl	memset
 140              	.LVL6:
  76:gcode.c       ****   memcpy(&gc_block.modal,&gc_state.modal,sizeof(gc_modal_t)); // Copy current modes
 141              		.loc 1 76 0
 142 0014 9C4B     		ldr	r3, .L254+4
 143 0016 03CB     		ldmia	r3!, {r0, r1}
 144 0018 C4F80100 		str	r0, [r4, #1]	@ unaligned
 145 001c C4F80510 		str	r1, [r4, #5]	@ unaligned
 146 0020 1B88     		ldrh	r3, [r3]	@ unaligned
 147 0022 A4F80930 		strh	r3, [r4, #9]	@ unaligned
 148              	.LVL7:
  77:gcode.c       **** 
  78:gcode.c       ****   uint8_t axis_command = AXIS_COMMAND_NONE;
  79:gcode.c       ****   uint8_t axis_0, axis_1, axis_linear;
  80:gcode.c       ****   uint8_t coord_select = 0; // Tracks G10 P coordinate selection for execution
ARM GAS  C:\Users\miker\AppData\Local\Temp\cctp1tOt.s 			page 5


  81:gcode.c       **** 
  82:gcode.c       ****   // Initialize bitflag tracking variables for axis indices compatible operations.
  83:gcode.c       ****   uint8_t axis_words = 0; // XYZ tracking
  84:gcode.c       ****   uint8_t ijk_words = 0; // IJK tracking
  85:gcode.c       **** 
  86:gcode.c       ****   // Initialize command and value words and parser flags variables.
  87:gcode.c       ****   uint16_t command_words = 0; // Tracks G and M command words. Also used for modal group violations
  88:gcode.c       ****   uint16_t value_words = 0; // Tracks value words.
  89:gcode.c       ****   uint8_t gc_parser_flags = GC_PARSER_NONE;
  90:gcode.c       **** 
  91:gcode.c       ****   // Determine if the line is a jogging motion or a normal g-code block.
  92:gcode.c       ****   if (line[0] == '$') { // NOTE: `$J=` already parsed when passed to this function.
 149              		.loc 1 92 0
 150 0026 99F80030 		ldrb	r3, [r9]	@ zero_extendqisi2
 151 002a 242B     		cmp	r3, #36
 152 002c 05D1     		bne	.L174
 153              	.LVL8:
  93:gcode.c       ****     // Set G1 and G94 enforced modes to ensure accurate error checks.
  94:gcode.c       ****     gc_parser_flags |= GC_PARSER_JOG_MOTION;
  95:gcode.c       ****     gc_block.modal.motion = MOTION_MODE_LINEAR;
 154              		.loc 1 95 0
 155 002e 0123     		movs	r3, #1
 156 0030 6370     		strb	r3, [r4, #1]
  96:gcode.c       ****     gc_block.modal.feed_rate = FEED_RATE_MODE_UNITS_PER_MIN;
 157              		.loc 1 96 0
 158 0032 0021     		movs	r1, #0
 159 0034 A170     		strb	r1, [r4, #2]
  94:gcode.c       ****     gc_block.modal.motion = MOTION_MODE_LINEAR;
 160              		.loc 1 94 0
 161 0036 9A46     		mov	r10, r3
 162 0038 01E0     		b	.L11
 163              	.LVL9:
 164              	.L174:
  89:gcode.c       **** 
 165              		.loc 1 89 0
 166 003a 4FF0000A 		mov	r10, #0
 167              	.LVL10:
 168              	.L11:
  97:gcode.c       ****     #ifdef USE_LINE_NUMBERS
  98:gcode.c       ****       gc_block.values.n = JOG_LINE_NUMBER; // Initialize default line number reported during jog.
  99:gcode.c       ****     #endif
 100:gcode.c       ****   }
 101:gcode.c       **** 
 102:gcode.c       ****   /* -------------------------------------------------------------------------------------
 103:gcode.c       ****      STEP 2: Import all g-code words in the block line. A g-code word is a letter followed by
 104:gcode.c       ****      a number, which can either be a 'G'/'M' command or sets/assigns a command value. Also,
 105:gcode.c       ****      perform initial error-checks for command word modal group violations, for any repeated
 106:gcode.c       ****      words, and for negative values set for the value words F, N, P, T, and S. */
 107:gcode.c       **** 
 108:gcode.c       ****   uint8_t word_bit; // Bit-value for assigning tracking variables
 109:gcode.c       ****   uint8_t char_counter;
 110:gcode.c       ****   char letter;
 111:gcode.c       ****   float value;
 112:gcode.c       ****   uint8_t int_value = 0;
 113:gcode.c       ****   uint16_t mantissa = 0;
 114:gcode.c       ****   if (gc_parser_flags & GC_PARSER_JOG_MOTION) { char_counter = 3; } // Start parsing after `$J=`
 169              		.loc 1 114 0
ARM GAS  C:\Users\miker\AppData\Local\Temp\cctp1tOt.s 			page 6


 170 003e 1AF0010B 		ands	fp, r10, #1
 171 0042 08D0     		beq	.L12
 172              		.loc 1 114 0 is_stmt 0 discriminator 1
 173 0044 0323     		movs	r3, #3
 174 0046 8DF85F30 		strb	r3, [sp, #95]
 175              	.L14:
 115:gcode.c       ****   else { char_counter = 0; }
 116:gcode.c       **** 
 117:gcode.c       ****   while (line[char_counter] != 0) { // Loop until no more g-code words in line.
 118:gcode.c       **** 
 119:gcode.c       ****     // Import the next g-code word, expecting a letter followed by a value. Otherwise, error out.
 120:gcode.c       ****     letter = line[char_counter];
 121:gcode.c       ****     if((letter < 'A') || (letter > 'Z')) { FAIL(STATUS_EXPECTED_COMMAND_LETTER); } // [Expected wor
 122:gcode.c       ****     char_counter++;
 123:gcode.c       ****     if (!read_float(line, &char_counter, &value)) { FAIL(STATUS_BAD_NUMBER_FORMAT); } // [Expected 
 124:gcode.c       **** 
 125:gcode.c       ****     // Convert values to smaller uint8 significand and mantissa values for parsing this word.
 126:gcode.c       ****     // NOTE: Mantissa is multiplied by 100 to catch non-integer command values. This is more
 127:gcode.c       ****     // accurate than the NIST gcode requirement of x10 when used for commands, but not quite
 128:gcode.c       ****     // accurate enough for value words that require integers to within 0.0001. This should be
 129:gcode.c       ****     // a good enough comprimise and catch most all non-integer errors. To make it compliant,
 130:gcode.c       ****     // we would simply need to change the mantissa to int16, but this add compiled flash space.
 131:gcode.c       ****     // Maybe update this later.
 132:gcode.c       ****     int_value = trunc(value);
 133:gcode.c       ****     mantissa =  round(100*(value - int_value)); // Compute mantissa for Gxx.x commands.
 134:gcode.c       ****     // NOTE: Rounding must be used to catch small floating point errors.
 135:gcode.c       **** 
 136:gcode.c       ****     // Check if the g-code word is supported or errors due to modal group violations or has
 137:gcode.c       ****     // been repeated in the g-code block. If ok, update the command or record its value.
 138:gcode.c       ****     switch(letter) {
 139:gcode.c       **** 
 140:gcode.c       ****       /* 'G' and 'M' Command Words: Parse commands and check for modal group violations.
 141:gcode.c       ****          NOTE: Modal group numbers are defined in Table 4 of NIST RS274-NGC v3, pg.20 */
 142:gcode.c       **** 
 143:gcode.c       ****       case 'G':
 144:gcode.c       ****         // Determine 'G' command and its modal group
 145:gcode.c       ****         switch(int_value) {
 146:gcode.c       ****           case 10: case 28: case 30: case 92:
 147:gcode.c       ****             // Check for G10/28/30/92 being called with G0/1/2/3/38 on same block.
 148:gcode.c       ****             // * G43.1 is also an axis command but is not explicitly defined this way.
 149:gcode.c       ****             if (mantissa == 0) { // Ignore G28.1, G30.1, and G92.1
 150:gcode.c       ****               if (axis_command) { FAIL(STATUS_GCODE_AXIS_COMMAND_CONFLICT); } // [Axis word/command
 151:gcode.c       ****               axis_command = AXIS_COMMAND_NON_MODAL;
 152:gcode.c       ****             }
 153:gcode.c       ****             // No break. Continues to next line.
 154:gcode.c       ****           case 4: case 53:
 155:gcode.c       ****             word_bit = MODAL_GROUP_G0;
 156:gcode.c       ****             gc_block.non_modal_command = int_value;
 157:gcode.c       ****             if ((int_value == 28) || (int_value == 30) || (int_value == 92)) {
 158:gcode.c       ****               if (!((mantissa == 0) || (mantissa == 10))) { FAIL(STATUS_GCODE_UNSUPPORTED_COMMAND);
 159:gcode.c       ****               gc_block.non_modal_command += mantissa;
 160:gcode.c       ****               mantissa = 0; // Set to zero to indicate valid non-integer G command.
 161:gcode.c       ****             }                
 162:gcode.c       ****             break;
 163:gcode.c       ****           case 0: case 1: case 2: case 3: case 38:
 164:gcode.c       ****             // Check for G0/1/2/3/38 being called with G10/28/30/92 on same block.
 165:gcode.c       ****             // * G43.1 is also an axis command but is not explicitly defined this way.
ARM GAS  C:\Users\miker\AppData\Local\Temp\cctp1tOt.s 			page 7


 166:gcode.c       ****             if (axis_command) { FAIL(STATUS_GCODE_AXIS_COMMAND_CONFLICT); } // [Axis word/command c
 167:gcode.c       ****             axis_command = AXIS_COMMAND_MOTION_MODE;
 168:gcode.c       ****             // No break. Continues to next line.
 169:gcode.c       ****           case 80:
 170:gcode.c       ****             word_bit = MODAL_GROUP_G1;
 171:gcode.c       ****             gc_block.modal.motion = int_value;
 172:gcode.c       ****             if (int_value == 38){
 173:gcode.c       ****               if (!((mantissa == 20) || (mantissa == 30) || (mantissa == 40) || (mantissa == 50))) 
 174:gcode.c       ****                 FAIL(STATUS_GCODE_UNSUPPORTED_COMMAND); // [Unsupported G38.x command]
 175:gcode.c       ****               }
 176:gcode.c       ****               gc_block.modal.motion += (mantissa/10)+100;
 177:gcode.c       ****               mantissa = 0; // Set to zero to indicate valid non-integer G command.
 178:gcode.c       ****             }  
 179:gcode.c       ****             break;
 180:gcode.c       ****           case 17: case 18: case 19:
 181:gcode.c       ****             word_bit = MODAL_GROUP_G2;
 182:gcode.c       ****             gc_block.modal.plane_select = int_value - 17;
 183:gcode.c       ****             break;
 184:gcode.c       ****           case 90: case 91:
 185:gcode.c       ****             if (mantissa == 0) {
 186:gcode.c       ****               word_bit = MODAL_GROUP_G3;
 187:gcode.c       ****               gc_block.modal.distance = int_value - 90;
 188:gcode.c       ****             } else {
 189:gcode.c       ****               word_bit = MODAL_GROUP_G4;
 190:gcode.c       ****               if ((mantissa != 10) || (int_value == 90)) { FAIL(STATUS_GCODE_UNSUPPORTED_COMMAND); 
 191:gcode.c       ****               mantissa = 0; // Set to zero to indicate valid non-integer G command.
 192:gcode.c       ****               // Otherwise, arc IJK incremental mode is default. G91.1 does nothing.
 193:gcode.c       ****             }
 194:gcode.c       ****             break;
 195:gcode.c       ****           case 93: case 94:
 196:gcode.c       ****             word_bit = MODAL_GROUP_G5;
 197:gcode.c       ****             gc_block.modal.feed_rate = 94 - int_value;
 198:gcode.c       ****             break;
 199:gcode.c       ****           case 20: case 21:
 200:gcode.c       ****             word_bit = MODAL_GROUP_G6;
 201:gcode.c       ****             gc_block.modal.units = 21 - int_value;
 202:gcode.c       ****             break;
 203:gcode.c       ****           case 40:
 204:gcode.c       ****             word_bit = MODAL_GROUP_G7;
 205:gcode.c       ****             // NOTE: Not required since cutter radius compensation is always disabled. Only here
 206:gcode.c       ****             // to support G40 commands that often appear in g-code program headers to setup default
 207:gcode.c       ****             // gc_block.modal.cutter_comp = CUTTER_COMP_DISABLE; // G40
 208:gcode.c       ****             break;
 209:gcode.c       ****           case 43: case 49:
 210:gcode.c       ****             word_bit = MODAL_GROUP_G8;
 211:gcode.c       ****             // NOTE: The NIST g-code standard vaguely states that when a tool length offset is chan
 212:gcode.c       ****             // there cannot be any axis motion or coordinate offsets updated. Meaning G43, G43.1, a
 213:gcode.c       ****             // all are explicit axis commands, regardless if they require axis words or not.
 214:gcode.c       ****             if (axis_command) { FAIL(STATUS_GCODE_AXIS_COMMAND_CONFLICT); } // [Axis word/command c
 215:gcode.c       ****             axis_command = AXIS_COMMAND_TOOL_LENGTH_OFFSET;
 216:gcode.c       ****             if (int_value == 49) { // G49
 217:gcode.c       ****               gc_block.modal.tool_length = TOOL_LENGTH_OFFSET_CANCEL;
 218:gcode.c       ****             } else if (mantissa == 10) { // G43.1
 219:gcode.c       ****               gc_block.modal.tool_length = TOOL_LENGTH_OFFSET_ENABLE_DYNAMIC;
 220:gcode.c       ****             } else { FAIL(STATUS_GCODE_UNSUPPORTED_COMMAND); } // [Unsupported G43.x command]
 221:gcode.c       ****             mantissa = 0; // Set to zero to indicate valid non-integer G command.
 222:gcode.c       ****             break;
ARM GAS  C:\Users\miker\AppData\Local\Temp\cctp1tOt.s 			page 8


 223:gcode.c       ****           case 54: case 55: case 56: case 57: case 58: case 59:
 224:gcode.c       ****             // NOTE: G59.x are not supported. (But their int_values would be 60, 61, and 62.)
 225:gcode.c       ****             word_bit = MODAL_GROUP_G12;
 226:gcode.c       ****             gc_block.modal.coord_select = int_value - 54; // Shift to array indexing.
 227:gcode.c       ****             break;
 228:gcode.c       ****           case 61:
 229:gcode.c       ****             word_bit = MODAL_GROUP_G13;
 230:gcode.c       ****             if (mantissa != 0) { FAIL(STATUS_GCODE_UNSUPPORTED_COMMAND); } // [G61.1 not supported]
 231:gcode.c       ****             // gc_block.modal.control = CONTROL_MODE_EXACT_PATH; // G61
 232:gcode.c       ****             break;
 233:gcode.c       ****           default: FAIL(STATUS_GCODE_UNSUPPORTED_COMMAND); // [Unsupported G command]
 234:gcode.c       ****         }
 235:gcode.c       ****         if (mantissa > 0) { FAIL(STATUS_GCODE_COMMAND_VALUE_NOT_INTEGER); } // [Unsupported or inva
 236:gcode.c       ****         // Check for more than one command per modal group violations in the current block
 237:gcode.c       ****         // NOTE: Variable 'word_bit' is always assigned, if the command is valid.
 238:gcode.c       ****         if ( bit_istrue(command_words,bit(word_bit)) ) { FAIL(STATUS_GCODE_MODAL_GROUP_VIOLATION); 
 239:gcode.c       ****         command_words |= bit(word_bit);
 240:gcode.c       ****         break;
 241:gcode.c       **** 
 242:gcode.c       ****       case 'M':
 243:gcode.c       **** 
 244:gcode.c       ****         // Determine 'M' command and its modal group
 245:gcode.c       ****         if (mantissa > 0) { FAIL(STATUS_GCODE_COMMAND_VALUE_NOT_INTEGER); } // [No Mxx.x commands]
 246:gcode.c       ****         switch(int_value) {
 247:gcode.c       ****           case 0: case 1: case 2: case 30:
 248:gcode.c       ****             word_bit = MODAL_GROUP_M4;
 249:gcode.c       ****             switch(int_value) {
 250:gcode.c       ****               case 0: gc_block.modal.program_flow = PROGRAM_FLOW_PAUSED; break; // Program pause
 251:gcode.c       ****               case 1: break; // Optional stop not supported. Ignore.
 252:gcode.c       ****               default: gc_block.modal.program_flow = int_value; // Program end and reset
 253:gcode.c       ****             }
 254:gcode.c       ****             break;
 255:gcode.c       ****           #ifndef USE_SPINDLE_DIR_AS_ENABLE_PIN
 256:gcode.c       ****             case 4:
 257:gcode.c       ****           #endif
 258:gcode.c       ****           case 3: case 5:
 259:gcode.c       ****             word_bit = MODAL_GROUP_M7;
 260:gcode.c       ****             switch(int_value) {
 261:gcode.c       ****               case 3: gc_block.modal.spindle = SPINDLE_ENABLE_CW; break;
 262:gcode.c       ****               #ifndef USE_SPINDLE_DIR_AS_ENABLE_PIN
 263:gcode.c       ****                 case 4: gc_block.modal.spindle = SPINDLE_ENABLE_CCW; break;
 264:gcode.c       ****               #endif
 265:gcode.c       ****               case 5: gc_block.modal.spindle = SPINDLE_DISABLE; break;
 266:gcode.c       ****             }
 267:gcode.c       ****             break;
 268:gcode.c       ****           #ifdef ENABLE_M7
 269:gcode.c       ****             case 7: case 8: case 9:
 270:gcode.c       ****           #else
 271:gcode.c       ****             case 8: case 9:
 272:gcode.c       ****           #endif
 273:gcode.c       ****             word_bit = MODAL_GROUP_M8;
 274:gcode.c       ****             switch(int_value) {
 275:gcode.c       ****               #ifdef ENABLE_M7
 276:gcode.c       ****                 case 7: gc_block.modal.coolant = COOLANT_MIST_ENABLE; break;
 277:gcode.c       ****               #endif
 278:gcode.c       ****               case 8: gc_block.modal.coolant = COOLANT_FLOOD_ENABLE; break;
 279:gcode.c       ****               case 9: gc_block.modal.coolant = COOLANT_DISABLE; break;
ARM GAS  C:\Users\miker\AppData\Local\Temp\cctp1tOt.s 			page 9


 280:gcode.c       ****             }
 281:gcode.c       ****             break;
 282:gcode.c       ****           default: FAIL(STATUS_GCODE_UNSUPPORTED_COMMAND); // [Unsupported M command]
 283:gcode.c       ****         }
 284:gcode.c       **** 
 285:gcode.c       ****         // Check for more than one command per modal group violations in the current block
 286:gcode.c       ****         // NOTE: Variable 'word_bit' is always assigned, if the command is valid.
 287:gcode.c       ****         if ( bit_istrue(command_words,bit(word_bit)) ) { FAIL(STATUS_GCODE_MODAL_GROUP_VIOLATION); 
 288:gcode.c       ****         command_words |= bit(word_bit);
 289:gcode.c       ****         break;
 290:gcode.c       **** 
 291:gcode.c       ****       // NOTE: All remaining letters assign values.
 292:gcode.c       ****       default:
 293:gcode.c       **** 
 294:gcode.c       ****         /* Non-Command Words: This initial parsing phase only checks for repeats of the remaining
 295:gcode.c       ****            legal g-code words and stores their value. Error-checking is performed later since some
 296:gcode.c       ****            words (I,J,K,L,P,R) have multiple connotations and/or depend on the issued commands. */
 297:gcode.c       ****         switch(letter){
 298:gcode.c       ****           // case 'A': // Not supported
 299:gcode.c       ****           // case 'B': // Not supported
 300:gcode.c       ****           // case 'C': // Not supported
 301:gcode.c       ****           // case 'D': // Not supported
 302:gcode.c       ****           case 'F': word_bit = WORD_F; gc_block.values.f = value; break;
 303:gcode.c       ****           // case 'H': // Not supported
 304:gcode.c       ****           case 'I': word_bit = WORD_I; gc_block.values.ijk[X_AXIS] = value; ijk_words |= (1<<X_AXIS
 305:gcode.c       ****           case 'J': word_bit = WORD_J; gc_block.values.ijk[Y_AXIS] = value; ijk_words |= (1<<Y_AXIS
 306:gcode.c       ****           case 'K': word_bit = WORD_K; gc_block.values.ijk[Z_AXIS] = value; ijk_words |= (1<<Z_AXIS
 307:gcode.c       ****           case 'L': word_bit = WORD_L; gc_block.values.l = int_value; break;
 308:gcode.c       ****           case 'N': word_bit = WORD_N; gc_block.values.n = trunc(value); break;
 309:gcode.c       ****           case 'P': word_bit = WORD_P; gc_block.values.p = value; break;
 310:gcode.c       ****           // NOTE: For certain commands, P value must be an integer, but none of these commands are
 311:gcode.c       ****           // case 'Q': // Not supported
 312:gcode.c       ****           case 'R': word_bit = WORD_R; gc_block.values.r = value; break;
 313:gcode.c       ****           case 'S': word_bit = WORD_S; gc_block.values.s = value; break;
 314:gcode.c       ****           case 'T': word_bit = WORD_T;
 315:gcode.c       ****             if(value > MAX_TOOL_NUMBER)  { FAIL(STATUS_GCODE_MAX_VALUE_EXCEEDED); }
 316:gcode.c       ****              gc_block.values.t = int_value;
 317:gcode.c       ****  						break;
 318:gcode.c       ****           case 'X': word_bit = WORD_X; gc_block.values.xyz[X_AXIS] = value; axis_words |= (1<<X_AXI
 319:gcode.c       ****           case 'Y': word_bit = WORD_Y; gc_block.values.xyz[Y_AXIS] = value; axis_words |= (1<<Y_AXI
 320:gcode.c       ****           case 'Z': word_bit = WORD_Z; gc_block.values.xyz[Z_AXIS] = value; axis_words |= (1<<Z_AXI
 176              		.loc 1 320 0 is_stmt 1
 177 004a 0027     		movs	r7, #0
 178 004c 3E46     		mov	r6, r7
 179 004e 0997     		str	r7, [sp, #36]
 180 0050 0797     		str	r7, [sp, #28]
 181 0052 0897     		str	r7, [sp, #32]
 182 0054 29E2     		b	.L13
 183              	.L12:
 115:gcode.c       ****   else { char_counter = 0; }
 184              		.loc 1 115 0
 185 0056 0023     		movs	r3, #0
 186 0058 8DF85F30 		strb	r3, [sp, #95]
 187 005c F5E7     		b	.L14
 188              	.LVL11:
 189              	.L66:
 121:gcode.c       ****     char_counter++;
ARM GAS  C:\Users\miker\AppData\Local\Temp\cctp1tOt.s 			page 10


 190              		.loc 1 121 0
 191 005e A4F14102 		sub	r2, r4, #65
 192 0062 D2B2     		uxtb	r2, r2
 193 0064 192A     		cmp	r2, #25
 194 0066 00F2E187 		bhi	.L175
 122:gcode.c       ****     if (!read_float(line, &char_counter, &value)) { FAIL(STATUS_BAD_NUMBER_FORMAT); } // [Expected 
 195              		.loc 1 122 0
 196 006a 0133     		adds	r3, r3, #1
 197 006c 18A9     		add	r1, sp, #96
 198 006e 01F8013D 		strb	r3, [r1, #-1]!
 123:gcode.c       **** 
 199              		.loc 1 123 0
 200 0072 4846     		mov	r0, r9
 201 0074 16AA     		add	r2, sp, #88
 202 0076 FFF7FEFF 		bl	read_float
 203              	.LVL12:
 204 007a 0028     		cmp	r0, #0
 205 007c 00F0D887 		beq	.L176
 132:gcode.c       ****     mantissa =  round(100*(value - int_value)); // Compute mantissa for Gxx.x commands.
 206              		.loc 1 132 0
 207 0080 DDF85880 		ldr	r8, [sp, #88]	@ float
 208 0084 4046     		mov	r0, r8
 209 0086 FFF7FEFF 		bl	__aeabi_f2d
 210              	.LVL13:
 211 008a FFF7FEFF 		bl	trunc
 212              	.LVL14:
 213 008e FFF7FEFF 		bl	__aeabi_d2uiz
 214              	.LVL15:
 215 0092 C5B2     		uxtb	r5, r0
 216              	.LVL16:
 133:gcode.c       ****     // NOTE: Rounding must be used to catch small floating point errors.
 217              		.loc 1 133 0
 218 0094 2846     		mov	r0, r5
 219 0096 FFF7FEFF 		bl	__aeabi_i2f
 220              	.LVL17:
 221 009a 0146     		mov	r1, r0
 222 009c 4046     		mov	r0, r8
 223 009e FFF7FEFF 		bl	__aeabi_fsub
 224              	.LVL18:
 225 00a2 7A49     		ldr	r1, .L254+8
 226 00a4 FFF7FEFF 		bl	__aeabi_fmul
 227              	.LVL19:
 228 00a8 FFF7FEFF 		bl	__aeabi_f2d
 229              	.LVL20:
 230 00ac FFF7FEFF 		bl	round
 231              	.LVL21:
 232 00b0 FFF7FEFF 		bl	__aeabi_d2uiz
 233              	.LVL22:
 234 00b4 80B2     		uxth	r0, r0
 235              	.LVL23:
 138:gcode.c       **** 
 236              		.loc 1 138 0
 237 00b6 472C     		cmp	r4, #71
 238 00b8 03D0     		beq	.L17
 239 00ba 4D2C     		cmp	r4, #77
 240 00bc 00F0F980 		beq	.L18
 241 00c0 5FE1     		b	.L246
ARM GAS  C:\Users\miker\AppData\Local\Temp\cctp1tOt.s 			page 11


 242              	.L17:
 145:gcode.c       ****           case 10: case 28: case 30: case 92:
 243              		.loc 1 145 0
 244 00c2 5E2D     		cmp	r5, #94
 245 00c4 00F2B687 		bhi	.L177
 246 00c8 DFE815F0 		tbh	[pc, r5, lsl #1]
 247              	.L20:
 248 00cc 7800     		.2byte	(.L19-.L20)/2
 249 00ce 7800     		.2byte	(.L19-.L20)/2
 250 00d0 7800     		.2byte	(.L19-.L20)/2
 251 00d2 7800     		.2byte	(.L19-.L20)/2
 252 00d4 6600     		.2byte	(.L21-.L20)/2
 253 00d6 B407     		.2byte	(.L177-.L20)/2
 254 00d8 B407     		.2byte	(.L177-.L20)/2
 255 00da B407     		.2byte	(.L177-.L20)/2
 256 00dc B407     		.2byte	(.L177-.L20)/2
 257 00de B407     		.2byte	(.L177-.L20)/2
 258 00e0 5F00     		.2byte	(.L22-.L20)/2
 259 00e2 B407     		.2byte	(.L177-.L20)/2
 260 00e4 B407     		.2byte	(.L177-.L20)/2
 261 00e6 B407     		.2byte	(.L177-.L20)/2
 262 00e8 B407     		.2byte	(.L177-.L20)/2
 263 00ea B407     		.2byte	(.L177-.L20)/2
 264 00ec B407     		.2byte	(.L177-.L20)/2
 265 00ee 9600     		.2byte	(.L23-.L20)/2
 266 00f0 9600     		.2byte	(.L23-.L20)/2
 267 00f2 9600     		.2byte	(.L23-.L20)/2
 268 00f4 B000     		.2byte	(.L24-.L20)/2
 269 00f6 B000     		.2byte	(.L24-.L20)/2
 270 00f8 B407     		.2byte	(.L177-.L20)/2
 271 00fa B407     		.2byte	(.L177-.L20)/2
 272 00fc B407     		.2byte	(.L177-.L20)/2
 273 00fe B407     		.2byte	(.L177-.L20)/2
 274 0100 B407     		.2byte	(.L177-.L20)/2
 275 0102 B407     		.2byte	(.L177-.L20)/2
 276 0104 5F00     		.2byte	(.L22-.L20)/2
 277 0106 B407     		.2byte	(.L177-.L20)/2
 278 0108 5F00     		.2byte	(.L22-.L20)/2
 279 010a B407     		.2byte	(.L177-.L20)/2
 280 010c B407     		.2byte	(.L177-.L20)/2
 281 010e B407     		.2byte	(.L177-.L20)/2
 282 0110 B407     		.2byte	(.L177-.L20)/2
 283 0112 B407     		.2byte	(.L177-.L20)/2
 284 0114 B407     		.2byte	(.L177-.L20)/2
 285 0116 B407     		.2byte	(.L177-.L20)/2
 286 0118 7800     		.2byte	(.L19-.L20)/2
 287 011a B407     		.2byte	(.L177-.L20)/2
 288 011c D800     		.2byte	(.L178-.L20)/2
 289 011e B407     		.2byte	(.L177-.L20)/2
 290 0120 B407     		.2byte	(.L177-.L20)/2
 291 0122 B600     		.2byte	(.L26-.L20)/2
 292 0124 B407     		.2byte	(.L177-.L20)/2
 293 0126 B407     		.2byte	(.L177-.L20)/2
 294 0128 B407     		.2byte	(.L177-.L20)/2
 295 012a B407     		.2byte	(.L177-.L20)/2
 296 012c B407     		.2byte	(.L177-.L20)/2
 297 012e B600     		.2byte	(.L26-.L20)/2
ARM GAS  C:\Users\miker\AppData\Local\Temp\cctp1tOt.s 			page 12


 298 0130 B407     		.2byte	(.L177-.L20)/2
 299 0132 B407     		.2byte	(.L177-.L20)/2
 300 0134 B407     		.2byte	(.L177-.L20)/2
 301 0136 6600     		.2byte	(.L21-.L20)/2
 302 0138 CE00     		.2byte	(.L27-.L20)/2
 303 013a CE00     		.2byte	(.L27-.L20)/2
 304 013c CE00     		.2byte	(.L27-.L20)/2
 305 013e CE00     		.2byte	(.L27-.L20)/2
 306 0140 CE00     		.2byte	(.L27-.L20)/2
 307 0142 CE00     		.2byte	(.L27-.L20)/2
 308 0144 B407     		.2byte	(.L177-.L20)/2
 309 0146 D300     		.2byte	(.L28-.L20)/2
 310 0148 B407     		.2byte	(.L177-.L20)/2
 311 014a B407     		.2byte	(.L177-.L20)/2
 312 014c B407     		.2byte	(.L177-.L20)/2
 313 014e B407     		.2byte	(.L177-.L20)/2
 314 0150 B407     		.2byte	(.L177-.L20)/2
 315 0152 B407     		.2byte	(.L177-.L20)/2
 316 0154 B407     		.2byte	(.L177-.L20)/2
 317 0156 B407     		.2byte	(.L177-.L20)/2
 318 0158 B407     		.2byte	(.L177-.L20)/2
 319 015a B407     		.2byte	(.L177-.L20)/2
 320 015c B407     		.2byte	(.L177-.L20)/2
 321 015e B407     		.2byte	(.L177-.L20)/2
 322 0160 B407     		.2byte	(.L177-.L20)/2
 323 0162 B407     		.2byte	(.L177-.L20)/2
 324 0164 B407     		.2byte	(.L177-.L20)/2
 325 0166 B407     		.2byte	(.L177-.L20)/2
 326 0168 B407     		.2byte	(.L177-.L20)/2
 327 016a B407     		.2byte	(.L177-.L20)/2
 328 016c 7E00     		.2byte	(.L29-.L20)/2
 329 016e B407     		.2byte	(.L177-.L20)/2
 330 0170 B407     		.2byte	(.L177-.L20)/2
 331 0172 B407     		.2byte	(.L177-.L20)/2
 332 0174 B407     		.2byte	(.L177-.L20)/2
 333 0176 B407     		.2byte	(.L177-.L20)/2
 334 0178 B407     		.2byte	(.L177-.L20)/2
 335 017a B407     		.2byte	(.L177-.L20)/2
 336 017c B407     		.2byte	(.L177-.L20)/2
 337 017e B407     		.2byte	(.L177-.L20)/2
 338 0180 9B00     		.2byte	(.L30-.L20)/2
 339 0182 9B00     		.2byte	(.L30-.L20)/2
 340 0184 5F00     		.2byte	(.L22-.L20)/2
 341 0186 AA00     		.2byte	(.L31-.L20)/2
 342 0188 AA00     		.2byte	(.L31-.L20)/2
 343              		.p2align 1
 344              	.L22:
 149:gcode.c       ****               if (axis_command) { FAIL(STATUS_GCODE_AXIS_COMMAND_CONFLICT); } // [Axis word/command
 345              		.loc 1 149 0
 346 018a 28B9     		cbnz	r0, .L21
 150:gcode.c       ****               axis_command = AXIS_COMMAND_NON_MODAL;
 347              		.loc 1 150 0
 348 018c 089B     		ldr	r3, [sp, #32]
 349 018e 002B     		cmp	r3, #0
 350 0190 40F05287 		bne	.L179
 151:gcode.c       ****             }
 351              		.loc 1 151 0
ARM GAS  C:\Users\miker\AppData\Local\Temp\cctp1tOt.s 			page 13


 352 0194 0123     		movs	r3, #1
 353 0196 0893     		str	r3, [sp, #32]
 354              	.LVL24:
 355              	.L21:
 156:gcode.c       ****             if ((int_value == 28) || (int_value == 30) || (int_value == 92)) {
 356              		.loc 1 156 0
 357 0198 3A4B     		ldr	r3, .L254
 358 019a 1D70     		strb	r5, [r3]
 157:gcode.c       ****               if (!((mantissa == 0) || (mantissa == 10))) { FAIL(STATUS_GCODE_UNSUPPORTED_COMMAND);
 359              		.loc 1 157 0
 360 019c 1C2D     		cmp	r5, #28
 361 019e 03D0     		beq	.L32
 157:gcode.c       ****               if (!((mantissa == 0) || (mantissa == 10))) { FAIL(STATUS_GCODE_UNSUPPORTED_COMMAND);
 362              		.loc 1 157 0 is_stmt 0 discriminator 1
 363 01a0 1E2D     		cmp	r5, #30
 364 01a2 01D0     		beq	.L32
 157:gcode.c       ****               if (!((mantissa == 0) || (mantissa == 10))) { FAIL(STATUS_GCODE_UNSUPPORTED_COMMAND);
 365              		.loc 1 157 0 discriminator 2
 366 01a4 5C2D     		cmp	r5, #92
 367 01a6 6BD1     		bne	.L180
 368              	.L32:
 158:gcode.c       ****               gc_block.non_modal_command += mantissa;
 369              		.loc 1 158 0 is_stmt 1
 370 01a8 10B1     		cbz	r0, .L33
 158:gcode.c       ****               gc_block.non_modal_command += mantissa;
 371              		.loc 1 158 0 is_stmt 0 discriminator 1
 372 01aa 0A28     		cmp	r0, #10
 373 01ac 40F04687 		bne	.L181
 374              	.L33:
 159:gcode.c       ****               mantissa = 0; // Set to zero to indicate valid non-integer G command.
 375              		.loc 1 159 0 is_stmt 1
 376 01b0 2844     		add	r0, r0, r5
 377              	.LVL25:
 378 01b2 344B     		ldr	r3, .L254
 379 01b4 1870     		strb	r0, [r3]
 380              	.LVL26:
 160:gcode.c       ****             }                
 381              		.loc 1 160 0
 382 01b6 0020     		movs	r0, #0
 155:gcode.c       ****             gc_block.non_modal_command = int_value;
 383              		.loc 1 155 0
 384 01b8 0246     		mov	r2, r0
 385 01ba 6CE0     		b	.L25
 386              	.LVL27:
 387              	.L19:
 166:gcode.c       ****             axis_command = AXIS_COMMAND_MOTION_MODE;
 388              		.loc 1 166 0
 389 01bc 089B     		ldr	r3, [sp, #32]
 390 01be 002B     		cmp	r3, #0
 391 01c0 40F03E87 		bne	.L182
 167:gcode.c       ****             // No break. Continues to next line.
 392              		.loc 1 167 0
 393 01c4 0223     		movs	r3, #2
 394 01c6 0893     		str	r3, [sp, #32]
 395              	.LVL28:
 396              	.L29:
 171:gcode.c       ****             if (int_value == 38){
ARM GAS  C:\Users\miker\AppData\Local\Temp\cctp1tOt.s 			page 14


 397              		.loc 1 171 0
 398 01c8 2E4B     		ldr	r3, .L254
 399 01ca 5D70     		strb	r5, [r3, #1]
 172:gcode.c       ****               if (!((mantissa == 20) || (mantissa == 30) || (mantissa == 40) || (mantissa == 50))) 
 400              		.loc 1 172 0
 401 01cc 262D     		cmp	r5, #38
 402 01ce 61D1     		bne	.L183
 173:gcode.c       ****                 FAIL(STATUS_GCODE_UNSUPPORTED_COMMAND); // [Unsupported G38.x command]
 403              		.loc 1 173 0
 404 01d0 1428     		cmp	r0, #20
 405 01d2 06D0     		beq	.L34
 173:gcode.c       ****                 FAIL(STATUS_GCODE_UNSUPPORTED_COMMAND); // [Unsupported G38.x command]
 406              		.loc 1 173 0 is_stmt 0 discriminator 1
 407 01d4 1E28     		cmp	r0, #30
 408 01d6 04D0     		beq	.L34
 173:gcode.c       ****                 FAIL(STATUS_GCODE_UNSUPPORTED_COMMAND); // [Unsupported G38.x command]
 409              		.loc 1 173 0 discriminator 2
 410 01d8 2828     		cmp	r0, #40
 411 01da 02D0     		beq	.L34
 173:gcode.c       ****                 FAIL(STATUS_GCODE_UNSUPPORTED_COMMAND); // [Unsupported G38.x command]
 412              		.loc 1 173 0 discriminator 3
 413 01dc 3228     		cmp	r0, #50
 414 01de 40F03187 		bne	.L184
 415              	.L34:
 176:gcode.c       ****               mantissa = 0; // Set to zero to indicate valid non-integer G command.
 416              		.loc 1 176 0 is_stmt 1
 417 01e2 2B4B     		ldr	r3, .L254+12
 418 01e4 A3FB0023 		umull	r2, r3, r3, r0
 419 01e8 05EBD303 		add	r3, r5, r3, lsr #3
 420 01ec 6433     		adds	r3, r3, #100
 421 01ee 254A     		ldr	r2, .L254
 422 01f0 5370     		strb	r3, [r2, #1]
 423              	.LVL29:
 177:gcode.c       ****             }  
 424              		.loc 1 177 0
 425 01f2 0020     		movs	r0, #0
 170:gcode.c       ****             gc_block.modal.motion = int_value;
 426              		.loc 1 170 0
 427 01f4 0122     		movs	r2, #1
 428 01f6 4EE0     		b	.L25
 429              	.LVL30:
 430              	.L23:
 182:gcode.c       ****             break;
 431              		.loc 1 182 0
 432 01f8 113D     		subs	r5, r5, #17
 433              	.LVL31:
 434 01fa 224B     		ldr	r3, .L254
 435 01fc 5D71     		strb	r5, [r3, #5]
 181:gcode.c       ****             gc_block.modal.plane_select = int_value - 17;
 436              		.loc 1 181 0
 437 01fe 0222     		movs	r2, #2
 183:gcode.c       ****           case 90: case 91:
 438              		.loc 1 183 0
 439 0200 49E0     		b	.L25
 440              	.LVL32:
 441              	.L30:
 185:gcode.c       ****               word_bit = MODAL_GROUP_G3;
ARM GAS  C:\Users\miker\AppData\Local\Temp\cctp1tOt.s 			page 15


 442              		.loc 1 185 0
 443 0202 20B9     		cbnz	r0, .L35
 444              	.LVL33:
 187:gcode.c       ****             } else {
 445              		.loc 1 187 0
 446 0204 5A3D     		subs	r5, r5, #90
 447              	.LVL34:
 448 0206 1F4B     		ldr	r3, .L254
 449 0208 1D71     		strb	r5, [r3, #4]
 186:gcode.c       ****               gc_block.modal.distance = int_value - 90;
 450              		.loc 1 186 0
 451 020a 0322     		movs	r2, #3
 452 020c 43E0     		b	.L25
 453              	.LVL35:
 454              	.L35:
 190:gcode.c       ****               mantissa = 0; // Set to zero to indicate valid non-integer G command.
 455              		.loc 1 190 0
 456 020e 0A28     		cmp	r0, #10
 457 0210 40F01A87 		bne	.L185
 190:gcode.c       ****               mantissa = 0; // Set to zero to indicate valid non-integer G command.
 458              		.loc 1 190 0 is_stmt 0 discriminator 2
 459 0214 5A2D     		cmp	r5, #90
 460 0216 00F01987 		beq	.L186
 191:gcode.c       ****               // Otherwise, arc IJK incremental mode is default. G91.1 does nothing.
 461              		.loc 1 191 0 is_stmt 1
 462 021a 0020     		movs	r0, #0
 463              	.LVL36:
 189:gcode.c       ****               if ((mantissa != 10) || (int_value == 90)) { FAIL(STATUS_GCODE_UNSUPPORTED_COMMAND); 
 464              		.loc 1 189 0
 465 021c 0422     		movs	r2, #4
 466 021e 3AE0     		b	.L25
 467              	.LVL37:
 468              	.L31:
 197:gcode.c       ****             break;
 469              		.loc 1 197 0
 470 0220 C5F15E05 		rsb	r5, r5, #94
 471              	.LVL38:
 472 0224 174B     		ldr	r3, .L254
 473 0226 9D70     		strb	r5, [r3, #2]
 196:gcode.c       ****             gc_block.modal.feed_rate = 94 - int_value;
 474              		.loc 1 196 0
 475 0228 0522     		movs	r2, #5
 198:gcode.c       ****           case 20: case 21:
 476              		.loc 1 198 0
 477 022a 34E0     		b	.L25
 478              	.LVL39:
 479              	.L24:
 201:gcode.c       ****             break;
 480              		.loc 1 201 0
 481 022c C5F11505 		rsb	r5, r5, #21
 482              	.LVL40:
 483 0230 144B     		ldr	r3, .L254
 484 0232 DD70     		strb	r5, [r3, #3]
 200:gcode.c       ****             gc_block.modal.units = 21 - int_value;
 485              		.loc 1 200 0
 486 0234 0622     		movs	r2, #6
 202:gcode.c       ****           case 40:
ARM GAS  C:\Users\miker\AppData\Local\Temp\cctp1tOt.s 			page 16


 487              		.loc 1 202 0
 488 0236 2EE0     		b	.L25
 489              	.LVL41:
 490              	.L26:
 214:gcode.c       ****             axis_command = AXIS_COMMAND_TOOL_LENGTH_OFFSET;
 491              		.loc 1 214 0
 492 0238 089B     		ldr	r3, [sp, #32]
 493 023a 002B     		cmp	r3, #0
 494 023c 40F00887 		bne	.L187
 495              	.LVL42:
 216:gcode.c       ****               gc_block.modal.tool_length = TOOL_LENGTH_OFFSET_CANCEL;
 496              		.loc 1 216 0
 497 0240 312D     		cmp	r5, #49
 498 0242 06D1     		bne	.L36
 217:gcode.c       ****             } else if (mantissa == 10) { // G43.1
 499              		.loc 1 217 0
 500 0244 0020     		movs	r0, #0
 501              	.LVL43:
 502 0246 0F4B     		ldr	r3, .L254
 503 0248 9871     		strb	r0, [r3, #6]
 210:gcode.c       ****             // NOTE: The NIST g-code standard vaguely states that when a tool length offset is chan
 504              		.loc 1 210 0
 505 024a 0822     		movs	r2, #8
 215:gcode.c       ****             if (int_value == 49) { // G49
 506              		.loc 1 215 0
 507 024c 0323     		movs	r3, #3
 508 024e 0893     		str	r3, [sp, #32]
 509 0250 21E0     		b	.L25
 510              	.LVL44:
 511              	.L36:
 218:gcode.c       ****               gc_block.modal.tool_length = TOOL_LENGTH_OFFSET_ENABLE_DYNAMIC;
 512              		.loc 1 218 0
 513 0252 0A28     		cmp	r0, #10
 514 0254 40F0FE86 		bne	.L188
 219:gcode.c       ****             } else { FAIL(STATUS_GCODE_UNSUPPORTED_COMMAND); } // [Unsupported G43.x command]
 515              		.loc 1 219 0
 516 0258 0122     		movs	r2, #1
 517 025a 0A4B     		ldr	r3, .L254
 518 025c 9A71     		strb	r2, [r3, #6]
 221:gcode.c       ****             break;
 519              		.loc 1 221 0
 520 025e 0020     		movs	r0, #0
 521              	.LVL45:
 210:gcode.c       ****             // NOTE: The NIST g-code standard vaguely states that when a tool length offset is chan
 522              		.loc 1 210 0
 523 0260 0822     		movs	r2, #8
 215:gcode.c       ****             if (int_value == 49) { // G49
 524              		.loc 1 215 0
 525 0262 0323     		movs	r3, #3
 526 0264 0893     		str	r3, [sp, #32]
 527 0266 16E0     		b	.L25
 528              	.LVL46:
 529              	.L27:
 226:gcode.c       ****             break;
 530              		.loc 1 226 0
 531 0268 363D     		subs	r5, r5, #54
 532              	.LVL47:
ARM GAS  C:\Users\miker\AppData\Local\Temp\cctp1tOt.s 			page 17


 533 026a 064B     		ldr	r3, .L254
 534 026c DD71     		strb	r5, [r3, #7]
 225:gcode.c       ****             gc_block.modal.coord_select = int_value - 54; // Shift to array indexing.
 535              		.loc 1 225 0
 536 026e 0922     		movs	r2, #9
 227:gcode.c       ****           case 61:
 537              		.loc 1 227 0
 538 0270 11E0     		b	.L25
 539              	.LVL48:
 540              	.L28:
 230:gcode.c       ****             // gc_block.modal.control = CONTROL_MODE_EXACT_PATH; // G61
 541              		.loc 1 230 0
 542 0272 0028     		cmp	r0, #0
 543 0274 40F0F086 		bne	.L189
 229:gcode.c       ****             if (mantissa != 0) { FAIL(STATUS_GCODE_UNSUPPORTED_COMMAND); } // [G61.1 not supported]
 544              		.loc 1 229 0
 545 0278 0A22     		movs	r2, #10
 546 027a 0CE0     		b	.L25
 547              	.LVL49:
 548              	.L178:
 204:gcode.c       ****             // NOTE: Not required since cutter radius compensation is always disabled. Only here
 549              		.loc 1 204 0
 550 027c 0722     		movs	r2, #7
 551 027e 0AE0     		b	.L25
 552              	.LVL50:
 553              	.L180:
 155:gcode.c       ****             gc_block.non_modal_command = int_value;
 554              		.loc 1 155 0
 555 0280 0022     		movs	r2, #0
 556 0282 08E0     		b	.L25
 557              	.L255:
 558              		.align	2
 559              	.L254:
 560 0284 00000000 		.word	gc_block
 561 0288 00000000 		.word	gc_state
 562 028c 0000C842 		.word	1120403456
 563 0290 CDCCCCCC 		.word	-858993459
 564              	.LVL51:
 565              	.L183:
 170:gcode.c       ****             gc_block.modal.motion = int_value;
 566              		.loc 1 170 0
 567 0294 0122     		movs	r2, #1
 568              	.LVL52:
 569              	.L25:
 235:gcode.c       ****         // Check for more than one command per modal group violations in the current block
 570              		.loc 1 235 0
 571 0296 0028     		cmp	r0, #0
 572 0298 40F0E086 		bne	.L190
 238:gcode.c       ****         command_words |= bit(word_bit);
 573              		.loc 1 238 0
 574 029c 46FA02F3 		asr	r3, r6, r2
 575 02a0 13F0010F 		tst	r3, #1
 576 02a4 40F0DC86 		bne	.L191
 239:gcode.c       ****         break;
 577              		.loc 1 239 0
 578 02a8 0123     		movs	r3, #1
 579 02aa 9340     		lsls	r3, r3, r2
ARM GAS  C:\Users\miker\AppData\Local\Temp\cctp1tOt.s 			page 18


 580 02ac 1E43     		orrs	r6, r6, r3
 581              	.LVL53:
 582 02ae B6B2     		uxth	r6, r6
 583              	.LVL54:
 240:gcode.c       **** 
 584              		.loc 1 240 0
 585 02b0 FBE0     		b	.L13
 586              	.LVL55:
 587              	.L18:
 245:gcode.c       ****         switch(int_value) {
 588              		.loc 1 245 0
 589 02b2 0028     		cmp	r0, #0
 590 02b4 40F0D686 		bne	.L192
 246:gcode.c       ****           case 0: case 1: case 2: case 30:
 591              		.loc 1 246 0
 592 02b8 1E2D     		cmp	r5, #30
 593 02ba 00F2D586 		bhi	.L193
 594 02be DFE815F0 		tbh	[pc, r5, lsl #1]
 595              	.L39:
 596 02c2 1F00     		.2byte	(.L38-.L39)/2
 597 02c4 1F00     		.2byte	(.L38-.L39)/2
 598 02c6 1F00     		.2byte	(.L38-.L39)/2
 599 02c8 2C00     		.2byte	(.L40-.L39)/2
 600 02ca 2C00     		.2byte	(.L40-.L39)/2
 601 02cc 2C00     		.2byte	(.L40-.L39)/2
 602 02ce D306     		.2byte	(.L193-.L39)/2
 603 02d0 D306     		.2byte	(.L193-.L39)/2
 604 02d2 4100     		.2byte	(.L41-.L39)/2
 605 02d4 4100     		.2byte	(.L41-.L39)/2
 606 02d6 D306     		.2byte	(.L193-.L39)/2
 607 02d8 D306     		.2byte	(.L193-.L39)/2
 608 02da D306     		.2byte	(.L193-.L39)/2
 609 02dc D306     		.2byte	(.L193-.L39)/2
 610 02de D306     		.2byte	(.L193-.L39)/2
 611 02e0 D306     		.2byte	(.L193-.L39)/2
 612 02e2 D306     		.2byte	(.L193-.L39)/2
 613 02e4 D306     		.2byte	(.L193-.L39)/2
 614 02e6 D306     		.2byte	(.L193-.L39)/2
 615 02e8 D306     		.2byte	(.L193-.L39)/2
 616 02ea D306     		.2byte	(.L193-.L39)/2
 617 02ec D306     		.2byte	(.L193-.L39)/2
 618 02ee D306     		.2byte	(.L193-.L39)/2
 619 02f0 D306     		.2byte	(.L193-.L39)/2
 620 02f2 D306     		.2byte	(.L193-.L39)/2
 621 02f4 D306     		.2byte	(.L193-.L39)/2
 622 02f6 D306     		.2byte	(.L193-.L39)/2
 623 02f8 D306     		.2byte	(.L193-.L39)/2
 624 02fa D306     		.2byte	(.L193-.L39)/2
 625 02fc D306     		.2byte	(.L193-.L39)/2
 626 02fe 1F00     		.2byte	(.L38-.L39)/2
 627              		.p2align 1
 628              	.L38:
 629              	.LVL56:
 249:gcode.c       ****               case 0: gc_block.modal.program_flow = PROGRAM_FLOW_PAUSED; break; // Program pause
 630              		.loc 1 249 0
 631 0300 15B1     		cbz	r5, .L43
 632 0302 012D     		cmp	r5, #1
ARM GAS  C:\Users\miker\AppData\Local\Temp\cctp1tOt.s 			page 19


 633 0304 2DD0     		beq	.L194
 634 0306 04E0     		b	.L247
 635              	.L43:
 250:gcode.c       ****               case 1: break; // Optional stop not supported. Ignore.
 636              		.loc 1 250 0
 637 0308 0322     		movs	r2, #3
 638 030a A74B     		ldr	r3, .L256+8
 639 030c 1A72     		strb	r2, [r3, #8]
 248:gcode.c       ****             switch(int_value) {
 640              		.loc 1 248 0
 641 030e 0B22     		movs	r2, #11
 250:gcode.c       ****               case 1: break; // Optional stop not supported. Ignore.
 642              		.loc 1 250 0
 643 0310 2CE0     		b	.L44
 644              	.L247:
 252:gcode.c       ****             }
 645              		.loc 1 252 0
 646 0312 A54B     		ldr	r3, .L256+8
 647 0314 1D72     		strb	r5, [r3, #8]
 248:gcode.c       ****             switch(int_value) {
 648              		.loc 1 248 0
 649 0316 0B22     		movs	r2, #11
 650 0318 28E0     		b	.L44
 651              	.LVL57:
 652              	.L40:
 260:gcode.c       ****               case 3: gc_block.modal.spindle = SPINDLE_ENABLE_CW; break;
 653              		.loc 1 260 0
 654 031a 042D     		cmp	r5, #4
 655 031c 08D0     		beq	.L45
 656 031e 052D     		cmp	r5, #5
 657 0320 0BD0     		beq	.L46
 658 0322 032D     		cmp	r5, #3
 659 0324 1FD1     		bne	.L248
 261:gcode.c       ****               #ifndef USE_SPINDLE_DIR_AS_ENABLE_PIN
 660              		.loc 1 261 0
 661 0326 1022     		movs	r2, #16
 662 0328 9F4B     		ldr	r3, .L256+8
 663 032a 9A72     		strb	r2, [r3, #10]
 259:gcode.c       ****             switch(int_value) {
 664              		.loc 1 259 0
 665 032c 0C22     		movs	r2, #12
 261:gcode.c       ****               #ifndef USE_SPINDLE_DIR_AS_ENABLE_PIN
 666              		.loc 1 261 0
 667 032e 1DE0     		b	.L44
 668              	.L45:
 263:gcode.c       ****               #endif
 669              		.loc 1 263 0
 670 0330 2022     		movs	r2, #32
 671 0332 9D4B     		ldr	r3, .L256+8
 672 0334 9A72     		strb	r2, [r3, #10]
 259:gcode.c       ****             switch(int_value) {
 673              		.loc 1 259 0
 674 0336 0C22     		movs	r2, #12
 263:gcode.c       ****               #endif
 675              		.loc 1 263 0
 676 0338 18E0     		b	.L44
 677              	.L46:
ARM GAS  C:\Users\miker\AppData\Local\Temp\cctp1tOt.s 			page 20


 265:gcode.c       ****             }
 678              		.loc 1 265 0
 679 033a 0022     		movs	r2, #0
 680 033c 9A4B     		ldr	r3, .L256+8
 681 033e 9A72     		strb	r2, [r3, #10]
 259:gcode.c       ****             switch(int_value) {
 682              		.loc 1 259 0
 683 0340 0C22     		movs	r2, #12
 265:gcode.c       ****             }
 684              		.loc 1 265 0
 685 0342 13E0     		b	.L44
 686              	.LVL58:
 687              	.L41:
 274:gcode.c       ****               #ifdef ENABLE_M7
 688              		.loc 1 274 0
 689 0344 082D     		cmp	r5, #8
 690 0346 02D0     		beq	.L48
 691 0348 092D     		cmp	r5, #9
 692 034a 05D0     		beq	.L49
 693 034c 0DE0     		b	.L249
 694              	.L48:
 278:gcode.c       ****               case 9: gc_block.modal.coolant = COOLANT_DISABLE; break;
 695              		.loc 1 278 0
 696 034e 4022     		movs	r2, #64
 697 0350 954B     		ldr	r3, .L256+8
 698 0352 5A72     		strb	r2, [r3, #9]
 273:gcode.c       ****             switch(int_value) {
 699              		.loc 1 273 0
 700 0354 0D22     		movs	r2, #13
 278:gcode.c       ****               case 9: gc_block.modal.coolant = COOLANT_DISABLE; break;
 701              		.loc 1 278 0
 702 0356 09E0     		b	.L44
 703              	.L49:
 279:gcode.c       ****             }
 704              		.loc 1 279 0
 705 0358 0022     		movs	r2, #0
 706 035a 934B     		ldr	r3, .L256+8
 707 035c 5A72     		strb	r2, [r3, #9]
 273:gcode.c       ****             switch(int_value) {
 708              		.loc 1 273 0
 709 035e 0D22     		movs	r2, #13
 279:gcode.c       ****             }
 710              		.loc 1 279 0
 711 0360 04E0     		b	.L44
 712              	.LVL59:
 713              	.L194:
 248:gcode.c       ****             switch(int_value) {
 714              		.loc 1 248 0
 715 0362 0B22     		movs	r2, #11
 716 0364 02E0     		b	.L44
 717              	.LVL60:
 718              	.L248:
 259:gcode.c       ****             switch(int_value) {
 719              		.loc 1 259 0
 720 0366 0C22     		movs	r2, #12
 721 0368 00E0     		b	.L44
 722              	.LVL61:
ARM GAS  C:\Users\miker\AppData\Local\Temp\cctp1tOt.s 			page 21


 723              	.L249:
 273:gcode.c       ****             switch(int_value) {
 724              		.loc 1 273 0
 725 036a 0D22     		movs	r2, #13
 726              	.LVL62:
 727              	.L44:
 287:gcode.c       ****         command_words |= bit(word_bit);
 728              		.loc 1 287 0
 729 036c 46FA02F3 		asr	r3, r6, r2
 730 0370 13F0010F 		tst	r3, #1
 731 0374 40F07A86 		bne	.L197
 288:gcode.c       ****         break;
 732              		.loc 1 288 0
 733 0378 0123     		movs	r3, #1
 734 037a 9340     		lsls	r3, r3, r2
 735 037c 1E43     		orrs	r6, r6, r3
 736              	.LVL63:
 737 037e B6B2     		uxth	r6, r6
 738              	.LVL64:
 289:gcode.c       **** 
 739              		.loc 1 289 0
 740 0380 93E0     		b	.L13
 741              	.LVL65:
 742              	.L246:
 297:gcode.c       ****           // case 'A': // Not supported
 743              		.loc 1 297 0
 744 0382 463C     		subs	r4, r4, #70
 745              	.LVL66:
 746 0384 142C     		cmp	r4, #20
 747 0386 00F27386 		bhi	.L198
 748 038a DFE814F0 		tbh	[pc, r4, lsl #1]
 749              	.L51:
 750 038e 1500     		.2byte	(.L50-.L51)/2
 751 0390 7106     		.2byte	(.L198-.L51)/2
 752 0392 7106     		.2byte	(.L198-.L51)/2
 753 0394 1A00     		.2byte	(.L52-.L51)/2
 754 0396 2300     		.2byte	(.L53-.L51)/2
 755 0398 2C00     		.2byte	(.L54-.L51)/2
 756 039a 3500     		.2byte	(.L55-.L51)/2
 757 039c 7106     		.2byte	(.L198-.L51)/2
 758 039e 3900     		.2byte	(.L56-.L51)/2
 759 03a0 7106     		.2byte	(.L198-.L51)/2
 760 03a2 4000     		.2byte	(.L57-.L51)/2
 761 03a4 7106     		.2byte	(.L198-.L51)/2
 762 03a6 4500     		.2byte	(.L58-.L51)/2
 763 03a8 4A00     		.2byte	(.L59-.L51)/2
 764 03aa 4F00     		.2byte	(.L60-.L51)/2
 765 03ac 7106     		.2byte	(.L198-.L51)/2
 766 03ae 7106     		.2byte	(.L198-.L51)/2
 767 03b0 7106     		.2byte	(.L198-.L51)/2
 768 03b2 5B00     		.2byte	(.L61-.L51)/2
 769 03b4 6400     		.2byte	(.L62-.L51)/2
 770 03b6 6D00     		.2byte	(.L63-.L51)/2
 771              		.p2align 1
 772              	.L50:
 773              	.LVL67:
 302:gcode.c       ****           // case 'H': // Not supported
ARM GAS  C:\Users\miker\AppData\Local\Temp\cctp1tOt.s 			page 22


 774              		.loc 1 302 0
 775 03b8 7B4B     		ldr	r3, .L256+8
 776 03ba C3F80C80 		str	r8, [r3, #12]	@ float
 777 03be 0023     		movs	r3, #0
 778 03c0 5AE0     		b	.L64
 779              	.LVL68:
 780              	.L52:
 304:gcode.c       ****           case 'J': word_bit = WORD_J; gc_block.values.ijk[Y_AXIS] = value; ijk_words |= (1<<Y_AXIS
 781              		.loc 1 304 0
 782 03c2 794B     		ldr	r3, .L256+8
 783 03c4 C3F81080 		str	r8, [r3, #16]	@ float
 784 03c8 099B     		ldr	r3, [sp, #36]
 785 03ca 43F00103 		orr	r3, r3, #1
 786 03ce 0993     		str	r3, [sp, #36]
 787              	.LVL69:
 788 03d0 0123     		movs	r3, #1
 789 03d2 51E0     		b	.L64
 790              	.LVL70:
 791              	.L53:
 305:gcode.c       ****           case 'K': word_bit = WORD_K; gc_block.values.ijk[Z_AXIS] = value; ijk_words |= (1<<Z_AXIS
 792              		.loc 1 305 0
 793 03d4 744B     		ldr	r3, .L256+8
 794 03d6 C3F81480 		str	r8, [r3, #20]	@ float
 795 03da 099B     		ldr	r3, [sp, #36]
 796 03dc 43F00203 		orr	r3, r3, #2
 797 03e0 0993     		str	r3, [sp, #36]
 798              	.LVL71:
 799 03e2 0223     		movs	r3, #2
 800 03e4 48E0     		b	.L64
 801              	.LVL72:
 802              	.L54:
 306:gcode.c       ****           case 'L': word_bit = WORD_L; gc_block.values.l = int_value; break;
 803              		.loc 1 306 0
 804 03e6 704B     		ldr	r3, .L256+8
 805 03e8 C3F81880 		str	r8, [r3, #24]	@ float
 806 03ec 099B     		ldr	r3, [sp, #36]
 807 03ee 43F00403 		orr	r3, r3, #4
 808 03f2 0993     		str	r3, [sp, #36]
 809              	.LVL73:
 810 03f4 0323     		movs	r3, #3
 811 03f6 3FE0     		b	.L64
 812              	.LVL74:
 813              	.L55:
 307:gcode.c       ****           case 'N': word_bit = WORD_N; gc_block.values.n = trunc(value); break;
 814              		.loc 1 307 0
 815 03f8 6B4B     		ldr	r3, .L256+8
 816 03fa 1D77     		strb	r5, [r3, #28]
 817 03fc 0423     		movs	r3, #4
 818 03fe 3BE0     		b	.L64
 819              	.LVL75:
 820              	.L56:
 308:gcode.c       ****           case 'P': word_bit = WORD_P; gc_block.values.p = value; break;
 821              		.loc 1 308 0
 822 0400 4046     		mov	r0, r8
 823              	.LVL76:
 824 0402 FFF7FEFF 		bl	__aeabi_f2iz
 825              	.LVL77:
ARM GAS  C:\Users\miker\AppData\Local\Temp\cctp1tOt.s 			page 23


 826 0406 684B     		ldr	r3, .L256+8
 827 0408 1862     		str	r0, [r3, #32]
 828 040a 0523     		movs	r3, #5
 829 040c 34E0     		b	.L64
 830              	.LVL78:
 831              	.L57:
 309:gcode.c       ****           // NOTE: For certain commands, P value must be an integer, but none of these commands are
 832              		.loc 1 309 0
 833 040e 664B     		ldr	r3, .L256+8
 834 0410 C3F82480 		str	r8, [r3, #36]	@ float
 835 0414 0623     		movs	r3, #6
 836 0416 2FE0     		b	.L64
 837              	.LVL79:
 838              	.L58:
 312:gcode.c       ****           case 'S': word_bit = WORD_S; gc_block.values.s = value; break;
 839              		.loc 1 312 0
 840 0418 634B     		ldr	r3, .L256+8
 841 041a C3F82880 		str	r8, [r3, #40]	@ float
 842 041e 0723     		movs	r3, #7
 843 0420 2AE0     		b	.L64
 844              	.LVL80:
 845              	.L59:
 313:gcode.c       ****           case 'T': word_bit = WORD_T;
 846              		.loc 1 313 0
 847 0422 614B     		ldr	r3, .L256+8
 848 0424 C3F82C80 		str	r8, [r3, #44]	@ float
 849 0428 0823     		movs	r3, #8
 850 042a 25E0     		b	.L64
 851              	.LVL81:
 852              	.L60:
 315:gcode.c       ****              gc_block.values.t = int_value;
 853              		.loc 1 315 0
 854 042c 4046     		mov	r0, r8
 855              	.LVL82:
 856 042e 5F49     		ldr	r1, .L256+12
 857 0430 FFF7FEFF 		bl	__aeabi_fcmpgt
 858              	.LVL83:
 859 0434 0028     		cmp	r0, #0
 860 0436 40F01D86 		bne	.L199
 316:gcode.c       ****  						break;
 861              		.loc 1 316 0
 862 043a 5B4B     		ldr	r3, .L256+8
 863 043c 83F83050 		strb	r5, [r3, #48]
 314:gcode.c       ****             if(value > MAX_TOOL_NUMBER)  { FAIL(STATUS_GCODE_MAX_VALUE_EXCEEDED); }
 864              		.loc 1 314 0
 865 0440 0923     		movs	r3, #9
 317:gcode.c       ****           case 'X': word_bit = WORD_X; gc_block.values.xyz[X_AXIS] = value; axis_words |= (1<<X_AXI
 866              		.loc 1 317 0
 867 0442 19E0     		b	.L64
 868              	.LVL84:
 869              	.L61:
 318:gcode.c       ****           case 'Y': word_bit = WORD_Y; gc_block.values.xyz[Y_AXIS] = value; axis_words |= (1<<Y_AXI
 870              		.loc 1 318 0
 871 0444 584B     		ldr	r3, .L256+8
 872 0446 C3F83480 		str	r8, [r3, #52]	@ float
 873 044a 079B     		ldr	r3, [sp, #28]
 874 044c 43F00103 		orr	r3, r3, #1
ARM GAS  C:\Users\miker\AppData\Local\Temp\cctp1tOt.s 			page 24


 875 0450 0793     		str	r3, [sp, #28]
 876              	.LVL85:
 877 0452 0A23     		movs	r3, #10
 878 0454 10E0     		b	.L64
 879              	.LVL86:
 880              	.L62:
 319:gcode.c       ****           case 'Z': word_bit = WORD_Z; gc_block.values.xyz[Z_AXIS] = value; axis_words |= (1<<Z_AXI
 881              		.loc 1 319 0
 882 0456 544B     		ldr	r3, .L256+8
 883 0458 C3F83880 		str	r8, [r3, #56]	@ float
 884 045c 079B     		ldr	r3, [sp, #28]
 885 045e 43F00203 		orr	r3, r3, #2
 886 0462 0793     		str	r3, [sp, #28]
 887              	.LVL87:
 888 0464 0B23     		movs	r3, #11
 889 0466 07E0     		b	.L64
 890              	.LVL88:
 891              	.L63:
 892              		.loc 1 320 0
 893 0468 4F4B     		ldr	r3, .L256+8
 894 046a C3F83C80 		str	r8, [r3, #60]	@ float
 895 046e 079B     		ldr	r3, [sp, #28]
 896 0470 43F00403 		orr	r3, r3, #4
 897 0474 0793     		str	r3, [sp, #28]
 898              	.LVL89:
 899 0476 0C23     		movs	r3, #12
 900              	.LVL90:
 901              	.L64:
 321:gcode.c       ****           default: FAIL(STATUS_GCODE_UNSUPPORTED_COMMAND);
 322:gcode.c       ****         }
 323:gcode.c       **** 
 324:gcode.c       ****         // NOTE: Variable 'word_bit' is always assigned, if the non-command letter is valid.
 325:gcode.c       ****         if (bit_istrue(value_words,bit(word_bit))) { FAIL(STATUS_GCODE_WORD_REPEATED); } // [Word r
 902              		.loc 1 325 0
 903 0478 1C46     		mov	r4, r3
 904 047a 47FA03F2 		asr	r2, r7, r3
 905 047e 12F0010F 		tst	r2, #1
 906 0482 40F0F985 		bne	.L200
 326:gcode.c       ****         // Check for invalid negative values for words F, N, P, T, and S.
 327:gcode.c       ****         // NOTE: Negative value check is done here simply for code-efficiency.
 328:gcode.c       ****         if ( bit(word_bit) & (bit(WORD_F)|bit(WORD_N)|bit(WORD_P)|bit(WORD_T)|bit(WORD_S)) ) {
 907              		.loc 1 328 0
 908 0486 40F26132 		movw	r2, #865
 909 048a 42FA03F3 		asr	r3, r2, r3
 910              	.LVL91:
 911 048e 13F0010F 		tst	r3, #1
 912 0492 06D0     		beq	.L65
 329:gcode.c       ****           if (value < 0.0) { FAIL(STATUS_NEGATIVE_VALUE); } // [Word value cannot be negative]
 913              		.loc 1 329 0
 914 0494 4046     		mov	r0, r8
 915 0496 0021     		movs	r1, #0
 916 0498 FFF7FEFF 		bl	__aeabi_fcmplt
 917              	.LVL92:
 918 049c 0028     		cmp	r0, #0
 919 049e 40F0ED85 		bne	.L201
 920              	.L65:
 330:gcode.c       ****         }
ARM GAS  C:\Users\miker\AppData\Local\Temp\cctp1tOt.s 			page 25


 331:gcode.c       ****         value_words |= bit(word_bit); // Flag to indicate parameter assigned.
 921              		.loc 1 331 0
 922 04a2 0123     		movs	r3, #1
 923 04a4 A340     		lsls	r3, r3, r4
 924 04a6 1F43     		orrs	r7, r7, r3
 925              	.LVL93:
 926 04a8 BFB2     		uxth	r7, r7
 927              	.LVL94:
 928              	.L13:
 117:gcode.c       **** 
 929              		.loc 1 117 0
 930 04aa 9DF85F30 		ldrb	r3, [sp, #95]	@ zero_extendqisi2
 931 04ae 19F80340 		ldrb	r4, [r9, r3]	@ zero_extendqisi2
 932 04b2 002C     		cmp	r4, #0
 933 04b4 7FF4D3AD 		bne	.L66
 332:gcode.c       **** 
 333:gcode.c       ****     }
 334:gcode.c       ****   }
 335:gcode.c       ****   // Parsing complete!
 336:gcode.c       **** 
 337:gcode.c       **** 
 338:gcode.c       ****   /* -------------------------------------------------------------------------------------
 339:gcode.c       ****      STEP 3: Error-check all commands and values passed in this block. This step ensures all of
 340:gcode.c       ****      the commands are valid for execution and follows the NIST standard as closely as possible.
 341:gcode.c       ****      If an error is found, all commands and values in this block are dumped and will not update
 342:gcode.c       ****      the active system g-code modes. If the block is ok, the active system g-code modes will be
 343:gcode.c       ****      updated based on the commands of this block, and signal for it to be executed.
 344:gcode.c       **** 
 345:gcode.c       ****      Also, we have to pre-convert all of the values passed based on the modes set by the parsed
 346:gcode.c       ****      block. There are a number of error-checks that require target information that can only be
 347:gcode.c       ****      accurately calculated if we convert these values in conjunction with the error-checking.
 348:gcode.c       ****      This relegates the next execution step as only updating the system g-code modes and
 349:gcode.c       ****      performing the programmed actions in order. The execution step should not require any
 350:gcode.c       ****      conversion calculations and would only require minimal checks necessary to execute.
 351:gcode.c       ****   */
 352:gcode.c       **** 
 353:gcode.c       ****   /* NOTE: At this point, the g-code block has been parsed and the block line can be freed.
 354:gcode.c       ****      NOTE: It's also possible, at some future point, to break up STEP 2, to allow piece-wise
 355:gcode.c       ****      parsing of the block on a per-word basis, rather than the entire block. This could remove
 356:gcode.c       ****      the need for maintaining a large string variable for the entire block and free up some memory.
 357:gcode.c       ****      To do this, this would simply need to retain all of the data in STEP 1, such as the new block
 358:gcode.c       ****      data struct, the modal group and value bitflag tracking variables, and axis array indices
 359:gcode.c       ****      compatible variables. This data contains all of the information necessary to error-check the
 360:gcode.c       ****      new g-code block when the EOL character is received. However, this would break Grbl's startup
 361:gcode.c       ****      lines in how it currently works and would require some refactoring to make it compatible.
 362:gcode.c       ****   */
 363:gcode.c       **** 
 364:gcode.c       ****   // [0. Non-specific/common error-checks and miscellaneous setup]:
 365:gcode.c       **** 
 366:gcode.c       ****   // Determine implicit axis command conditions. Axis words have been passed, but no explicit axis
 367:gcode.c       ****   // command has been sent. If so, set axis command to current motion mode.
 368:gcode.c       ****   if (axis_words) {
 934              		.loc 1 368 0
 935 04b8 079B     		ldr	r3, [sp, #28]
 936 04ba 1BB1     		cbz	r3, .L67
 369:gcode.c       ****     if (!axis_command) { axis_command = AXIS_COMMAND_MOTION_MODE; } // Assign implicit motion-mode
 937              		.loc 1 369 0
ARM GAS  C:\Users\miker\AppData\Local\Temp\cctp1tOt.s 			page 26


 938 04bc 089B     		ldr	r3, [sp, #32]
 939 04be 0BB9     		cbnz	r3, .L67
 940 04c0 0223     		movs	r3, #2
 941 04c2 0893     		str	r3, [sp, #32]
 942              	.LVL95:
 943              	.L67:
 370:gcode.c       ****   }
 371:gcode.c       **** 
 372:gcode.c       ****   // Check for valid line number N value.
 373:gcode.c       ****   if (bit_istrue(value_words,bit(WORD_N))) {
 944              		.loc 1 373 0
 945 04c4 07F02003 		and	r3, r7, #32
 946 04c8 9BB2     		uxth	r3, r3
 947 04ca 2BB1     		cbz	r3, .L68
 374:gcode.c       ****     // Line number value cannot be less than zero (done) or greater than max line number.
 375:gcode.c       ****     if (gc_block.values.n > MAX_LINE_NUMBER) { FAIL(STATUS_GCODE_INVALID_LINE_NUMBER); } // [Exceed
 948              		.loc 1 375 0
 949 04cc 364B     		ldr	r3, .L256+8
 950 04ce 1A6A     		ldr	r2, [r3, #32]
 951 04d0 374B     		ldr	r3, .L256+16
 952 04d2 9A42     		cmp	r2, r3
 953 04d4 00F3D485 		bgt	.L203
 954              	.L68:
 376:gcode.c       ****   }
 377:gcode.c       ****   // bit_false(value_words,bit(WORD_N)); // NOTE: Single-meaning value word. Set at end of error-ch
 378:gcode.c       **** 
 379:gcode.c       ****   // Track for unused words at the end of error-checking.
 380:gcode.c       ****   // NOTE: Single-meaning value words are removed all at once at the end of error-checking, because
 381:gcode.c       ****   // they are always used when present. This was done to save a few bytes of flash. For clarity, th
 382:gcode.c       ****   // single-meaning value words may be removed as they are used. Also, axis words are treated in th
 383:gcode.c       ****   // same way. If there is an explicit/implicit axis command, XYZ words are always used and are
 384:gcode.c       ****   // are removed at the end of error-checking.
 385:gcode.c       **** 
 386:gcode.c       ****   // [1. Comments ]: MSG's NOT SUPPORTED. Comment handling performed by protocol.
 387:gcode.c       **** 
 388:gcode.c       ****   // [2. Set feed rate mode ]: G93 F word missing with G1,G2/3 active, implicitly or explicitly. Fe
 389:gcode.c       ****   //   is not defined after switching to G94 from G93.
 390:gcode.c       ****   // NOTE: For jogging, ignore prior feed rate mode. Enforce G94 and check for required F word.
 391:gcode.c       ****   if (gc_parser_flags & GC_PARSER_JOG_MOTION) {
 955              		.loc 1 391 0
 956 04d8 BBF1000F 		cmp	fp, #0
 957 04dc 14D0     		beq	.L69
 392:gcode.c       ****     if (bit_isfalse(value_words,bit(WORD_F))) { FAIL(STATUS_GCODE_UNDEFINED_FEED_RATE); }
 958              		.loc 1 392 0
 959 04de 17F0010F 		tst	r7, #1
 960 04e2 00F0CF85 		beq	.L204
 393:gcode.c       ****     if (gc_block.modal.units == UNITS_MODE_INCHES) { gc_block.values.f *= MM_PER_INCH; }
 961              		.loc 1 393 0
 962 04e6 304B     		ldr	r3, .L256+8
 963 04e8 DB78     		ldrb	r3, [r3, #3]	@ zero_extendqisi2
 964 04ea 012B     		cmp	r3, #1
 965 04ec 33D1     		bne	.L70
 966              		.loc 1 393 0 is_stmt 0 discriminator 1
 967 04ee 2E4C     		ldr	r4, .L256+8
 968 04f0 E068     		ldr	r0, [r4, #12]	@ float
 969 04f2 FFF7FEFF 		bl	__aeabi_f2d
 970              	.LVL96:
ARM GAS  C:\Users\miker\AppData\Local\Temp\cctp1tOt.s 			page 27


 971 04f6 2AA3     		adr	r3, .L256
 972 04f8 D3E90023 		ldrd	r2, [r3]
 973 04fc FFF7FEFF 		bl	__aeabi_dmul
 974              	.LVL97:
 975 0500 FFF7FEFF 		bl	__aeabi_d2f
 976              	.LVL98:
 977 0504 E060     		str	r0, [r4, #12]	@ float
 978 0506 26E0     		b	.L70
 979              	.L69:
 394:gcode.c       ****   } else {
 395:gcode.c       ****     if (gc_block.modal.feed_rate == FEED_RATE_MODE_INVERSE_TIME) { // = G93
 980              		.loc 1 395 0 is_stmt 1
 981 0508 274B     		ldr	r3, .L256+8
 982 050a 9B78     		ldrb	r3, [r3, #2]	@ zero_extendqisi2
 983 050c 012B     		cmp	r3, #1
 984 050e 07D1     		bne	.L71
 396:gcode.c       ****       // NOTE: G38 can also operate in inverse time, but is undefined as an error. Missing F word c
 397:gcode.c       ****       if (axis_command == AXIS_COMMAND_MOTION_MODE) {
 985              		.loc 1 397 0
 986 0510 089B     		ldr	r3, [sp, #32]
 987 0512 022B     		cmp	r3, #2
 988 0514 1FD1     		bne	.L70
 398:gcode.c       ****         if ((gc_block.modal.motion != MOTION_MODE_NONE) || (gc_block.modal.motion != MOTION_MODE_SE
 399:gcode.c       ****           if (bit_isfalse(value_words,bit(WORD_F))) { FAIL(STATUS_GCODE_UNDEFINED_FEED_RATE); } // 
 989              		.loc 1 399 0
 990 0516 17F0010F 		tst	r7, #1
 991 051a 00F0B585 		beq	.L205
 992 051e 1AE0     		b	.L70
 993              	.L71:
 400:gcode.c       ****         }
 401:gcode.c       ****       }
 402:gcode.c       ****       // NOTE: It seems redundant to check for an F word to be passed after switching from G94 to G
 403:gcode.c       ****       // accomplish the exact same thing if the feed rate value is always reset to zero and undefin
 404:gcode.c       ****       // inverse time block, since the commands that use this value already perform undefined check
 405:gcode.c       ****       // also allow other commands, following this switch, to execute and not error out needlessly.
 406:gcode.c       ****       // combined with the above feed rate mode and the below set feed rate error-checking.
 407:gcode.c       **** 
 408:gcode.c       ****       // [3. Set feed rate ]: F is negative (done.)
 409:gcode.c       ****       // - In inverse time mode: Always implicitly zero the feed rate value before and after block 
 410:gcode.c       ****       // NOTE: If in G93 mode or switched into it from G94, just keep F value as initialized zero o
 411:gcode.c       ****       // value in the block. If no F word is passed with a motion command that requires a feed rate
 412:gcode.c       ****       // out in the motion modes error-checking. However, if no F word is passed with NO motion com
 413:gcode.c       ****       // a feed rate, we simply move on and the state feed rate value gets updated to zero and rema
 414:gcode.c       ****     } else { // = G94
 415:gcode.c       ****       // - In units per mm mode: If F word passed, ensure value is in mm/min, otherwise push last s
 416:gcode.c       ****       if (gc_state.modal.feed_rate == FEED_RATE_MODE_UNITS_PER_MIN) { // Last state is also G94
 994              		.loc 1 416 0
 995 0520 244B     		ldr	r3, .L256+20
 996 0522 5B78     		ldrb	r3, [r3, #1]	@ zero_extendqisi2
 997 0524 BBB9     		cbnz	r3, .L70
 417:gcode.c       ****         if (bit_istrue(value_words,bit(WORD_F))) {
 998              		.loc 1 417 0
 999 0526 17F0010F 		tst	r7, #1
 1000 052a 10D0     		beq	.L72
 418:gcode.c       ****           if (gc_block.modal.units == UNITS_MODE_INCHES) { gc_block.values.f *= MM_PER_INCH; }
 1001              		.loc 1 418 0
 1002 052c 1E4B     		ldr	r3, .L256+8
ARM GAS  C:\Users\miker\AppData\Local\Temp\cctp1tOt.s 			page 28


 1003 052e DB78     		ldrb	r3, [r3, #3]	@ zero_extendqisi2
 1004 0530 012B     		cmp	r3, #1
 1005 0532 10D1     		bne	.L70
 1006              		.loc 1 418 0 is_stmt 0 discriminator 1
 1007 0534 1C4C     		ldr	r4, .L256+8
 1008 0536 E068     		ldr	r0, [r4, #12]	@ float
 1009 0538 FFF7FEFF 		bl	__aeabi_f2d
 1010              	.LVL99:
 1011 053c 18A3     		adr	r3, .L256
 1012 053e D3E90023 		ldrd	r2, [r3]
 1013 0542 FFF7FEFF 		bl	__aeabi_dmul
 1014              	.LVL100:
 1015 0546 FFF7FEFF 		bl	__aeabi_d2f
 1016              	.LVL101:
 1017 054a E060     		str	r0, [r4, #12]	@ float
 1018 054c 03E0     		b	.L70
 1019              	.L72:
 419:gcode.c       ****         } else {
 420:gcode.c       ****           gc_block.values.f = gc_state.feed_rate; // Push last state feed rate
 1020              		.loc 1 420 0 is_stmt 1
 1021 054e 194B     		ldr	r3, .L256+20
 1022 0550 1A69     		ldr	r2, [r3, #16]	@ float
 1023 0552 154B     		ldr	r3, .L256+8
 1024 0554 DA60     		str	r2, [r3, #12]	@ float
 1025              	.L70:
 421:gcode.c       ****         }
 422:gcode.c       ****       } // Else, switching to G94 from G93, so don't push last state feed rate. Its undefined or th
 423:gcode.c       ****     }
 424:gcode.c       ****   }
 425:gcode.c       ****   // bit_false(value_words,bit(WORD_F)); // NOTE: Single-meaning value word. Set at end of error-ch
 426:gcode.c       **** 
 427:gcode.c       ****   // [4. Set spindle speed ]: S is negative (done.)
 428:gcode.c       ****   if (bit_isfalse(value_words,bit(WORD_S))) { gc_block.values.s = gc_state.spindle_speed; }
 1026              		.loc 1 428 0
 1027 0556 07F48073 		and	r3, r7, #256
 1028 055a 9BB2     		uxth	r3, r3
 1029 055c 1BB9     		cbnz	r3, .L73
 1030              		.loc 1 428 0 is_stmt 0 discriminator 1
 1031 055e 154B     		ldr	r3, .L256+20
 1032 0560 DA68     		ldr	r2, [r3, #12]	@ float
 1033 0562 114B     		ldr	r3, .L256+8
 1034 0564 DA62     		str	r2, [r3, #44]	@ float
 1035              	.L73:
 429:gcode.c       ****   // bit_false(value_words,bit(WORD_S)); // NOTE: Single-meaning value word. Set at end of error-ch
 430:gcode.c       **** 
 431:gcode.c       ****   // [5. Select tool ]: NOT SUPPORTED. Only tracks value. T is negative (done.) Not an integer. Gre
 432:gcode.c       ****   // bit_false(value_words,bit(WORD_T)); // NOTE: Single-meaning value word. Set at end of error-ch
 433:gcode.c       **** 
 434:gcode.c       ****   // [6. Change tool ]: N/A
 435:gcode.c       ****   // [7. Spindle control ]: N/A
 436:gcode.c       ****   // [8. Coolant control ]: N/A
 437:gcode.c       ****   // [9. Enable/disable feed rate or spindle overrides ]: NOT SUPPORTED.
 438:gcode.c       **** 
 439:gcode.c       ****   // [10. Dwell ]: P value missing. P is negative (done.) NOTE: See below.
 440:gcode.c       ****   if (gc_block.non_modal_command == NON_MODAL_DWELL) {
 1036              		.loc 1 440 0 is_stmt 1
 1037 0566 104B     		ldr	r3, .L256+8
ARM GAS  C:\Users\miker\AppData\Local\Temp\cctp1tOt.s 			page 29


 1038 0568 1B78     		ldrb	r3, [r3]	@ zero_extendqisi2
 1039 056a 042B     		cmp	r3, #4
 1040 056c 08D1     		bne	.L74
 441:gcode.c       ****     if (bit_isfalse(value_words,bit(WORD_P))) { FAIL(STATUS_GCODE_VALUE_WORD_MISSING); } // [P word
 1041              		.loc 1 441 0
 1042 056e 07F04003 		and	r3, r7, #64
 1043 0572 9BB2     		uxth	r3, r3
 1044 0574 002B     		cmp	r3, #0
 1045 0576 00F09985 		beq	.L206
 442:gcode.c       ****     bit_false(value_words,bit(WORD_P));
 1046              		.loc 1 442 0
 1047 057a 27F04007 		bic	r7, r7, #64
 1048              	.LVL102:
 1049 057e BFB2     		uxth	r7, r7
 1050              	.LVL103:
 1051              	.L74:
 443:gcode.c       ****   }
 444:gcode.c       **** 
 445:gcode.c       ****   // [11. Set active plane ]: N/A
 446:gcode.c       ****   switch (gc_block.modal.plane_select) {
 1052              		.loc 1 446 0
 1053 0580 094B     		ldr	r3, .L256+8
 1054 0582 5B79     		ldrb	r3, [r3, #5]	@ zero_extendqisi2
 1055 0584 13B1     		cbz	r3, .L76
 1056 0586 012B     		cmp	r3, #1
 1057 0588 1DD0     		beq	.L207
 1058 058a 15E0     		b	.L250
 1059              	.L76:
 447:gcode.c       ****     case PLANE_SELECT_XY:
 448:gcode.c       ****       axis_0 = X_AXIS;
 449:gcode.c       ****       axis_1 = Y_AXIS;
 450:gcode.c       ****       axis_linear = Z_AXIS;
 1060              		.loc 1 450 0
 1061 058c 0223     		movs	r3, #2
 1062 058e 0C93     		str	r3, [sp, #48]
 449:gcode.c       ****       axis_linear = Z_AXIS;
 1063              		.loc 1 449 0
 1064 0590 0123     		movs	r3, #1
 1065 0592 0A93     		str	r3, [sp, #40]
 448:gcode.c       ****       axis_1 = Y_AXIS;
 1066              		.loc 1 448 0
 1067 0594 4FF0000B 		mov	fp, #0
 1068 0598 1BE0     		b	.L77
 1069              	.L257:
 1070 059a 00BFAFF3 		.align	3
 1070      0080
 1071              	.L256:
 1072 05a0 66666666 		.word	1717986918
 1073 05a4 66663940 		.word	1077503590
 1074 05a8 00000000 		.word	gc_block
 1075 05ac 00007F43 		.word	1132396544
 1076 05b0 80969800 		.word	10000000
 1077 05b4 00000000 		.word	gc_state
 1078              	.L250:
 1079              	.LVL104:
 451:gcode.c       ****       break;
 452:gcode.c       ****     case PLANE_SELECT_ZX:
ARM GAS  C:\Users\miker\AppData\Local\Temp\cctp1tOt.s 			page 30


 453:gcode.c       ****       axis_0 = Z_AXIS;
 454:gcode.c       ****       axis_1 = X_AXIS;
 455:gcode.c       ****       axis_linear = Y_AXIS;
 456:gcode.c       ****       break;
 457:gcode.c       ****     default: // case PLANE_SELECT_YZ:
 458:gcode.c       ****       axis_0 = Y_AXIS;
 459:gcode.c       ****       axis_1 = Z_AXIS;
 460:gcode.c       ****       axis_linear = X_AXIS;
 1080              		.loc 1 460 0
 1081 05b8 0023     		movs	r3, #0
 1082 05ba 0C93     		str	r3, [sp, #48]
 459:gcode.c       ****       axis_linear = X_AXIS;
 1083              		.loc 1 459 0
 1084 05bc 0223     		movs	r3, #2
 1085 05be 0A93     		str	r3, [sp, #40]
 458:gcode.c       ****       axis_1 = Z_AXIS;
 1086              		.loc 1 458 0
 1087 05c0 4FF0010B 		mov	fp, #1
 1088 05c4 05E0     		b	.L77
 1089              	.LVL105:
 1090              	.L207:
 455:gcode.c       ****       break;
 1091              		.loc 1 455 0
 1092 05c6 0123     		movs	r3, #1
 1093 05c8 0C93     		str	r3, [sp, #48]
 454:gcode.c       ****       axis_linear = Y_AXIS;
 1094              		.loc 1 454 0
 1095 05ca 0023     		movs	r3, #0
 1096 05cc 0A93     		str	r3, [sp, #40]
 453:gcode.c       ****       axis_1 = X_AXIS;
 1097              		.loc 1 453 0
 1098 05ce 4FF0020B 		mov	fp, #2
 1099              	.L77:
 1100              	.LVL106:
 461:gcode.c       ****   }
 462:gcode.c       **** 
 463:gcode.c       ****   // [12. Set length units ]: N/A
 464:gcode.c       ****   // Pre-convert XYZ coordinate values to millimeters, if applicable.
 465:gcode.c       ****   uint8_t idx;
 466:gcode.c       ****   if (gc_block.modal.units == UNITS_MODE_INCHES) {
 1101              		.loc 1 466 0
 1102 05d2 B14B     		ldr	r3, .L258+8
 1103 05d4 DB78     		ldrb	r3, [r3, #3]	@ zero_extendqisi2
 1104 05d6 012B     		cmp	r3, #1
 1105 05d8 1DD1     		bne	.L79
 1106 05da 17E0     		b	.L208
 1107              	.LVL107:
 1108              	.L81:
 467:gcode.c       ****     for (idx=0; idx<N_AXIS; idx++) { // Axes indices are consistent, so loop may be used.
 468:gcode.c       ****       if (bit_istrue(axis_words,bit(idx)) ) {
 1109              		.loc 1 468 0
 1110 05dc 48FA04F3 		asr	r3, r8, r4
 1111 05e0 13F0010F 		tst	r3, #1
 1112 05e4 0FD0     		beq	.L80
 469:gcode.c       ****         gc_block.values.xyz[idx] *= MM_PER_INCH;
 1113              		.loc 1 469 0
 1114 05e6 04F10C05 		add	r5, r4, #12
ARM GAS  C:\Users\miker\AppData\Local\Temp\cctp1tOt.s 			page 31


 1115 05ea AB4B     		ldr	r3, .L258+8
 1116 05ec 03EB8505 		add	r5, r3, r5, lsl #2
 1117 05f0 6868     		ldr	r0, [r5, #4]	@ float
 1118 05f2 FFF7FEFF 		bl	__aeabi_f2d
 1119              	.LVL108:
 1120 05f6 A6A3     		adr	r3, .L258
 1121 05f8 D3E90023 		ldrd	r2, [r3]
 1122 05fc FFF7FEFF 		bl	__aeabi_dmul
 1123              	.LVL109:
 1124 0600 FFF7FEFF 		bl	__aeabi_d2f
 1125              	.LVL110:
 1126 0604 6860     		str	r0, [r5, #4]	@ float
 1127              	.L80:
 467:gcode.c       ****     for (idx=0; idx<N_AXIS; idx++) { // Axes indices are consistent, so loop may be used.
 1128              		.loc 1 467 0 discriminator 2
 1129 0606 0134     		adds	r4, r4, #1
 1130              	.LVL111:
 1131 0608 E4B2     		uxtb	r4, r4
 1132              	.LVL112:
 1133 060a 02E0     		b	.L78
 1134              	.LVL113:
 1135              	.L208:
 1136 060c 0024     		movs	r4, #0
 1137 060e DDF81C80 		ldr	r8, [sp, #28]
 1138              	.L78:
 1139              	.LVL114:
 467:gcode.c       ****     for (idx=0; idx<N_AXIS; idx++) { // Axes indices are consistent, so loop may be used.
 1140              		.loc 1 467 0 is_stmt 0 discriminator 1
 1141 0612 022C     		cmp	r4, #2
 1142 0614 E2D9     		bls	.L81
 1143              	.LVL115:
 1144              	.L79:
 470:gcode.c       ****       }
 471:gcode.c       ****     }
 472:gcode.c       ****   }
 473:gcode.c       **** 
 474:gcode.c       ****   // [13. Cutter radius compensation ]: G41/42 NOT SUPPORTED. Error, if enabled while G53 is active
 475:gcode.c       ****   // [G40 Errors]: G2/3 arc is programmed after a G40. The linear move after disabling is less than
 476:gcode.c       ****   //   NOTE: Since cutter radius compensation is never enabled, these G40 errors don't apply. Grbl 
 477:gcode.c       ****   //   only for the purpose to not error when G40 is sent with a g-code program header to setup the
 478:gcode.c       **** 
 479:gcode.c       ****   // [14. Cutter length compensation ]: G43 NOT SUPPORTED, but G43.1 and G49 are.
 480:gcode.c       ****   // [G43.1 Errors]: Motion command in same line.
 481:gcode.c       ****   //   NOTE: Although not explicitly stated so, G43.1 should be applied to only one valid
 482:gcode.c       ****   //   axis that is configured (in config.h). There should be an error if the configured axis
 483:gcode.c       ****   //   is absent or if any of the other axis words are present.
 484:gcode.c       ****   if (axis_command == AXIS_COMMAND_TOOL_LENGTH_OFFSET ) { // Indicates called in block.
 1145              		.loc 1 484 0 is_stmt 1
 1146 0616 089B     		ldr	r3, [sp, #32]
 1147 0618 032B     		cmp	r3, #3
 1148 061a 07D1     		bne	.L82
 485:gcode.c       ****     if (gc_block.modal.tool_length == TOOL_LENGTH_OFFSET_ENABLE_DYNAMIC) {
 1149              		.loc 1 485 0
 1150 061c 9E4B     		ldr	r3, .L258+8
 1151 061e 9B79     		ldrb	r3, [r3, #6]	@ zero_extendqisi2
 1152 0620 012B     		cmp	r3, #1
 1153 0622 03D1     		bne	.L82
ARM GAS  C:\Users\miker\AppData\Local\Temp\cctp1tOt.s 			page 32


 486:gcode.c       ****       if (axis_words ^ (1<<TOOL_LENGTH_OFFSET_AXIS)) { FAIL(STATUS_GCODE_G43_DYNAMIC_AXIS_ERROR); }
 1154              		.loc 1 486 0
 1155 0624 079B     		ldr	r3, [sp, #28]
 1156 0626 042B     		cmp	r3, #4
 1157 0628 40F04285 		bne	.L209
 1158              	.L82:
 487:gcode.c       ****     }
 488:gcode.c       ****   }
 489:gcode.c       **** 
 490:gcode.c       ****   // [15. Coordinate system selection ]: *N/A. Error, if cutter radius comp is active.
 491:gcode.c       ****   // TODO: An EEPROM read of the coordinate data may require a buffer sync when the cycle
 492:gcode.c       ****   // is active. The read pauses the processor temporarily and may cause a rare crash. For
 493:gcode.c       ****   // future versions on processors with enough memory, all coordinate data should be stored
 494:gcode.c       ****   // in memory and written to EEPROM only when there is not a cycle active.
 495:gcode.c       ****   float block_coord_system[N_AXIS];
 496:gcode.c       ****   memcpy(block_coord_system,gc_state.coord_system,sizeof(gc_state.coord_system));
 1159              		.loc 1 496 0
 1160 062c 13AB     		add	r3, sp, #76
 1161 062e 9B4A     		ldr	r2, .L258+12
 1162 0630 07CA     		ldmia	r2, {r0, r1, r2}
 1163 0632 83E80700 		stmia	r3, {r0, r1, r2}
 497:gcode.c       ****   if ( bit_istrue(command_words,bit(MODAL_GROUP_G12)) ) { // Check if called in block
 1164              		.loc 1 497 0
 1165 0636 06F40073 		and	r3, r6, #512
 1166 063a 9BB2     		uxth	r3, r3
 1167 063c 73B1     		cbz	r3, .L83
 498:gcode.c       ****     if (gc_block.modal.coord_select > N_COORDINATE_SYSTEM) { FAIL(STATUS_GCODE_UNSUPPORTED_COORD_SY
 1168              		.loc 1 498 0
 1169 063e 964B     		ldr	r3, .L258+8
 1170 0640 D879     		ldrb	r0, [r3, #7]	@ zero_extendqisi2
 1171 0642 0628     		cmp	r0, #6
 1172 0644 00F23685 		bhi	.L210
 499:gcode.c       ****     if (gc_state.modal.coord_select != gc_block.modal.coord_select) {
 1173              		.loc 1 499 0
 1174 0648 954B     		ldr	r3, .L258+16
 1175 064a 9B79     		ldrb	r3, [r3, #6]	@ zero_extendqisi2
 1176 064c 9842     		cmp	r0, r3
 1177 064e 05D0     		beq	.L83
 500:gcode.c       ****       if (!(settings_read_coord_data(gc_block.modal.coord_select,block_coord_system))) { FAIL(STATU
 1178              		.loc 1 500 0
 1179 0650 13A9     		add	r1, sp, #76
 1180 0652 FFF7FEFF 		bl	settings_read_coord_data
 1181              	.LVL116:
 1182 0656 0028     		cmp	r0, #0
 1183 0658 00F02E85 		beq	.L211
 1184              	.L83:
 501:gcode.c       ****     }
 502:gcode.c       ****   }
 503:gcode.c       **** 
 504:gcode.c       ****   // [16. Set path control mode ]: N/A. Only G61. G61.1 and G64 NOT SUPPORTED.
 505:gcode.c       ****   // [17. Set distance mode ]: N/A. Only G91.1. G90.1 NOT SUPPORTED.
 506:gcode.c       ****   // [18. Set retract mode ]: NOT SUPPORTED.
 507:gcode.c       **** 
 508:gcode.c       ****   // [19. Remaining non-modal actions ]: Check go to predefined position, set G10, or set axis offs
 509:gcode.c       ****   // NOTE: We need to separate the non-modal commands that are axis word-using (G10/G28/G30/G92), a
 510:gcode.c       ****   // commands all treat axis words differently. G10 as absolute offsets or computes current positio
 511:gcode.c       ****   // the axis value, G92 similarly to G10 L20, and G28/30 as an intermediate target position that o
ARM GAS  C:\Users\miker\AppData\Local\Temp\cctp1tOt.s 			page 33


 512:gcode.c       ****   // all the current coordinate system and G92 offsets.
 513:gcode.c       ****   switch (gc_block.non_modal_command) {
 1185              		.loc 1 513 0
 1186 065c 8E4B     		ldr	r3, .L258+8
 1187 065e 1D78     		ldrb	r5, [r3]	@ zero_extendqisi2
 1188 0660 0A2D     		cmp	r5, #10
 1189 0662 02D0     		beq	.L85
 1190 0664 5C2D     		cmp	r5, #92
 1191 0666 72D0     		beq	.L86
 1192 0668 ADE0     		b	.L251
 1193              	.L85:
 514:gcode.c       ****     case NON_MODAL_SET_COORDINATE_DATA:
 515:gcode.c       ****       // [G10 Errors]: L missing and is not 2 or 20. P word missing. (Negative P value done.)
 516:gcode.c       ****       // [G10 L2 Errors]: R word NOT SUPPORTED. P value not 0 to nCoordSys(max 9). Axis words missi
 517:gcode.c       ****       // [G10 L20 Errors]: P must be 0 to nCoordSys(max 9). Axis words missing.
 518:gcode.c       ****       if (!axis_words) { FAIL(STATUS_GCODE_NO_AXIS_WORDS) }; // [No axis words]
 1194              		.loc 1 518 0
 1195 066a 079B     		ldr	r3, [sp, #28]
 1196 066c 002B     		cmp	r3, #0
 1197 066e 00F02585 		beq	.L212
 519:gcode.c       ****       if (bit_isfalse(value_words,((1<<WORD_P)|(1<<WORD_L)))) { FAIL(STATUS_GCODE_VALUE_WORD_MISSIN
 1198              		.loc 1 519 0
 1199 0672 17F0500F 		tst	r7, #80
 1200 0676 00F02385 		beq	.L213
 520:gcode.c       ****       coord_select = trunc(gc_block.values.p); // Convert p value to int.
 1201              		.loc 1 520 0
 1202 067a 874B     		ldr	r3, .L258+8
 1203 067c 586A     		ldr	r0, [r3, #36]	@ float
 1204 067e FFF7FEFF 		bl	__aeabi_f2d
 1205              	.LVL117:
 1206 0682 FFF7FEFF 		bl	trunc
 1207              	.LVL118:
 1208 0686 FFF7FEFF 		bl	__aeabi_d2uiz
 1209              	.LVL119:
 1210 068a C0B2     		uxtb	r0, r0
 1211              	.LVL120:
 521:gcode.c       ****       if (coord_select > N_COORDINATE_SYSTEM) { FAIL(STATUS_GCODE_UNSUPPORTED_COORD_SYS); } // [Gre
 1212              		.loc 1 521 0
 1213 068c 0628     		cmp	r0, #6
 1214 068e 00F21985 		bhi	.L214
 522:gcode.c       ****       if (gc_block.values.l != 20) {
 1215              		.loc 1 522 0
 1216 0692 814B     		ldr	r3, .L258+8
 1217 0694 1B7F     		ldrb	r3, [r3, #28]	@ zero_extendqisi2
 1218 0696 142B     		cmp	r3, #20
 1219 0698 08D0     		beq	.L87
 523:gcode.c       ****         if (gc_block.values.l == 2) {
 1220              		.loc 1 523 0
 1221 069a 022B     		cmp	r3, #2
 1222 069c 40F01485 		bne	.L215
 524:gcode.c       ****           if (bit_istrue(value_words,bit(WORD_R))) { FAIL(STATUS_GCODE_UNSUPPORTED_COMMAND); } // [
 1223              		.loc 1 524 0
 1224 06a0 07F08003 		and	r3, r7, #128
 1225 06a4 9BB2     		uxth	r3, r3
 1226 06a6 002B     		cmp	r3, #0
 1227 06a8 40F01085 		bne	.L216
 1228              	.L87:
ARM GAS  C:\Users\miker\AppData\Local\Temp\cctp1tOt.s 			page 34


 525:gcode.c       ****         } else { FAIL(STATUS_GCODE_UNSUPPORTED_COMMAND); } // [Unsupported L]
 526:gcode.c       ****       }
 527:gcode.c       ****       bit_false(value_words,(bit(WORD_L)|bit(WORD_P)));
 1229              		.loc 1 527 0
 1230 06ac 27F05007 		bic	r7, r7, #80
 1231              	.LVL121:
 1232 06b0 BFB2     		uxth	r7, r7
 1233              	.LVL122:
 528:gcode.c       **** 
 529:gcode.c       ****       // Determine coordinate system to change and try to load from EEPROM.
 530:gcode.c       ****       if (coord_select > 0) { coord_select--; } // Adjust P1-P6 index to EEPROM coordinate data ind
 1234              		.loc 1 530 0
 1235 06b2 18B1     		cbz	r0, .L88
 1236              		.loc 1 530 0 is_stmt 0 discriminator 1
 1237 06b4 0138     		subs	r0, r0, #1
 1238              	.LVL123:
 1239 06b6 C3B2     		uxtb	r3, r0
 1240 06b8 0B93     		str	r3, [sp, #44]
 1241              	.LVL124:
 1242 06ba 02E0     		b	.L89
 1243              	.LVL125:
 1244              	.L88:
 531:gcode.c       ****       else { coord_select = gc_block.modal.coord_select; } // Index P0 as the active coordinate sys
 1245              		.loc 1 531 0 is_stmt 1
 1246 06bc 764B     		ldr	r3, .L258+8
 1247 06be DB79     		ldrb	r3, [r3, #7]	@ zero_extendqisi2
 1248 06c0 0B93     		str	r3, [sp, #44]
 1249              	.LVL126:
 1250              	.L89:
 532:gcode.c       ****       
 533:gcode.c       ****       // NOTE: Store parameter data in IJK values. By rule, they are not in use with this command.
 534:gcode.c       ****       if (!settings_read_coord_data(coord_select,gc_block.values.ijk)) { FAIL(STATUS_SETTING_READ_F
 1251              		.loc 1 534 0
 1252 06c2 0B98     		ldr	r0, [sp, #44]
 1253 06c4 7749     		ldr	r1, .L258+20
 1254 06c6 FFF7FEFF 		bl	settings_read_coord_data
 1255              	.LVL127:
 1256 06ca 0028     		cmp	r0, #0
 1257 06cc 00F00085 		beq	.L217
 1258 06d0 4FF00009 		mov	r9, #0
 1259              	.LVL128:
 1260 06d4 37E0     		b	.L90
 1261              	.LVL129:
 1262              	.L93:
 535:gcode.c       **** 
 536:gcode.c       ****       // Pre-calculate the coordinate data changes.
 537:gcode.c       ****       for (idx=0; idx<N_AXIS; idx++) { // Axes indices are consistent, so loop may be used.
 538:gcode.c       ****         // Update axes defined only in block. Always in machine coordinates. Can change non-active 
 539:gcode.c       ****         if (bit_istrue(axis_words,bit(idx)) ) {
 1263              		.loc 1 539 0
 1264 06d6 4C46     		mov	r4, r9
 1265 06d8 079B     		ldr	r3, [sp, #28]
 1266 06da 43FA09F3 		asr	r3, r3, r9
 1267 06de 13F0010F 		tst	r3, #1
 1268 06e2 2CD0     		beq	.L91
 540:gcode.c       ****           if (gc_block.values.l == 20) {
 1269              		.loc 1 540 0
ARM GAS  C:\Users\miker\AppData\Local\Temp\cctp1tOt.s 			page 35


 1270 06e4 6C4B     		ldr	r3, .L258+8
 1271 06e6 1B7F     		ldrb	r3, [r3, #28]	@ zero_extendqisi2
 1272 06e8 142B     		cmp	r3, #20
 1273 06ea 21D1     		bne	.L92
 541:gcode.c       ****             // L20: Update coordinate system axis at current position (with modifiers) with program
 542:gcode.c       ****             // WPos = MPos - WCS - G92 - TLO  ->  WCS = MPos - G92 - TLO - WPos
 543:gcode.c       ****             gc_block.values.ijk[idx] = gc_state.position[idx]-gc_state.coord_offset[idx]-gc_block.v
 1274              		.loc 1 543 0
 1275 06ec 6C4B     		ldr	r3, .L258+16
 1276 06ee 03EB8902 		add	r2, r3, r9, lsl #2
 1277 06f2 09F10C05 		add	r5, r9, #12
 1278 06f6 AD00     		lsls	r5, r5, #2
 1279 06f8 2B44     		add	r3, r3, r5
 1280 06fa D069     		ldr	r0, [r2, #28]	@ float
 1281 06fc 5968     		ldr	r1, [r3, #4]	@ float
 1282 06fe FFF7FEFF 		bl	__aeabi_fsub
 1283              	.LVL130:
 1284 0702 DFF89481 		ldr	r8, .L258+8
 1285 0706 4544     		add	r5, r5, r8
 1286 0708 6968     		ldr	r1, [r5, #4]	@ float
 1287 070a FFF7FEFF 		bl	__aeabi_fsub
 1288              	.LVL131:
 1289 070e 08EB8908 		add	r8, r8, r9, lsl #2
 1290 0712 C8F81000 		str	r0, [r8, #16]	@ float
 544:gcode.c       ****             if (idx == TOOL_LENGTH_OFFSET_AXIS) { gc_block.values.ijk[idx] -= gc_state.tool_length_
 1291              		.loc 1 544 0
 1292 0716 B9F1020F 		cmp	r9, #2
 1293 071a 10D1     		bne	.L91
 1294              		.loc 1 544 0 is_stmt 0 discriminator 1
 1295 071c 0234     		adds	r4, r4, #2
 1296 071e 5E4B     		ldr	r3, .L258+8
 1297 0720 03EB8404 		add	r4, r3, r4, lsl #2
 1298 0724 5E4B     		ldr	r3, .L258+16
 1299 0726 196C     		ldr	r1, [r3, #64]	@ float
 1300 0728 FFF7FEFF 		bl	__aeabi_fsub
 1301              	.LVL132:
 1302 072c A060     		str	r0, [r4, #8]	@ float
 1303 072e 06E0     		b	.L91
 1304              	.L92:
 545:gcode.c       ****           } else {
 546:gcode.c       ****             // L2: Update coordinate system axis to programmed value.
 547:gcode.c       ****             gc_block.values.ijk[idx] = gc_block.values.xyz[idx];
 1305              		.loc 1 547 0 is_stmt 1
 1306 0730 594B     		ldr	r3, .L258+8
 1307 0732 03EB8902 		add	r2, r3, r9, lsl #2
 1308 0736 526B     		ldr	r2, [r2, #52]	@ float
 1309 0738 03EB8903 		add	r3, r3, r9, lsl #2
 1310 073c 1A61     		str	r2, [r3, #16]	@ float
 1311              	.L91:
 537:gcode.c       ****         // Update axes defined only in block. Always in machine coordinates. Can change non-active 
 1312              		.loc 1 537 0 discriminator 2
 1313 073e 09F10109 		add	r9, r9, #1
 1314              	.LVL133:
 1315 0742 5FFA89F9 		uxtb	r9, r9
 1316              	.LVL134:
 1317              	.L90:
 537:gcode.c       ****         // Update axes defined only in block. Always in machine coordinates. Can change non-active 
ARM GAS  C:\Users\miker\AppData\Local\Temp\cctp1tOt.s 			page 36


 1318              		.loc 1 537 0 is_stmt 0 discriminator 1
 1319 0746 B9F1020F 		cmp	r9, #2
 1320 074a C4D9     		bls	.L93
 1321 074c D8E0     		b	.L94
 1322              	.LVL135:
 1323              	.L86:
 548:gcode.c       ****           }
 549:gcode.c       ****         } // Else, keep current stored value.
 550:gcode.c       ****       }
 551:gcode.c       ****       break;
 552:gcode.c       ****     case NON_MODAL_SET_COORDINATE_OFFSET:
 553:gcode.c       ****       // [G92 Errors]: No axis words.
 554:gcode.c       ****       if (!axis_words) { FAIL(STATUS_GCODE_NO_AXIS_WORDS); } // [No axis words]
 1324              		.loc 1 554 0 is_stmt 1
 1325 074e 079B     		ldr	r3, [sp, #28]
 1326 0750 002B     		cmp	r3, #0
 1327 0752 00F0BF84 		beq	.L218
 1328 0756 0024     		movs	r4, #0
 1329 0758 30E0     		b	.L95
 1330              	.LVL136:
 1331              	.L98:
 555:gcode.c       **** 
 556:gcode.c       ****       // Update axes defined only in block. Offsets current system to defined value. Does not updat
 557:gcode.c       ****       // active coordinate system is selected, but is still active unless G92.1 disables it.
 558:gcode.c       ****       for (idx=0; idx<N_AXIS; idx++) { // Axes indices are consistent, so loop may be used.
 559:gcode.c       ****         if (bit_istrue(axis_words,bit(idx)) ) {
 1332              		.loc 1 559 0
 1333 075a 079B     		ldr	r3, [sp, #28]
 1334 075c 2341     		asrs	r3, r3, r4
 1335 075e 13F0010F 		tst	r3, #1
 1336 0762 20D0     		beq	.L96
 560:gcode.c       ****           // WPos = MPos - WCS - G92 - TLO  ->  G92 = MPos - WCS - TLO - WPos
 561:gcode.c       ****           gc_block.values.xyz[idx] = gc_state.position[idx]-block_coord_system[idx]-gc_block.values
 1337              		.loc 1 561 0
 1338 0764 4E4B     		ldr	r3, .L258+16
 1339 0766 03EB8403 		add	r3, r3, r4, lsl #2
 1340 076a D869     		ldr	r0, [r3, #28]	@ float
 1341 076c 18AB     		add	r3, sp, #96
 1342 076e 03EB8403 		add	r3, r3, r4, lsl #2
 1343 0772 53F8141C 		ldr	r1, [r3, #-20]	@ float
 1344 0776 FFF7FEFF 		bl	__aeabi_fsub
 1345              	.LVL137:
 1346 077a 04F10C05 		add	r5, r4, #12
 1347 077e 464B     		ldr	r3, .L258+8
 1348 0780 03EB8505 		add	r5, r3, r5, lsl #2
 1349 0784 6968     		ldr	r1, [r5, #4]	@ float
 1350 0786 FFF7FEFF 		bl	__aeabi_fsub
 1351              	.LVL138:
 1352 078a 6860     		str	r0, [r5, #4]	@ float
 562:gcode.c       ****           if (idx == TOOL_LENGTH_OFFSET_AXIS) { gc_block.values.xyz[idx] -= gc_state.tool_length_of
 1353              		.loc 1 562 0
 1354 078c 022C     		cmp	r4, #2
 1355 078e 13D1     		bne	.L97
 1356              		.loc 1 562 0 is_stmt 0 discriminator 1
 1357 0790 04F10C05 		add	r5, r4, #12
 1358 0794 404B     		ldr	r3, .L258+8
 1359 0796 03EB8505 		add	r5, r3, r5, lsl #2
ARM GAS  C:\Users\miker\AppData\Local\Temp\cctp1tOt.s 			page 37


 1360 079a 414B     		ldr	r3, .L258+16
 1361 079c 196C     		ldr	r1, [r3, #64]	@ float
 1362 079e FFF7FEFF 		bl	__aeabi_fsub
 1363              	.LVL139:
 1364 07a2 6860     		str	r0, [r5, #4]	@ float
 1365 07a4 08E0     		b	.L97
 1366              	.L96:
 563:gcode.c       ****         } else {
 564:gcode.c       ****           gc_block.values.xyz[idx] = gc_state.coord_offset[idx];
 1367              		.loc 1 564 0 is_stmt 1
 1368 07a6 04F10C03 		add	r3, r4, #12
 1369 07aa 9B00     		lsls	r3, r3, #2
 1370 07ac 3C4A     		ldr	r2, .L258+16
 1371 07ae 1A44     		add	r2, r2, r3
 1372 07b0 5268     		ldr	r2, [r2, #4]	@ float
 1373 07b2 3949     		ldr	r1, .L258+8
 1374 07b4 0B44     		add	r3, r3, r1
 1375 07b6 5A60     		str	r2, [r3, #4]	@ float
 1376              	.L97:
 558:gcode.c       ****         if (bit_istrue(axis_words,bit(idx)) ) {
 1377              		.loc 1 558 0 discriminator 2
 1378 07b8 0134     		adds	r4, r4, #1
 1379              	.LVL140:
 1380 07ba E4B2     		uxtb	r4, r4
 1381              	.LVL141:
 1382              	.L95:
 558:gcode.c       ****         if (bit_istrue(axis_words,bit(idx)) ) {
 1383              		.loc 1 558 0 is_stmt 0 discriminator 1
 1384 07bc 022C     		cmp	r4, #2
 1385 07be CCD9     		bls	.L98
  80:gcode.c       **** 
 1386              		.loc 1 80 0 is_stmt 1
 1387 07c0 0023     		movs	r3, #0
 1388 07c2 0B93     		str	r3, [sp, #44]
 1389 07c4 9CE0     		b	.L94
 1390              	.LVL142:
 1391              	.L251:
 565:gcode.c       ****         }
 566:gcode.c       ****       }
 567:gcode.c       ****       break;
 568:gcode.c       **** 
 569:gcode.c       ****     default:
 570:gcode.c       **** 
 571:gcode.c       ****       // At this point, the rest of the explicit axis commands treat the axis values as the traditi
 572:gcode.c       ****       // target position with the coordinate system offsets, G92 offsets, absolute override, and di
 573:gcode.c       ****       // modes applied. This includes the motion mode commands. We can now pre-compute the target p
 574:gcode.c       ****       // NOTE: Tool offsets may be appended to these conversions when/if this feature is added.
 575:gcode.c       ****       if (axis_command != AXIS_COMMAND_TOOL_LENGTH_OFFSET ) { // TLO block any axis command.
 1392              		.loc 1 575 0
 1393 07c6 089B     		ldr	r3, [sp, #32]
 1394 07c8 032B     		cmp	r3, #3
 1395 07ca 51D0     		beq	.L99
 576:gcode.c       ****         if (axis_words) {
 1396              		.loc 1 576 0
 1397 07cc 079B     		ldr	r3, [sp, #28]
 1398 07ce 002B     		cmp	r3, #0
 1399 07d0 49D1     		bne	.L219
ARM GAS  C:\Users\miker\AppData\Local\Temp\cctp1tOt.s 			page 38


 1400 07d2 4DE0     		b	.L99
 1401              	.LVL143:
 1402              	.L104:
 577:gcode.c       ****           for (idx=0; idx<N_AXIS; idx++) { // Axes indices are consistent, so loop may be used to s
 578:gcode.c       ****             if ( bit_isfalse(axis_words,bit(idx)) ) {
 1403              		.loc 1 578 0
 1404 07d4 4C46     		mov	r4, r9
 1405 07d6 079B     		ldr	r3, [sp, #28]
 1406 07d8 43FA09F3 		asr	r3, r3, r9
 1407 07dc 13F0010F 		tst	r3, #1
 1408 07e0 08D1     		bne	.L101
 579:gcode.c       ****               gc_block.values.xyz[idx] = gc_state.position[idx]; // No axis word in block. Keep sam
 1409              		.loc 1 579 0
 1410 07e2 2F4B     		ldr	r3, .L258+16
 1411 07e4 03EB8903 		add	r3, r3, r9, lsl #2
 1412 07e8 DA69     		ldr	r2, [r3, #28]	@ float
 1413 07ea 2B4B     		ldr	r3, .L258+8
 1414 07ec 03EB8903 		add	r3, r3, r9, lsl #2
 1415 07f0 5A63     		str	r2, [r3, #52]	@ float
 1416 07f2 33E0     		b	.L102
 1417              	.L101:
 580:gcode.c       ****             } else {
 581:gcode.c       ****               // Update specified value according to distance mode or ignore if absolute override i
 582:gcode.c       ****               // NOTE: G53 is never active with G28/30 since they are in the same modal group.
 583:gcode.c       ****               if (gc_block.non_modal_command != NON_MODAL_ABSOLUTE_OVERRIDE) {
 1418              		.loc 1 583 0
 1419 07f4 352D     		cmp	r5, #53
 1420 07f6 31D0     		beq	.L102
 584:gcode.c       ****                 // Apply coordinate offsets based on distance mode.
 585:gcode.c       ****                 if (gc_block.modal.distance == DISTANCE_MODE_ABSOLUTE) {
 1421              		.loc 1 585 0
 1422 07f8 274B     		ldr	r3, .L258+8
 1423 07fa 1B79     		ldrb	r3, [r3, #4]	@ zero_extendqisi2
 1424 07fc 13BB     		cbnz	r3, .L103
 586:gcode.c       ****                   gc_block.values.xyz[idx] += block_coord_system[idx] + gc_state.coord_offset[idx];
 1425              		.loc 1 586 0
 1426 07fe 09F10C08 		add	r8, r9, #12
 1427 0802 4FEA8808 		lsl	r8, r8, #2
 1428 0806 264B     		ldr	r3, .L258+16
 1429 0808 4344     		add	r3, r3, r8
 1430 080a 18AA     		add	r2, sp, #96
 1431 080c 02EB8902 		add	r2, r2, r9, lsl #2
 1432 0810 52F8140C 		ldr	r0, [r2, #-20]	@ float
 1433 0814 5968     		ldr	r1, [r3, #4]	@ float
 1434 0816 FFF7FEFF 		bl	__aeabi_fadd
 1435              	.LVL144:
 1436 081a 1F4B     		ldr	r3, .L258+8
 1437 081c 9844     		add	r8, r8, r3
 1438 081e D8F80410 		ldr	r1, [r8, #4]	@ float
 1439 0822 FFF7FEFF 		bl	__aeabi_fadd
 1440              	.LVL145:
 1441 0826 C8F80400 		str	r0, [r8, #4]	@ float
 587:gcode.c       ****                   if (idx == TOOL_LENGTH_OFFSET_AXIS) { gc_block.values.xyz[idx] += gc_state.tool_l
 1442              		.loc 1 587 0
 1443 082a B9F1020F 		cmp	r9, #2
 1444 082e 15D1     		bne	.L102
 1445              		.loc 1 587 0 is_stmt 0 discriminator 1
ARM GAS  C:\Users\miker\AppData\Local\Temp\cctp1tOt.s 			page 39


 1446 0830 0C34     		adds	r4, r4, #12
 1447 0832 194B     		ldr	r3, .L258+8
 1448 0834 03EB8404 		add	r4, r3, r4, lsl #2
 1449 0838 194B     		ldr	r3, .L258+16
 1450 083a 196C     		ldr	r1, [r3, #64]	@ float
 1451 083c FFF7FEFF 		bl	__aeabi_fadd
 1452              	.LVL146:
 1453 0840 6060     		str	r0, [r4, #4]	@ float
 1454 0842 0BE0     		b	.L102
 1455              	.L103:
 588:gcode.c       ****                 } else {  // Incremental mode
 589:gcode.c       ****                   gc_block.values.xyz[idx] += gc_state.position[idx];
 1456              		.loc 1 589 0 is_stmt 1
 1457 0844 164A     		ldr	r2, .L258+16
 1458 0846 02EB8902 		add	r2, r2, r9, lsl #2
 1459 084a 0C34     		adds	r4, r4, #12
 1460 084c 124B     		ldr	r3, .L258+8
 1461 084e 03EB8404 		add	r4, r3, r4, lsl #2
 1462 0852 6068     		ldr	r0, [r4, #4]	@ float
 1463 0854 D169     		ldr	r1, [r2, #28]	@ float
 1464 0856 FFF7FEFF 		bl	__aeabi_fadd
 1465              	.LVL147:
 1466 085a 6060     		str	r0, [r4, #4]	@ float
 1467              	.L102:
 577:gcode.c       ****             if ( bit_isfalse(axis_words,bit(idx)) ) {
 1468              		.loc 1 577 0 discriminator 2
 1469 085c 09F10109 		add	r9, r9, #1
 1470              	.LVL148:
 1471 0860 5FFA89F9 		uxtb	r9, r9
 1472              	.LVL149:
 1473 0864 01E0     		b	.L100
 1474              	.LVL150:
 1475              	.L219:
 1476 0866 4FF00009 		mov	r9, #0
 1477              	.LVL151:
 1478              	.L100:
 577:gcode.c       ****             if ( bit_isfalse(axis_words,bit(idx)) ) {
 1479              		.loc 1 577 0 is_stmt 0 discriminator 1
 1480 086a B9F1020F 		cmp	r9, #2
 1481 086e B1D9     		bls	.L104
 1482              	.LVL152:
 1483              	.L99:
 590:gcode.c       ****                 }
 591:gcode.c       ****               }
 592:gcode.c       ****             }
 593:gcode.c       ****           }
 594:gcode.c       ****         }
 595:gcode.c       ****       }
 596:gcode.c       **** 
 597:gcode.c       ****       // Check remaining non-modal commands for errors.
 598:gcode.c       ****       switch (gc_block.non_modal_command) {
 1484              		.loc 1 598 0 is_stmt 1
 1485 0870 1E2D     		cmp	r5, #30
 1486 0872 03D0     		beq	.L105
 1487 0874 352D     		cmp	r5, #53
 1488 0876 39D0     		beq	.L106
 1489 0878 1C2D     		cmp	r5, #28
ARM GAS  C:\Users\miker\AppData\Local\Temp\cctp1tOt.s 			page 40


 1490 087a 3FD1     		bne	.L252
 1491              	.L105:
 599:gcode.c       ****         case NON_MODAL_GO_HOME_0: // G28
 600:gcode.c       ****         case NON_MODAL_GO_HOME_1: // G30
 601:gcode.c       ****           // [G28/30 Errors]: Cutter compensation is enabled.
 602:gcode.c       ****           // Retreive G28/30 go-home position data (in machine coordinates) from EEPROM
 603:gcode.c       ****           // NOTE: Store parameter data in IJK values. By rule, they are not in use with this comma
 604:gcode.c       ****           if (gc_block.non_modal_command == NON_MODAL_GO_HOME_0) {
 1492              		.loc 1 604 0
 1493 087c 1C2D     		cmp	r5, #28
 1494 087e 13D1     		bne	.L107
 605:gcode.c       ****             if (!settings_read_coord_data(SETTING_INDEX_G28,gc_block.values.ijk)) { FAIL(STATUS_SET
 1495              		.loc 1 605 0
 1496 0880 0620     		movs	r0, #6
 1497 0882 0849     		ldr	r1, .L258+20
 1498 0884 FFF7FEFF 		bl	settings_read_coord_data
 1499              	.LVL153:
 1500 0888 0028     		cmp	r0, #0
 1501 088a 00F02584 		beq	.L221
 1502 088e 12E0     		b	.L108
 1503              	.L259:
 1504              		.align	3
 1505              	.L258:
 1506 0890 66666666 		.word	1717986918
 1507 0894 66663940 		.word	1077503590
 1508 0898 00000000 		.word	gc_block
 1509 089c 28000000 		.word	gc_state+40
 1510 08a0 00000000 		.word	gc_state
 1511 08a4 10000000 		.word	gc_block+16
 1512              	.L107:
 606:gcode.c       ****           } else { // == NON_MODAL_GO_HOME_1
 607:gcode.c       ****             if (!settings_read_coord_data(SETTING_INDEX_G30,gc_block.values.ijk)) { FAIL(STATUS_SET
 1513              		.loc 1 607 0
 1514 08a8 0720     		movs	r0, #7
 1515 08aa AB49     		ldr	r1, .L260+8
 1516 08ac FFF7FEFF 		bl	settings_read_coord_data
 1517              	.LVL154:
 1518 08b0 0028     		cmp	r0, #0
 1519 08b2 00F01384 		beq	.L222
 1520              	.L108:
 608:gcode.c       ****           }
 609:gcode.c       ****           if (axis_words) {
 1521              		.loc 1 609 0
 1522 08b6 079B     		ldr	r3, [sp, #28]
 1523 08b8 93B9     		cbnz	r3, .L223
  80:gcode.c       **** 
 1524              		.loc 1 80 0
 1525 08ba 0B93     		str	r3, [sp, #44]
 610:gcode.c       ****             // Move only the axes specified in secondary move.
 611:gcode.c       ****             for (idx=0; idx<N_AXIS; idx++) {
 612:gcode.c       ****               if (!(axis_words & (1<<idx))) { gc_block.values.ijk[idx] = gc_state.position[idx]; }
 613:gcode.c       ****             }
 614:gcode.c       ****           } else {
 615:gcode.c       ****             axis_command = AXIS_COMMAND_NONE; // Set to none if no intermediate motion.
 1526              		.loc 1 615 0
 1527 08bc 0893     		str	r3, [sp, #32]
 1528              	.LVL155:
ARM GAS  C:\Users\miker\AppData\Local\Temp\cctp1tOt.s 			page 41


 1529 08be 1FE0     		b	.L94
 1530              	.LVL156:
 1531              	.L111:
 612:gcode.c       ****             }
 1532              		.loc 1 612 0
 1533 08c0 079A     		ldr	r2, [sp, #28]
 1534 08c2 1A41     		asrs	r2, r2, r3
 1535 08c4 12F0010F 		tst	r2, #1
 1536 08c8 07D1     		bne	.L110
 612:gcode.c       ****             }
 1537              		.loc 1 612 0 is_stmt 0 discriminator 1
 1538 08ca A44A     		ldr	r2, .L260+12
 1539 08cc 02EB8302 		add	r2, r2, r3, lsl #2
 1540 08d0 D169     		ldr	r1, [r2, #28]	@ float
 1541 08d2 A34A     		ldr	r2, .L260+16
 1542 08d4 02EB8302 		add	r2, r2, r3, lsl #2
 1543 08d8 1161     		str	r1, [r2, #16]	@ float
 1544              	.L110:
 611:gcode.c       ****               if (!(axis_words & (1<<idx))) { gc_block.values.ijk[idx] = gc_state.position[idx]; }
 1545              		.loc 1 611 0 is_stmt 1 discriminator 2
 1546 08da 0133     		adds	r3, r3, #1
 1547              	.LVL157:
 1548 08dc DBB2     		uxtb	r3, r3
 1549              	.LVL158:
 1550 08de 00E0     		b	.L109
 1551              	.LVL159:
 1552              	.L223:
 1553 08e0 0023     		movs	r3, #0
 1554              	.L109:
 1555              	.LVL160:
 611:gcode.c       ****               if (!(axis_words & (1<<idx))) { gc_block.values.ijk[idx] = gc_state.position[idx]; }
 1556              		.loc 1 611 0 is_stmt 0 discriminator 1
 1557 08e2 022B     		cmp	r3, #2
 1558 08e4 ECD9     		bls	.L111
  80:gcode.c       **** 
 1559              		.loc 1 80 0 is_stmt 1
 1560 08e6 0023     		movs	r3, #0
 1561              	.LVL161:
 1562 08e8 0B93     		str	r3, [sp, #44]
 1563 08ea 09E0     		b	.L94
 1564              	.L106:
 616:gcode.c       ****           }
 617:gcode.c       ****           break;
 618:gcode.c       ****         case NON_MODAL_SET_HOME_0: // G28.1
 619:gcode.c       ****         case NON_MODAL_SET_HOME_1: // G30.1
 620:gcode.c       ****           // [G28.1/30.1 Errors]: Cutter compensation is enabled.
 621:gcode.c       ****           // NOTE: If axis words are passed here, they are interpreted as an implicit motion mode.
 622:gcode.c       ****           break;
 623:gcode.c       ****         case NON_MODAL_RESET_COORDINATE_OFFSET:
 624:gcode.c       ****           // NOTE: If axis words are passed here, they are interpreted as an implicit motion mode.
 625:gcode.c       ****           break;
 626:gcode.c       ****         case NON_MODAL_ABSOLUTE_OVERRIDE:
 627:gcode.c       ****           // [G53 Errors]: G0 and G1 are not active. Cutter compensation is enabled.
 628:gcode.c       ****           // NOTE: All explicit axis word commands are in this modal group. So no implicit check ne
 629:gcode.c       ****           if (!(gc_block.modal.motion == MOTION_MODE_SEEK || gc_block.modal.motion == MOTION_MODE_L
 1565              		.loc 1 629 0
 1566 08ec 9C4B     		ldr	r3, .L260+16
ARM GAS  C:\Users\miker\AppData\Local\Temp\cctp1tOt.s 			page 42


 1567 08ee 5B78     		ldrb	r3, [r3, #1]	@ zero_extendqisi2
 1568 08f0 012B     		cmp	r3, #1
 1569 08f2 00F2F583 		bhi	.L224
  80:gcode.c       **** 
 1570              		.loc 1 80 0
 1571 08f6 0023     		movs	r3, #0
 1572 08f8 0B93     		str	r3, [sp, #44]
 1573 08fa 01E0     		b	.L94
 1574              	.L252:
 1575 08fc 0023     		movs	r3, #0
 1576 08fe 0B93     		str	r3, [sp, #44]
 1577              	.LVL162:
 1578              	.L94:
 630:gcode.c       ****             FAIL(STATUS_GCODE_G53_INVALID_MOTION_MODE); // [G53 G0/1 not active]
 631:gcode.c       ****           }
 632:gcode.c       ****           break;
 633:gcode.c       ****       }
 634:gcode.c       ****   }
 635:gcode.c       **** 
 636:gcode.c       ****   // [20. Motion modes ]:
 637:gcode.c       ****   if (gc_block.modal.motion == MOTION_MODE_NONE) {
 1579              		.loc 1 637 0
 1580 0900 974B     		ldr	r3, .L260+16
 1581 0902 5C78     		ldrb	r4, [r3, #1]	@ zero_extendqisi2
 1582 0904 502C     		cmp	r4, #80
 1583 0906 04D1     		bne	.L112
 638:gcode.c       ****     // [G80 Errors]: Axis word are programmed while G80 is active.
 639:gcode.c       ****     // NOTE: Even non-modal commands or TLO that use axis words will throw this strict error.
 640:gcode.c       ****     if (axis_words) { FAIL(STATUS_GCODE_AXIS_WORDS_EXIST); } // [No axis words allowed]
 1584              		.loc 1 640 0
 1585 0908 079B     		ldr	r3, [sp, #28]
 1586 090a 002B     		cmp	r3, #0
 1587 090c 40F0EA83 		bne	.L225
 1588 0910 97E1     		b	.L113
 1589              	.L112:
 641:gcode.c       **** 
 642:gcode.c       ****   // Check remaining motion modes, if axis word are implicit (exist and not used by G10/28/30/92), 
 643:gcode.c       ****   // was explicitly commanded in the g-code block.
 644:gcode.c       ****   } else if ( axis_command == AXIS_COMMAND_MOTION_MODE ) {
 1590              		.loc 1 644 0
 1591 0912 089B     		ldr	r3, [sp, #32]
 1592 0914 022B     		cmp	r3, #2
 1593 0916 40F09481 		bne	.L113
 645:gcode.c       **** 
 646:gcode.c       ****     if (gc_block.modal.motion == MOTION_MODE_SEEK) {
 1594              		.loc 1 646 0
 1595 091a 24B9     		cbnz	r4, .L114
 647:gcode.c       ****       // [G0 Errors]: Axis letter not configured or without real value (done.)
 648:gcode.c       ****       // Axis words are optional. If missing, set axis command flag to ignore execution.
 649:gcode.c       ****       if (!axis_words) { axis_command = AXIS_COMMAND_NONE; }
 1596              		.loc 1 649 0
 1597 091c 079B     		ldr	r3, [sp, #28]
 1598 091e 002B     		cmp	r3, #0
 1599 0920 00F08A81 		beq	.L226
 1600 0924 8DE1     		b	.L113
 1601              	.L114:
 650:gcode.c       **** 
ARM GAS  C:\Users\miker\AppData\Local\Temp\cctp1tOt.s 			page 43


 651:gcode.c       ****     // All remaining motion modes (all but G0 and G80), require a valid feed rate value. In units p
 652:gcode.c       ****     // the value must be positive. In inverse time mode, a positive value must be passed with each 
 653:gcode.c       ****     } else {
 654:gcode.c       ****       // Check if feed rate is defined for the motion modes that require it.
 655:gcode.c       ****       if (gc_block.values.f == 0.0) { FAIL(STATUS_GCODE_UNDEFINED_FEED_RATE); } // [Feed rate undef
 1602              		.loc 1 655 0
 1603 0926 8E4B     		ldr	r3, .L260+16
 1604 0928 D868     		ldr	r0, [r3, #12]	@ float
 1605 092a 0021     		movs	r1, #0
 1606 092c FFF7FEFF 		bl	__aeabi_fcmpeq
 1607              	.LVL163:
 1608 0930 0028     		cmp	r0, #0
 1609 0932 40F0D983 		bne	.L227
 656:gcode.c       **** 
 657:gcode.c       ****       switch (gc_block.modal.motion) {
 1610              		.loc 1 657 0
 1611 0936 8C2C     		cmp	r4, #140
 1612 0938 00F06A81 		beq	.L115
 1613 093c 07D8     		bhi	.L116
 1614 093e 022C     		cmp	r4, #2
 1615 0940 13D0     		beq	.L117
 1616 0942 032C     		cmp	r4, #3
 1617 0944 13D0     		beq	.L118
 1618 0946 012C     		cmp	r4, #1
 1619 0948 40F07B81 		bne	.L113
 1620 094c 08E0     		b	.L119
 1621              	.L116:
 1622 094e 8E2C     		cmp	r4, #142
 1623 0950 00F05E81 		beq	.L115
 1624 0954 C0F05A81 		bcc	.L120
 1625 0958 8F2C     		cmp	r4, #143
 1626 095a 00F05781 		beq	.L120
 1627 095e 70E1     		b	.L113
 1628              	.L119:
 1629              	.LBB2:
 658:gcode.c       ****         case MOTION_MODE_LINEAR:
 659:gcode.c       ****           // [G1 Errors]: Feed rate undefined. Axis letter not configured or without real value.
 660:gcode.c       ****           // Axis words are optional. If missing, set axis command flag to ignore execution.
 661:gcode.c       ****           if (!axis_words) { axis_command = AXIS_COMMAND_NONE; }
 1630              		.loc 1 661 0
 1631 0960 079B     		ldr	r3, [sp, #28]
 1632 0962 002B     		cmp	r3, #0
 1633 0964 00F06B81 		beq	.L228
 1634 0968 6BE1     		b	.L113
 1635              	.L117:
 662:gcode.c       ****           break;
 663:gcode.c       ****         case MOTION_MODE_CW_ARC: 
 664:gcode.c       ****           gc_parser_flags |= GC_PARSER_ARC_IS_CLOCKWISE; // No break intentional.
 1636              		.loc 1 664 0
 1637 096a 4AF0040A 		orr	r10, r10, #4
 1638              	.LVL164:
 1639              	.L118:
 665:gcode.c       ****         case MOTION_MODE_CCW_ARC:
 666:gcode.c       ****           // [G2/3 Errors All-Modes]: Feed rate undefined.
 667:gcode.c       ****           // [G2/3 Radius-Mode Errors]: No axis words in selected plane. Target point is same as cu
 668:gcode.c       ****           // [G2/3 Offset-Mode Errors]: No axis words and/or offsets in selected plane. The radius 
 669:gcode.c       ****           //   point and the radius to the target point differs more than 0.002mm (EMC def. 0.5mm O
ARM GAS  C:\Users\miker\AppData\Local\Temp\cctp1tOt.s 			page 44


 670:gcode.c       ****           // [G2/3 Full-Circle-Mode Errors]: NOT SUPPORTED. Axis words exist. No offsets programmed
 671:gcode.c       ****           // NOTE: Both radius and offsets are required for arc tracing and are pre-computed with t
 672:gcode.c       **** 
 673:gcode.c       ****           if (!axis_words) { FAIL(STATUS_GCODE_NO_AXIS_WORDS); } // [No axis words]
 1640              		.loc 1 673 0
 1641 096e 079B     		ldr	r3, [sp, #28]
 1642 0970 002B     		cmp	r3, #0
 1643 0972 00F0BB83 		beq	.L229
 674:gcode.c       ****           if (!(axis_words & (bit(axis_0)|bit(axis_1)))) { FAIL(STATUS_GCODE_NO_AXIS_WORDS_IN_PLANE
 1644              		.loc 1 674 0
 1645 0976 D946     		mov	r9, fp
 1646 0978 0123     		movs	r3, #1
 1647 097a 03FA0BF8 		lsl	r8, r3, fp
 1648 097e 0A9A     		ldr	r2, [sp, #40]
 1649 0980 0F92     		str	r2, [sp, #60]
 1650 0982 9340     		lsls	r3, r3, r2
 1651 0984 48EA0308 		orr	r8, r8, r3
 1652 0988 079B     		ldr	r3, [sp, #28]
 1653 098a 13EA080F 		tst	r3, r8
 1654 098e 00F0AF83 		beq	.L230
 675:gcode.c       **** 
 676:gcode.c       ****           // Calculate the change in position along each selected axis
 677:gcode.c       ****           float x,y;
 678:gcode.c       ****           x = gc_block.values.xyz[axis_0]-gc_state.position[axis_0]; // Delta x between current pos
 1655              		.loc 1 678 0
 1656 0992 734D     		ldr	r5, .L260+16
 1657 0994 05EB8B02 		add	r2, r5, fp, lsl #2
 1658 0998 704C     		ldr	r4, .L260+12
 1659 099a 04EB8B03 		add	r3, r4, fp, lsl #2
 1660 099e 506B     		ldr	r0, [r2, #52]	@ float
 1661 09a0 D969     		ldr	r1, [r3, #28]	@ float
 1662 09a2 FFF7FEFF 		bl	__aeabi_fsub
 1663              	.LVL165:
 1664 09a6 0D90     		str	r0, [sp, #52]	@ float
 1665              	.LVL166:
 679:gcode.c       ****           y = gc_block.values.xyz[axis_1]-gc_state.position[axis_1]; // Delta y between current pos
 1666              		.loc 1 679 0
 1667 09a8 0A9A     		ldr	r2, [sp, #40]
 1668 09aa 05EB8205 		add	r5, r5, r2, lsl #2
 1669 09ae 04EB8204 		add	r4, r4, r2, lsl #2
 1670 09b2 686B     		ldr	r0, [r5, #52]	@ float
 1671              	.LVL167:
 1672 09b4 E169     		ldr	r1, [r4, #28]	@ float
 1673 09b6 FFF7FEFF 		bl	__aeabi_fsub
 1674              	.LVL168:
 1675 09ba 0E90     		str	r0, [sp, #56]	@ float
 1676              	.LVL169:
 680:gcode.c       **** 
 681:gcode.c       ****           if (value_words & bit(WORD_R)) { // Arc Radius Mode
 1677              		.loc 1 681 0
 1678 09bc 07F08003 		and	r3, r7, #128
 1679 09c0 9BB2     		uxth	r3, r3
 1680 09c2 002B     		cmp	r3, #0
 1681 09c4 00F09D80 		beq	.L121
 1682              	.LBB3:
 682:gcode.c       ****             bit_false(value_words,bit(WORD_R));
 1683              		.loc 1 682 0
ARM GAS  C:\Users\miker\AppData\Local\Temp\cctp1tOt.s 			page 45


 1684 09c8 27F08007 		bic	r7, r7, #128
 1685              	.LVL170:
 1686 09cc BFB2     		uxth	r7, r7
 1687              	.LVL171:
 683:gcode.c       ****             if (isequal_position_vector(gc_state.position, gc_block.values.xyz)) { FAIL(STATUS_GCOD
 1688              		.loc 1 683 0
 1689 09ce 6548     		ldr	r0, .L260+20
 1690              	.LVL172:
 1691 09d0 6549     		ldr	r1, .L260+24
 1692 09d2 0C22     		movs	r2, #12
 1693 09d4 FFF7FEFF 		bl	memcmp
 1694              	.LVL173:
 1695 09d8 0028     		cmp	r0, #0
 1696 09da 00F08B83 		beq	.L231
 684:gcode.c       **** 
 685:gcode.c       ****             // Convert radius value to proper units.
 686:gcode.c       ****             if (gc_block.modal.units == UNITS_MODE_INCHES) { gc_block.values.r *= MM_PER_INCH; }
 1697              		.loc 1 686 0
 1698 09de 604B     		ldr	r3, .L260+16
 1699 09e0 DB78     		ldrb	r3, [r3, #3]	@ zero_extendqisi2
 1700 09e2 012B     		cmp	r3, #1
 1701 09e4 0BD1     		bne	.L122
 1702              		.loc 1 686 0 is_stmt 0 discriminator 1
 1703 09e6 5E4C     		ldr	r4, .L260+16
 1704 09e8 A06A     		ldr	r0, [r4, #40]	@ float
 1705 09ea FFF7FEFF 		bl	__aeabi_f2d
 1706              	.LVL174:
 1707 09ee 58A3     		adr	r3, .L260
 1708 09f0 D3E90023 		ldrd	r2, [r3]
 1709 09f4 FFF7FEFF 		bl	__aeabi_dmul
 1710              	.LVL175:
 1711 09f8 FFF7FEFF 		bl	__aeabi_d2f
 1712              	.LVL176:
 1713 09fc A062     		str	r0, [r4, #40]	@ float
 1714              	.L122:
 687:gcode.c       ****             /*  We need to calculate the center of the circle that has the designated radius and pa
 688:gcode.c       ****                 through both the current position and the target position. This method calculates t
 689:gcode.c       ****                 set of equations where [x,y] is the vector from current to target position, d == ma
 690:gcode.c       ****                 that vector, h == hypotenuse of the triangle formed by the radius of the circle, th
 691:gcode.c       ****                 the center of the travel vector. A vector perpendicular to the travel vector [-y,x]
 692:gcode.c       ****                 length of h [-y/d*h, x/d*h] and added to the center of the travel vector [x/2,y/2] 
 693:gcode.c       ****                 [i,j] at [x/2-y/d*h, y/2+x/d*h] which will be the center of our arc.
 694:gcode.c       **** 
 695:gcode.c       ****                 d^2 == x^2 + y^2
 696:gcode.c       ****                 h^2 == r^2 - (d/2)^2
 697:gcode.c       ****                 i == x/2 - y/d*h
 698:gcode.c       ****                 j == y/2 + x/d*h
 699:gcode.c       **** 
 700:gcode.c       ****                                                                      O <- [i,j]
 701:gcode.c       ****                                                                   -  |
 702:gcode.c       ****                                                         r      -     |
 703:gcode.c       ****                                                             -        |
 704:gcode.c       ****                                                          -           | h
 705:gcode.c       ****                                                       -              |
 706:gcode.c       ****                                         [0,0] ->  C -----------------+--------------- T  <- [x,y]
 707:gcode.c       ****                                                   | <------ d/2 ---->|
 708:gcode.c       **** 
ARM GAS  C:\Users\miker\AppData\Local\Temp\cctp1tOt.s 			page 46


 709:gcode.c       ****                 C - Current position
 710:gcode.c       ****                 T - Target position
 711:gcode.c       ****                 O - center of circle that pass through both C and T
 712:gcode.c       ****                 d - distance from C to T
 713:gcode.c       ****                 r - designated radius
 714:gcode.c       ****                 h - distance from center of CT to O
 715:gcode.c       **** 
 716:gcode.c       ****                 Expanding the equations:
 717:gcode.c       **** 
 718:gcode.c       ****                 d -> sqrt(x^2 + y^2)
 719:gcode.c       ****                 h -> sqrt(4 * r^2 - x^2 - y^2)/2
 720:gcode.c       ****                 i -> (x - (y * sqrt(4 * r^2 - x^2 - y^2)) / sqrt(x^2 + y^2)) / 2
 721:gcode.c       ****                 j -> (y + (x * sqrt(4 * r^2 - x^2 - y^2)) / sqrt(x^2 + y^2)) / 2
 722:gcode.c       **** 
 723:gcode.c       ****                 Which can be written:
 724:gcode.c       **** 
 725:gcode.c       ****                 i -> (x - (y * sqrt(4 * r^2 - x^2 - y^2))/sqrt(x^2 + y^2))/2
 726:gcode.c       ****                 j -> (y + (x * sqrt(4 * r^2 - x^2 - y^2))/sqrt(x^2 + y^2))/2
 727:gcode.c       **** 
 728:gcode.c       ****                 Which we for size and speed reasons optimize to:
 729:gcode.c       **** 
 730:gcode.c       ****                 h_x2_div_d = sqrt(4 * r^2 - x^2 - y^2)/sqrt(x^2 + y^2)
 731:gcode.c       ****                 i = (x - (y * h_x2_div_d))/2
 732:gcode.c       ****                 j = (y + (x * h_x2_div_d))/2
 733:gcode.c       ****             */
 734:gcode.c       **** 
 735:gcode.c       ****             // First, use h_x2_div_d to compute 4*h^2 to check if it is negative or r is smaller
 736:gcode.c       ****             // than d. If so, the sqrt of a negative number is complex and error out.
 737:gcode.c       ****             float h_x2_div_d = 4.0 * gc_block.values.r*gc_block.values.r - x*x - y*y;
 1715              		.loc 1 737 0 is_stmt 1
 1716 09fe 584B     		ldr	r3, .L260+16
 1717 0a00 986A     		ldr	r0, [r3, #40]	@ float
 1718 0a02 FFF7FEFF 		bl	__aeabi_f2d
 1719              	.LVL177:
 1720 0a06 0446     		mov	r4, r0
 1721 0a08 0D46     		mov	r5, r1
 1722 0a0a 0022     		movs	r2, #0
 1723 0a0c 574B     		ldr	r3, .L260+28
 1724 0a0e FFF7FEFF 		bl	__aeabi_dmul
 1725              	.LVL178:
 1726 0a12 0246     		mov	r2, r0
 1727 0a14 0B46     		mov	r3, r1
 1728 0a16 2046     		mov	r0, r4
 1729 0a18 2946     		mov	r1, r5
 1730 0a1a FFF7FEFF 		bl	__aeabi_dmul
 1731              	.LVL179:
 1732 0a1e 0446     		mov	r4, r0
 1733 0a20 0D46     		mov	r5, r1
 1734 0a22 0D99     		ldr	r1, [sp, #52]	@ float
 1735 0a24 0846     		mov	r0, r1
 1736 0a26 FFF7FEFF 		bl	__aeabi_fmul
 1737              	.LVL180:
 1738 0a2a FFF7FEFF 		bl	__aeabi_f2d
 1739              	.LVL181:
 1740 0a2e 0246     		mov	r2, r0
 1741 0a30 0B46     		mov	r3, r1
 1742 0a32 2046     		mov	r0, r4
ARM GAS  C:\Users\miker\AppData\Local\Temp\cctp1tOt.s 			page 47


 1743 0a34 2946     		mov	r1, r5
 1744 0a36 FFF7FEFF 		bl	__aeabi_dsub
 1745              	.LVL182:
 1746 0a3a 0446     		mov	r4, r0
 1747 0a3c 0D46     		mov	r5, r1
 1748 0a3e 0E99     		ldr	r1, [sp, #56]	@ float
 1749 0a40 0846     		mov	r0, r1
 1750 0a42 FFF7FEFF 		bl	__aeabi_fmul
 1751              	.LVL183:
 1752 0a46 FFF7FEFF 		bl	__aeabi_f2d
 1753              	.LVL184:
 1754 0a4a 0246     		mov	r2, r0
 1755 0a4c 0B46     		mov	r3, r1
 1756 0a4e 2046     		mov	r0, r4
 1757 0a50 2946     		mov	r1, r5
 1758 0a52 FFF7FEFF 		bl	__aeabi_dsub
 1759              	.LVL185:
 1760 0a56 FFF7FEFF 		bl	__aeabi_d2f
 1761              	.LVL186:
 1762 0a5a 0446     		mov	r4, r0
 1763              	.LVL187:
 738:gcode.c       **** 
 739:gcode.c       ****             if (h_x2_div_d < 0) { FAIL(STATUS_GCODE_ARC_RADIUS_ERROR); } // [Arc radius error]
 1764              		.loc 1 739 0
 1765 0a5c 0021     		movs	r1, #0
 1766 0a5e FFF7FEFF 		bl	__aeabi_fcmplt
 1767              	.LVL188:
 1768 0a62 0028     		cmp	r0, #0
 1769 0a64 40F04883 		bne	.L232
 740:gcode.c       **** 
 741:gcode.c       ****             // Finish computing h_x2_div_d.
 742:gcode.c       ****             h_x2_div_d = -sqrt(h_x2_div_d)/hypot_f(x,y); // == -(h * 2 / d)
 1770              		.loc 1 742 0
 1771 0a68 2046     		mov	r0, r4
 1772 0a6a FFF7FEFF 		bl	__aeabi_f2d
 1773              	.LVL189:
 1774 0a6e FFF7FEFF 		bl	sqrt
 1775              	.LVL190:
 1776 0a72 0546     		mov	r5, r0
 1777 0a74 01F10044 		add	r4, r1, #-2147483648
 1778              	.LVL191:
 1779 0a78 0D98     		ldr	r0, [sp, #52]	@ float
 1780 0a7a 0E99     		ldr	r1, [sp, #56]	@ float
 1781 0a7c FFF7FEFF 		bl	hypot_f
 1782              	.LVL192:
 1783 0a80 FFF7FEFF 		bl	__aeabi_f2d
 1784              	.LVL193:
 1785 0a84 0246     		mov	r2, r0
 1786 0a86 0B46     		mov	r3, r1
 1787 0a88 2846     		mov	r0, r5
 1788 0a8a 2146     		mov	r1, r4
 1789 0a8c FFF7FEFF 		bl	__aeabi_ddiv
 1790              	.LVL194:
 1791 0a90 FFF7FEFF 		bl	__aeabi_d2f
 1792              	.LVL195:
 1793 0a94 8046     		mov	r8, r0
 1794              	.LVL196:
ARM GAS  C:\Users\miker\AppData\Local\Temp\cctp1tOt.s 			page 48


 743:gcode.c       ****             // Invert the sign of h_x2_div_d if the circle is counter clockwise (see sketch below)
 744:gcode.c       ****             if (gc_block.modal.motion == MOTION_MODE_CCW_ARC) { h_x2_div_d = -h_x2_div_d; }
 1795              		.loc 1 744 0
 1796 0a96 324B     		ldr	r3, .L260+16
 1797 0a98 5B78     		ldrb	r3, [r3, #1]	@ zero_extendqisi2
 1798 0a9a 032B     		cmp	r3, #3
 1799 0a9c 01D1     		bne	.L123
 1800              		.loc 1 744 0 is_stmt 0 discriminator 1
 1801 0a9e 00F10048 		add	r8, r0, #-2147483648
 1802              	.LVL197:
 1803              	.L123:
 745:gcode.c       **** 
 746:gcode.c       ****             /* The counter clockwise circle lies to the left of the target direction. When offset i
 747:gcode.c       ****                the left hand circle will be generated - when it is negative the right hand circle i
 748:gcode.c       **** 
 749:gcode.c       ****                                                                    T  <-- Target position
 750:gcode.c       **** 
 751:gcode.c       ****                                                                    ^
 752:gcode.c       ****                         Clockwise circles with this center         |          Clockwise circles wit
 753:gcode.c       ****                         will have > 180 deg of angular travel      |          < 180 deg of angular 
 754:gcode.c       ****                                                          \         |          /
 755:gcode.c       ****             center of arc when h_x2_div_d is positive ->  x <----- | -----> x <- center of arc when
 756:gcode.c       ****                                                                    |
 757:gcode.c       ****                                                                    |
 758:gcode.c       **** 
 759:gcode.c       ****                                                                    C  <-- Current position
 760:gcode.c       ****             */
 761:gcode.c       ****             // Negative R is g-code-alese for "I want a circle with more than 180 degrees of travel
 762:gcode.c       ****             // even though it is advised against ever generating such circles in a single line of g
 763:gcode.c       ****             // inverting the sign of h_x2_div_d the center of the circles is placed on the opposite
 764:gcode.c       ****             // travel and thus we get the unadvisably long arcs as prescribed.
 765:gcode.c       ****             if (gc_block.values.r < 0) {
 1804              		.loc 1 765 0 is_stmt 1
 1805 0aa2 2F4B     		ldr	r3, .L260+16
 1806 0aa4 9C6A     		ldr	r4, [r3, #40]	@ float
 1807 0aa6 2046     		mov	r0, r4
 1808 0aa8 0021     		movs	r1, #0
 1809 0aaa FFF7FEFF 		bl	__aeabi_fcmplt
 1810              	.LVL198:
 1811 0aae 28B1     		cbz	r0, .L124
 766:gcode.c       ****                 h_x2_div_d = -h_x2_div_d;
 1812              		.loc 1 766 0
 1813 0ab0 08F10048 		add	r8, r8, #-2147483648
 1814              	.LVL199:
 767:gcode.c       ****                 gc_block.values.r = -gc_block.values.r; // Finished with r. Set to positive for mc_
 1815              		.loc 1 767 0
 1816 0ab4 04F10044 		add	r4, r4, #-2147483648
 1817 0ab8 294B     		ldr	r3, .L260+16
 1818 0aba 9C62     		str	r4, [r3, #40]	@ float
 1819              	.LVL200:
 1820              	.L124:
 768:gcode.c       ****             }
 769:gcode.c       ****             // Complete the operation by calculating the actual center of the arc
 770:gcode.c       ****             gc_block.values.ijk[axis_0] = 0.5*(x-(y*h_x2_div_d));
 1821              		.loc 1 770 0
 1822 0abc 0E98     		ldr	r0, [sp, #56]	@ float
 1823 0abe 4146     		mov	r1, r8
ARM GAS  C:\Users\miker\AppData\Local\Temp\cctp1tOt.s 			page 49


 1824 0ac0 FFF7FEFF 		bl	__aeabi_fmul
 1825              	.LVL201:
 1826 0ac4 0146     		mov	r1, r0
 1827 0ac6 0D98     		ldr	r0, [sp, #52]	@ float
 1828 0ac8 FFF7FEFF 		bl	__aeabi_fsub
 1829              	.LVL202:
 1830 0acc 244D     		ldr	r5, .L260+16
 1831 0ace 09F10204 		add	r4, r9, #2
 1832 0ad2 05EB8404 		add	r4, r5, r4, lsl #2
 1833 0ad6 4FF07C51 		mov	r1, #1056964608
 1834 0ada FFF7FEFF 		bl	__aeabi_fmul
 1835              	.LVL203:
 1836 0ade A060     		str	r0, [r4, #8]	@ float
 771:gcode.c       ****             gc_block.values.ijk[axis_1] = 0.5*(y+(x*h_x2_div_d));
 1837              		.loc 1 771 0
 1838 0ae0 0D98     		ldr	r0, [sp, #52]	@ float
 1839 0ae2 4146     		mov	r1, r8
 1840 0ae4 FFF7FEFF 		bl	__aeabi_fmul
 1841              	.LVL204:
 1842 0ae8 0E99     		ldr	r1, [sp, #56]	@ float
 1843 0aea FFF7FEFF 		bl	__aeabi_fadd
 1844              	.LVL205:
 1845 0aee 0F9B     		ldr	r3, [sp, #60]
 1846 0af0 0233     		adds	r3, r3, #2
 1847 0af2 05EB8305 		add	r5, r5, r3, lsl #2
 1848 0af6 4FF07C51 		mov	r1, #1056964608
 1849 0afa FFF7FEFF 		bl	__aeabi_fmul
 1850              	.LVL206:
 1851 0afe A860     		str	r0, [r5, #8]	@ float
 1852              	.LBE3:
 1853 0b00 9FE0     		b	.L113
 1854              	.LVL207:
 1855              	.L121:
 1856              	.LBB4:
 772:gcode.c       **** 
 773:gcode.c       ****           } else { // Arc Center Format Offset Mode
 774:gcode.c       ****             if (!(ijk_words & (bit(axis_0)|bit(axis_1)))) { FAIL(STATUS_GCODE_NO_OFFSETS_IN_PLANE);
 1857              		.loc 1 774 0
 1858 0b02 099B     		ldr	r3, [sp, #36]
 1859 0b04 18EA030F 		tst	r8, r3
 1860 0b08 00F0F882 		beq	.L233
 775:gcode.c       ****             bit_false(value_words,(bit(WORD_I)|bit(WORD_J)|bit(WORD_K)));
 1861              		.loc 1 775 0
 1862 0b0c 27F00E07 		bic	r7, r7, #14
 1863              	.LVL208:
 1864 0b10 BFB2     		uxth	r7, r7
 1865              	.LVL209:
 776:gcode.c       **** 
 777:gcode.c       ****             // Convert IJK values to proper units.
 778:gcode.c       ****             if (gc_block.modal.units == UNITS_MODE_INCHES) {
 1866              		.loc 1 778 0
 1867 0b12 134B     		ldr	r3, .L260+16
 1868 0b14 DB78     		ldrb	r3, [r3, #3]	@ zero_extendqisi2
 1869 0b16 012B     		cmp	r3, #1
 1870 0b18 2DD1     		bne	.L127
 1871 0b1a 29E0     		b	.L234
 1872              	.LVL210:
ARM GAS  C:\Users\miker\AppData\Local\Temp\cctp1tOt.s 			page 50


 1873              	.L129:
 779:gcode.c       ****               for (idx=0; idx<N_AXIS; idx++) { // Axes indices are consistent, so loop may be used 
 780:gcode.c       ****                 if (ijk_words & bit(idx)) { gc_block.values.ijk[idx] *= MM_PER_INCH; }
 1874              		.loc 1 780 0
 1875 0b1c 099B     		ldr	r3, [sp, #36]
 1876 0b1e 2B41     		asrs	r3, r3, r5
 1877 0b20 13F0010F 		tst	r3, #1
 1878 0b24 0ED0     		beq	.L128
 1879              		.loc 1 780 0 is_stmt 0 discriminator 1
 1880 0b26 AC1C     		adds	r4, r5, #2
 1881 0b28 0D4B     		ldr	r3, .L260+16
 1882 0b2a 03EB8404 		add	r4, r3, r4, lsl #2
 1883 0b2e A068     		ldr	r0, [r4, #8]	@ float
 1884 0b30 FFF7FEFF 		bl	__aeabi_f2d
 1885              	.LVL211:
 1886 0b34 06A3     		adr	r3, .L260
 1887 0b36 D3E90023 		ldrd	r2, [r3]
 1888 0b3a FFF7FEFF 		bl	__aeabi_dmul
 1889              	.LVL212:
 1890 0b3e FFF7FEFF 		bl	__aeabi_d2f
 1891              	.LVL213:
 1892 0b42 A060     		str	r0, [r4, #8]	@ float
 1893              	.L128:
 779:gcode.c       ****               for (idx=0; idx<N_AXIS; idx++) { // Axes indices are consistent, so loop may be used 
 1894              		.loc 1 779 0 is_stmt 1 discriminator 2
 1895 0b44 0135     		adds	r5, r5, #1
 1896              	.LVL214:
 1897 0b46 EDB2     		uxtb	r5, r5
 1898              	.LVL215:
 1899 0b48 13E0     		b	.L126
 1900              	.L261:
 1901 0b4a 00BFAFF3 		.align	3
 1901      0080
 1902              	.L260:
 1903 0b50 66666666 		.word	1717986918
 1904 0b54 66663940 		.word	1077503590
 1905 0b58 10000000 		.word	gc_block+16
 1906 0b5c 00000000 		.word	gc_state
 1907 0b60 00000000 		.word	gc_block
 1908 0b64 1C000000 		.word	gc_state+28
 1909 0b68 34000000 		.word	gc_block+52
 1910 0b6c 00001040 		.word	1074790400
 1911              	.LVL216:
 1912              	.L234:
 1913 0b70 0025     		movs	r5, #0
 1914              	.LVL217:
 1915              	.L126:
 779:gcode.c       ****               for (idx=0; idx<N_AXIS; idx++) { // Axes indices are consistent, so loop may be used 
 1916              		.loc 1 779 0 is_stmt 0 discriminator 1
 1917 0b72 022D     		cmp	r5, #2
 1918 0b74 D2D9     		bls	.L129
 1919              	.LVL218:
 1920              	.L127:
 781:gcode.c       ****               }
 782:gcode.c       ****             }
 783:gcode.c       **** 
 784:gcode.c       ****             // Arc radius from center to target
ARM GAS  C:\Users\miker\AppData\Local\Temp\cctp1tOt.s 			page 51


 785:gcode.c       ****             x -= gc_block.values.ijk[axis_0]; // Delta x between circle center and target
 1921              		.loc 1 785 0 is_stmt 1
 1922 0b76 964D     		ldr	r5, .L262+16
 1923 0b78 09F10209 		add	r9, r9, #2
 1924 0b7c 05EB8909 		add	r9, r5, r9, lsl #2
 1925 0b80 0D98     		ldr	r0, [sp, #52]	@ float
 1926 0b82 D9F80810 		ldr	r1, [r9, #8]	@ float
 1927 0b86 FFF7FEFF 		bl	__aeabi_fsub
 1928              	.LVL219:
 1929 0b8a 8046     		mov	r8, r0
 1930              	.LVL220:
 786:gcode.c       ****             y -= gc_block.values.ijk[axis_1]; // Delta y between circle center and target
 1931              		.loc 1 786 0
 1932 0b8c 0F9C     		ldr	r4, [sp, #60]
 1933 0b8e 0234     		adds	r4, r4, #2
 1934 0b90 05EB8404 		add	r4, r5, r4, lsl #2
 1935 0b94 0E98     		ldr	r0, [sp, #56]	@ float
 1936              	.LVL221:
 1937 0b96 A168     		ldr	r1, [r4, #8]	@ float
 1938 0b98 FFF7FEFF 		bl	__aeabi_fsub
 1939              	.LVL222:
 1940 0b9c 0146     		mov	r1, r0
 1941              	.LVL223:
 787:gcode.c       ****             float target_r = hypot_f(x,y);
 1942              		.loc 1 787 0
 1943 0b9e 4046     		mov	r0, r8
 1944              	.LVL224:
 1945 0ba0 FFF7FEFF 		bl	hypot_f
 1946              	.LVL225:
 1947 0ba4 8046     		mov	r8, r0
 1948              	.LVL226:
 788:gcode.c       **** 
 789:gcode.c       ****             // Compute arc radius for mc_arc. Defined from current location to center.
 790:gcode.c       ****             gc_block.values.r = hypot_f(gc_block.values.ijk[axis_0], gc_block.values.ijk[axis_1]);
 1949              		.loc 1 790 0
 1950 0ba6 D9F80800 		ldr	r0, [r9, #8]	@ float
 1951              	.LVL227:
 1952 0baa A168     		ldr	r1, [r4, #8]	@ float
 1953 0bac FFF7FEFF 		bl	hypot_f
 1954              	.LVL228:
 1955 0bb0 0446     		mov	r4, r0
 1956 0bb2 A862     		str	r0, [r5, #40]	@ float
 791:gcode.c       **** 
 792:gcode.c       ****             // Compute difference between current location and target radii for final error-checks.
 793:gcode.c       ****             float delta_r = fabs(target_r-gc_block.values.r);
 1957              		.loc 1 793 0
 1958 0bb4 4046     		mov	r0, r8
 1959 0bb6 2146     		mov	r1, r4
 1960 0bb8 FFF7FEFF 		bl	__aeabi_fsub
 1961              	.LVL229:
 1962 0bbc 20F00045 		bic	r5, r0, #-2147483648
 1963              	.LVL230:
 794:gcode.c       ****             if (delta_r > 0.005) {
 1964              		.loc 1 794 0
 1965 0bc0 2846     		mov	r0, r5
 1966 0bc2 FFF7FEFF 		bl	__aeabi_f2d
 1967              	.LVL231:
ARM GAS  C:\Users\miker\AppData\Local\Temp\cctp1tOt.s 			page 52


 1968 0bc6 8046     		mov	r8, r0
 1969              	.LVL232:
 1970 0bc8 8946     		mov	r9, r1
 1971 0bca 7DA3     		adr	r3, .L262
 1972 0bcc D3E90023 		ldrd	r2, [r3]
 1973 0bd0 FFF7FEFF 		bl	__aeabi_dcmpgt
 1974              	.LVL233:
 1975 0bd4 0028     		cmp	r0, #0
 1976 0bd6 34D0     		beq	.L113
 795:gcode.c       ****               if (delta_r > 0.5) { FAIL(STATUS_GCODE_INVALID_TARGET); } // [Arc definition error] >
 1977              		.loc 1 795 0
 1978 0bd8 2846     		mov	r0, r5
 1979 0bda 4FF07C51 		mov	r1, #1056964608
 1980 0bde FFF7FEFF 		bl	__aeabi_fcmpgt
 1981              	.LVL234:
 1982 0be2 0028     		cmp	r0, #0
 1983 0be4 40F08C82 		bne	.L235
 796:gcode.c       ****               if (delta_r > (0.001*gc_block.values.r)) { FAIL(STATUS_GCODE_INVALID_TARGET); } // [A
 1984              		.loc 1 796 0
 1985 0be8 2046     		mov	r0, r4
 1986 0bea FFF7FEFF 		bl	__aeabi_f2d
 1987              	.LVL235:
 1988 0bee 76A3     		adr	r3, .L262+8
 1989 0bf0 D3E90023 		ldrd	r2, [r3]
 1990 0bf4 FFF7FEFF 		bl	__aeabi_dmul
 1991              	.LVL236:
 1992 0bf8 0246     		mov	r2, r0
 1993 0bfa 0B46     		mov	r3, r1
 1994 0bfc 4046     		mov	r0, r8
 1995 0bfe 4946     		mov	r1, r9
 1996 0c00 FFF7FEFF 		bl	__aeabi_dcmpgt
 1997              	.LVL237:
 1998 0c04 0028     		cmp	r0, #0
 1999 0c06 40F07D82 		bne	.L236
 2000 0c0a 1AE0     		b	.L113
 2001              	.LVL238:
 2002              	.L120:
 2003              	.LBE4:
 797:gcode.c       ****             }
 798:gcode.c       ****           }
 799:gcode.c       ****           break;
 800:gcode.c       ****         case MOTION_MODE_PROBE_TOWARD_NO_ERROR: case MOTION_MODE_PROBE_AWAY_NO_ERROR:
 801:gcode.c       ****           gc_parser_flags |= GC_PARSER_PROBE_IS_NO_ERROR; // No break intentional.
 2004              		.loc 1 801 0
 2005 0c0c 4AF0100A 		orr	r10, r10, #16
 2006              	.LVL239:
 2007              	.L115:
 802:gcode.c       ****         case MOTION_MODE_PROBE_TOWARD: case MOTION_MODE_PROBE_AWAY:
 803:gcode.c       ****           if ((gc_block.modal.motion == MOTION_MODE_PROBE_AWAY) || 
 2008              		.loc 1 803 0
 2009 0c10 04F17203 		add	r3, r4, #114
 2010 0c14 DBB2     		uxtb	r3, r3
 2011 0c16 012B     		cmp	r3, #1
 2012 0c18 01D8     		bhi	.L131
 804:gcode.c       ****               (gc_block.modal.motion == MOTION_MODE_PROBE_AWAY_NO_ERROR)) { gc_parser_flags |= GC_P
 2013              		.loc 1 804 0
 2014 0c1a 4AF0080A 		orr	r10, r10, #8
ARM GAS  C:\Users\miker\AppData\Local\Temp\cctp1tOt.s 			page 53


 2015              	.LVL240:
 2016              	.L131:
 805:gcode.c       ****           // [G38 Errors]: Target is same current. No axis words. Cutter compensation is enabled. F
 806:gcode.c       ****           //   is undefined. Probe is triggered. NOTE: Probe check moved to probe cycle. Instead of
 807:gcode.c       ****           //   an error, it issues an alarm to prevent further motion to the probe. It's also done 
 808:gcode.c       ****           //   allow the planner buffer to empty and move off the probe trigger before another prob
 809:gcode.c       ****           if (!axis_words) { FAIL(STATUS_GCODE_NO_AXIS_WORDS); } // [No axis words]
 2017              		.loc 1 809 0
 2018 0c1e 079B     		ldr	r3, [sp, #28]
 2019 0c20 002B     		cmp	r3, #0
 2020 0c22 00F07182 		beq	.L237
 810:gcode.c       ****           if (isequal_position_vector(gc_state.position, gc_block.values.xyz)) { FAIL(STATUS_GCODE_
 2021              		.loc 1 810 0
 2022 0c26 6B48     		ldr	r0, .L262+20
 2023 0c28 6B49     		ldr	r1, .L262+24
 2024 0c2a 0C22     		movs	r2, #12
 2025 0c2c FFF7FEFF 		bl	memcmp
 2026              	.LVL241:
 2027 0c30 0028     		cmp	r0, #0
 2028 0c32 00F06B82 		beq	.L238
 2029 0c36 04E0     		b	.L113
 2030              	.L226:
 2031              	.LBE2:
 649:gcode.c       **** 
 2032              		.loc 1 649 0
 2033 0c38 0023     		movs	r3, #0
 2034 0c3a 0893     		str	r3, [sp, #32]
 2035              	.LVL242:
 2036 0c3c 01E0     		b	.L113
 2037              	.LVL243:
 2038              	.L228:
 2039              	.LBB7:
 661:gcode.c       ****           break;
 2040              		.loc 1 661 0
 2041 0c3e 0023     		movs	r3, #0
 2042 0c40 0893     		str	r3, [sp, #32]
 2043              	.LVL244:
 2044              	.L113:
 2045              	.LBE7:
 811:gcode.c       ****           break;
 812:gcode.c       ****       }
 813:gcode.c       ****     }
 814:gcode.c       ****   }
 815:gcode.c       **** 
 816:gcode.c       ****   // [21. Program flow ]: No error checks required.
 817:gcode.c       **** 
 818:gcode.c       ****   // [0. Non-specific error-checks]: Complete unused value words check, i.e. IJK used when in arc
 819:gcode.c       ****   // radius mode, or axis words that aren't used in the block.
 820:gcode.c       ****   if (gc_parser_flags & GC_PARSER_JOG_MOTION) {
 2046              		.loc 1 820 0
 2047 0c42 1AF00104 		ands	r4, r10, #1
 2048 0c46 03D0     		beq	.L132
 821:gcode.c       ****     // Jogging only uses the F feed rate and XYZ value words. N is valid, but S and T are invalid.
 822:gcode.c       ****     bit_false(value_words,(bit(WORD_N)|bit(WORD_F)));
 2049              		.loc 1 822 0
 2050 0c48 27F02103 		bic	r3, r7, #33
 2051 0c4c 9BB2     		uxth	r3, r3
ARM GAS  C:\Users\miker\AppData\Local\Temp\cctp1tOt.s 			page 54


 2052              	.LVL245:
 2053 0c4e 04E0     		b	.L133
 2054              	.LVL246:
 2055              	.L132:
 823:gcode.c       ****   } else {
 824:gcode.c       ****     bit_false(value_words,(bit(WORD_N)|bit(WORD_F)|bit(WORD_S)|bit(WORD_T))); // Remove single-mean
 2056              		.loc 1 824 0
 2057 0c50 27F44873 		bic	r3, r7, #800
 2058 0c54 23F00103 		bic	r3, r3, #1
 2059 0c58 9BB2     		uxth	r3, r3
 2060              	.LVL247:
 2061              	.L133:
 825:gcode.c       ****   }
 826:gcode.c       ****   if (axis_command) { bit_false(value_words,(bit(WORD_X)|bit(WORD_Y)|bit(WORD_Z))); } // Remove axi
 2062              		.loc 1 826 0
 2063 0c5a 089A     		ldr	r2, [sp, #32]
 2064 0c5c 12B1     		cbz	r2, .L134
 2065              		.loc 1 826 0 is_stmt 0 discriminator 1
 2066 0c5e 23F4E053 		bic	r3, r3, #7168
 2067              	.LVL248:
 2068 0c62 9BB2     		uxth	r3, r3
 2069              	.LVL249:
 2070              	.L134:
 827:gcode.c       ****   if (value_words) { FAIL(STATUS_GCODE_UNUSED_WORDS); } // [Unused words]
 2071              		.loc 1 827 0 is_stmt 1
 2072 0c64 002B     		cmp	r3, #0
 2073 0c66 40F05382 		bne	.L239
 2074              	.LVL250:
 828:gcode.c       **** 
 829:gcode.c       ****   /* -------------------------------------------------------------------------------------
 830:gcode.c       ****      STEP 4: EXECUTE!!
 831:gcode.c       ****      Assumes that all error-checking has been completed and no failure modes exist. We just
 832:gcode.c       ****      need to update the state and execute the block according to the order-of-execution.
 833:gcode.c       ****   */
 834:gcode.c       **** 
 835:gcode.c       ****   // Initialize planner data struct for motion blocks.
 836:gcode.c       ****   plan_line_data_t plan_data;
 837:gcode.c       ****   plan_line_data_t *pl_data = &plan_data;
 838:gcode.c       ****   memset(pl_data,0,sizeof(plan_line_data_t)); // Zero pl_data struct
 2075              		.loc 1 838 0
 2076 0c6a 10A8     		add	r0, sp, #64
 2077              	.LVL251:
 2078 0c6c 0021     		movs	r1, #0
 2079 0c6e 0C22     		movs	r2, #12
 2080 0c70 FFF7FEFF 		bl	memset
 2081              	.LVL252:
 839:gcode.c       **** 
 840:gcode.c       ****   // Intercept jog commands and complete error checking for valid jog commands and execute.
 841:gcode.c       ****   // NOTE: G-code parser state is not updated, except the position to ensure sequential jog
 842:gcode.c       ****   // targets are computed correctly. The final parser position after a jog is updated in
 843:gcode.c       ****   // protocol_execute_realtime() when jogging completes or is canceled.
 844:gcode.c       ****   if (gc_parser_flags & GC_PARSER_JOG_MOTION) {
 2082              		.loc 1 844 0
 2083 0c74 FCB1     		cbz	r4, .L135
 2084              	.LBB8:
 845:gcode.c       ****     // Only distance and unit modal commands and G53 absolute override command are allowed.
 846:gcode.c       ****     // NOTE: Feed rate word and axis word checks have already been performed in STEP 3.
ARM GAS  C:\Users\miker\AppData\Local\Temp\cctp1tOt.s 			page 55


 847:gcode.c       ****     if (command_words & ~(bit(MODAL_GROUP_G3) | bit(MODAL_GROUP_G6 | bit(MODAL_GROUP_G0))) ) { FAIL
 2085              		.loc 1 847 0
 2086 0c76 36F04903 		bics	r3, r6, #73
 2087 0c7a 40F04B82 		bne	.L240
 848:gcode.c       ****     if (!(gc_block.non_modal_command == NON_MODAL_ABSOLUTE_OVERRIDE || gc_block.non_modal_command =
 2088              		.loc 1 848 0
 2089 0c7e 544B     		ldr	r3, .L262+16
 2090 0c80 1B78     		ldrb	r3, [r3]	@ zero_extendqisi2
 2091 0c82 352B     		cmp	r3, #53
 2092 0c84 02D0     		beq	.L136
 2093              		.loc 1 848 0 is_stmt 0 discriminator 1
 2094 0c86 002B     		cmp	r3, #0
 2095 0c88 40F04682 		bne	.L241
 2096              	.L136:
 849:gcode.c       **** 
 850:gcode.c       ****     // Initialize planner data to current spindle and coolant modal state.
 851:gcode.c       ****     pl_data->spindle_speed = gc_state.spindle_speed;
 2097              		.loc 1 851 0 is_stmt 1
 2098 0c8c 534A     		ldr	r2, .L262+28
 2099 0c8e D368     		ldr	r3, [r2, #12]	@ float
 2100 0c90 1193     		str	r3, [sp, #68]	@ float
 852:gcode.c       ****     plan_data.condition = (gc_state.modal.spindle | gc_state.modal.coolant);
 2101              		.loc 1 852 0
 2102 0c92 517A     		ldrb	r1, [r2, #9]	@ zero_extendqisi2
 2103 0c94 137A     		ldrb	r3, [r2, #8]	@ zero_extendqisi2
 2104 0c96 0B43     		orrs	r3, r3, r1
 2105 0c98 8DF84830 		strb	r3, [sp, #72]
 853:gcode.c       **** 
 854:gcode.c       ****     uint8_t status = jog_execute(&plan_data, &gc_block);
 2106              		.loc 1 854 0
 2107 0c9c 10A8     		add	r0, sp, #64
 2108              	.LVL253:
 2109 0c9e 4C49     		ldr	r1, .L262+16
 2110 0ca0 FFF7FEFF 		bl	jog_execute
 2111              	.LVL254:
 855:gcode.c       ****     if (status == STATUS_OK) { memcpy(gc_state.position, gc_block.values.xyz, sizeof(gc_block.value
 2112              		.loc 1 855 0
 2113 0ca4 0346     		mov	r3, r0
 2114 0ca6 20B9     		cbnz	r0, .L137
 2115              		.loc 1 855 0 is_stmt 0 discriminator 1
 2116 0ca8 4A4C     		ldr	r4, .L262+20
 2117 0caa 4B4A     		ldr	r2, .L262+24
 2118 0cac 07CA     		ldmia	r2, {r0, r1, r2}
 2119              	.LVL255:
 2120 0cae 84E80700 		stmia	r4, {r0, r1, r2}
 2121              	.L137:
 856:gcode.c       ****     return(status);
 2122              		.loc 1 856 0 is_stmt 1
 2123 0cb2 1846     		mov	r0, r3
 2124 0cb4 33E2     		b	.L15
 2125              	.L135:
 2126              	.LBE8:
 857:gcode.c       ****   }
 858:gcode.c       ****   
 859:gcode.c       ****   // If in laser mode, setup laser power based on current and past parser conditions.
 860:gcode.c       ****   if (bit_istrue(settings.flags,BITFLAG_LASER_MODE)) {
 2127              		.loc 1 860 0
ARM GAS  C:\Users\miker\AppData\Local\Temp\cctp1tOt.s 			page 56


 2128 0cb6 4A4B     		ldr	r3, .L262+32
 2129 0cb8 93F84830 		ldrb	r3, [r3, #72]	@ zero_extendqisi2
 2130 0cbc 13F0020F 		tst	r3, #2
 2131 0cc0 24D0     		beq	.L138
 861:gcode.c       ****     if ( !((gc_block.modal.motion == MOTION_MODE_LINEAR) || (gc_block.modal.motion == MOTION_MODE_C
 2132              		.loc 1 861 0
 2133 0cc2 434B     		ldr	r3, .L262+16
 2134 0cc4 5B78     		ldrb	r3, [r3, #1]	@ zero_extendqisi2
 2135 0cc6 013B     		subs	r3, r3, #1
 2136 0cc8 DBB2     		uxtb	r3, r3
 2137 0cca 022B     		cmp	r3, #2
 2138 0ccc 01D9     		bls	.L139
 862:gcode.c       ****         || (gc_block.modal.motion == MOTION_MODE_CCW_ARC)) ) {
 863:gcode.c       ****       gc_parser_flags |= GC_PARSER_LASER_DISABLE;
 2139              		.loc 1 863 0
 2140 0cce 4AF0400A 		orr	r10, r10, #64
 2141              	.LVL256:
 2142              	.L139:
 864:gcode.c       ****     }
 865:gcode.c       **** 
 866:gcode.c       ****     // Any motion mode with axis words is allowed to be passed from a spindle speed update. 
 867:gcode.c       ****     // NOTE: G1 and G0 without axis words sets axis_command to none. G28/30 are intentionally omitt
 868:gcode.c       ****     // TODO: Check sync conditions for M3 enabled motions that don't enter the planner. (zero lengt
 869:gcode.c       ****     if (axis_words && (axis_command == AXIS_COMMAND_MOTION_MODE)) { 
 2143              		.loc 1 869 0
 2144 0cd2 079B     		ldr	r3, [sp, #28]
 2145 0cd4 2BB1     		cbz	r3, .L140
 2146              		.loc 1 869 0 is_stmt 0 discriminator 1
 2147 0cd6 089B     		ldr	r3, [sp, #32]
 2148 0cd8 022B     		cmp	r3, #2
 2149 0cda 02D1     		bne	.L140
 870:gcode.c       ****       gc_parser_flags |= GC_PARSER_LASER_ISMOTION; 
 2150              		.loc 1 870 0 is_stmt 1
 2151 0cdc 4AF0800A 		orr	r10, r10, #128
 2152              	.LVL257:
 2153 0ce0 14E0     		b	.L138
 2154              	.L140:
 871:gcode.c       ****     } else {
 872:gcode.c       ****       // M3 constant power laser requires planner syncs to update the laser when changing between
 873:gcode.c       ****       // a G1/2/3 motion mode state and vice versa when there is no motion in the line.
 874:gcode.c       ****       if (gc_state.modal.spindle == SPINDLE_ENABLE_CW) {
 2155              		.loc 1 874 0
 2156 0ce2 3E4B     		ldr	r3, .L262+28
 2157 0ce4 5B7A     		ldrb	r3, [r3, #9]	@ zero_extendqisi2
 2158 0ce6 102B     		cmp	r3, #16
 2159 0ce8 10D1     		bne	.L138
 875:gcode.c       ****         if ((gc_state.modal.motion == MOTION_MODE_LINEAR) || (gc_state.modal.motion == MOTION_MODE_
 2160              		.loc 1 875 0
 2161 0cea 3C4B     		ldr	r3, .L262+28
 2162 0cec 1B78     		ldrb	r3, [r3]	@ zero_extendqisi2
 876:gcode.c       ****             || (gc_state.modal.motion == MOTION_MODE_CCW_ARC)) {
 2163              		.loc 1 876 0
 2164 0cee 013B     		subs	r3, r3, #1
 2165 0cf0 DBB2     		uxtb	r3, r3
 875:gcode.c       ****         if ((gc_state.modal.motion == MOTION_MODE_LINEAR) || (gc_state.modal.motion == MOTION_MODE_
 2166              		.loc 1 875 0
 2167 0cf2 022B     		cmp	r3, #2
ARM GAS  C:\Users\miker\AppData\Local\Temp\cctp1tOt.s 			page 57


 2168 0cf4 05D8     		bhi	.L141
 877:gcode.c       ****           if (bit_istrue(gc_parser_flags,GC_PARSER_LASER_DISABLE)) { 
 2169              		.loc 1 877 0
 2170 0cf6 1AF0400F 		tst	r10, #64
 2171 0cfa 07D0     		beq	.L138
 878:gcode.c       ****             gc_parser_flags |= GC_PARSER_LASER_FORCE_SYNC; // Change from G1/2/3 motion mode.
 2172              		.loc 1 878 0
 2173 0cfc 4AF0200A 		orr	r10, r10, #32
 2174              	.LVL258:
 2175 0d00 04E0     		b	.L138
 2176              	.L141:
 879:gcode.c       ****           }
 880:gcode.c       ****         } else {
 881:gcode.c       ****           // When changing to a G1 motion mode without axis words from a non-G1/2/3 motion mode.
 882:gcode.c       ****           if (bit_isfalse(gc_parser_flags,GC_PARSER_LASER_DISABLE)) { 
 2177              		.loc 1 882 0
 2178 0d02 1AF0400F 		tst	r10, #64
 2179 0d06 01D1     		bne	.L138
 883:gcode.c       ****             gc_parser_flags |= GC_PARSER_LASER_FORCE_SYNC;
 2180              		.loc 1 883 0
 2181 0d08 4AF0200A 		orr	r10, r10, #32
 2182              	.LVL259:
 2183              	.L138:
 884:gcode.c       ****           }
 885:gcode.c       ****         } 
 886:gcode.c       ****       }
 887:gcode.c       ****     }
 888:gcode.c       ****   }
 889:gcode.c       **** 
 890:gcode.c       ****   // [0. Non-specific/common error-checks and miscellaneous setup]:
 891:gcode.c       ****   // NOTE: If no line number is present, the value is zero.
 892:gcode.c       ****   gc_state.line_number = gc_block.values.n;
 2184              		.loc 1 892 0
 2185 0d0c 304B     		ldr	r3, .L262+16
 2186 0d0e 196A     		ldr	r1, [r3, #32]
 2187 0d10 324A     		ldr	r2, .L262+28
 2188 0d12 9161     		str	r1, [r2, #24]
 893:gcode.c       ****   #ifdef USE_LINE_NUMBERS
 894:gcode.c       ****     pl_data->line_number = gc_state.line_number; // Record data for planner use.
 895:gcode.c       ****   #endif
 896:gcode.c       **** 
 897:gcode.c       ****   // [1. Comments feedback ]:  NOT SUPPORTED
 898:gcode.c       **** 
 899:gcode.c       ****   // [2. Set feed rate mode ]:
 900:gcode.c       ****   gc_state.modal.feed_rate = gc_block.modal.feed_rate;
 2189              		.loc 1 900 0
 2190 0d14 9B78     		ldrb	r3, [r3, #2]	@ zero_extendqisi2
 2191 0d16 5370     		strb	r3, [r2, #1]
 901:gcode.c       ****   if (gc_state.modal.feed_rate) { pl_data->condition |= PL_COND_FLAG_INVERSE_TIME; } // Set conditi
 2192              		.loc 1 901 0
 2193 0d18 13B1     		cbz	r3, .L142
 2194              		.loc 1 901 0 is_stmt 0 discriminator 1
 2195 0d1a 0823     		movs	r3, #8
 2196 0d1c 8DF84830 		strb	r3, [sp, #72]
 2197              	.L142:
 902:gcode.c       **** 
 903:gcode.c       ****   // [3. Set feed rate ]:
ARM GAS  C:\Users\miker\AppData\Local\Temp\cctp1tOt.s 			page 58


 904:gcode.c       ****   gc_state.feed_rate = gc_block.values.f; // Always copy this value. See feed rate error-checking.
 2198              		.loc 1 904 0 is_stmt 1
 2199 0d20 2B4A     		ldr	r2, .L262+16
 2200 0d22 D168     		ldr	r1, [r2, #12]	@ float
 2201 0d24 2D4B     		ldr	r3, .L262+28
 2202 0d26 1961     		str	r1, [r3, #16]	@ float
 905:gcode.c       ****   pl_data->feed_rate = gc_state.feed_rate; // Record data for planner use.
 2203              		.loc 1 905 0
 2204 0d28 1091     		str	r1, [sp, #64]	@ float
 906:gcode.c       **** 
 907:gcode.c       ****   // [4. Set spindle speed ]:
 908:gcode.c       ****   if ((gc_state.spindle_speed != gc_block.values.s) || bit_istrue(gc_parser_flags,GC_PARSER_LASER_F
 2205              		.loc 1 908 0
 2206 0d2a D56A     		ldr	r5, [r2, #44]	@ float
 2207 0d2c D868     		ldr	r0, [r3, #12]	@ float
 2208 0d2e 2946     		mov	r1, r5
 2209 0d30 FFF7FEFF 		bl	__aeabi_fcmpeq
 2210              	.LVL260:
 2211 0d34 10B1     		cbz	r0, .L143
 2212              		.loc 1 908 0 is_stmt 0 discriminator 1
 2213 0d36 1AF0200F 		tst	r10, #32
 2214 0d3a 13D0     		beq	.L144
 2215              	.L143:
 909:gcode.c       ****     if (gc_state.modal.spindle != SPINDLE_DISABLE) { 
 2216              		.loc 1 909 0 is_stmt 1
 2217 0d3c 274B     		ldr	r3, .L262+28
 2218 0d3e 587A     		ldrb	r0, [r3, #9]	@ zero_extendqisi2
 2219 0d40 60B1     		cbz	r0, .L145
 910:gcode.c       ****       #ifdef VARIABLE_SPINDLE
 911:gcode.c       ****         if (bit_isfalse(gc_parser_flags,GC_PARSER_LASER_ISMOTION)) {
 2220              		.loc 1 911 0
 2221 0d42 1AF0800F 		tst	r10, #128
 2222 0d46 09D1     		bne	.L145
 912:gcode.c       ****           if (bit_istrue(gc_parser_flags,GC_PARSER_LASER_DISABLE)) {
 2223              		.loc 1 912 0
 2224 0d48 1AF0400F 		tst	r10, #64
 2225 0d4c 03D0     		beq	.L146
 913:gcode.c       ****              spindle_sync(gc_state.modal.spindle, 0.0);
 2226              		.loc 1 913 0
 2227 0d4e 0021     		movs	r1, #0
 2228 0d50 FFF7FEFF 		bl	spindle_sync
 2229              	.LVL261:
 2230 0d54 02E0     		b	.L145
 2231              	.L146:
 914:gcode.c       ****           } else { spindle_sync(gc_state.modal.spindle, gc_block.values.s); }
 2232              		.loc 1 914 0
 2233 0d56 2946     		mov	r1, r5
 2234 0d58 FFF7FEFF 		bl	spindle_sync
 2235              	.LVL262:
 2236              	.L145:
 915:gcode.c       ****         }
 916:gcode.c       ****       #else
 917:gcode.c       ****         spindle_sync(gc_state.modal.spindle, 0.0);
 918:gcode.c       ****       #endif
 919:gcode.c       ****     }
 920:gcode.c       ****     gc_state.spindle_speed = gc_block.values.s; // Update spindle speed state.
 2237              		.loc 1 920 0
ARM GAS  C:\Users\miker\AppData\Local\Temp\cctp1tOt.s 			page 59


 2238 0d5c 1C4B     		ldr	r3, .L262+16
 2239 0d5e DA6A     		ldr	r2, [r3, #44]	@ float
 2240 0d60 1E4B     		ldr	r3, .L262+28
 2241 0d62 DA60     		str	r2, [r3, #12]	@ float
 2242              	.L144:
 921:gcode.c       ****   }
 922:gcode.c       ****   // NOTE: Pass zero spindle speed for all restricted laser motions.
 923:gcode.c       ****   if (bit_isfalse(gc_parser_flags,GC_PARSER_LASER_DISABLE)) {
 2243              		.loc 1 923 0
 2244 0d64 1AF0400F 		tst	r10, #64
 2245 0d68 02D1     		bne	.L147
 924:gcode.c       ****     pl_data->spindle_speed = gc_state.spindle_speed; // Record data for planner use. 
 2246              		.loc 1 924 0
 2247 0d6a 1C4B     		ldr	r3, .L262+28
 2248 0d6c DB68     		ldr	r3, [r3, #12]	@ float
 2249 0d6e 1193     		str	r3, [sp, #68]	@ float
 2250              	.L147:
 925:gcode.c       ****   } // else { pl_data->spindle_speed = 0.0; } // Initialized as zero already.
 926:gcode.c       ****   
 927:gcode.c       ****   // [5. Select tool ]: NOT SUPPORTED. Only tracks tool value.
 928:gcode.c       ****   gc_state.tool = gc_block.values.t;
 2251              		.loc 1 928 0
 2252 0d70 174B     		ldr	r3, .L262+16
 2253 0d72 93F83010 		ldrb	r1, [r3, #48]	@ zero_extendqisi2
 2254 0d76 194A     		ldr	r2, .L262+28
 2255 0d78 1175     		strb	r1, [r2, #20]
 929:gcode.c       **** 
 930:gcode.c       ****   // [6. Change tool ]: NOT SUPPORTED
 931:gcode.c       **** 
 932:gcode.c       ****   // [7. Spindle control ]:
 933:gcode.c       ****   if (gc_state.modal.spindle != gc_block.modal.spindle) {
 2256              		.loc 1 933 0
 2257 0d7a 527A     		ldrb	r2, [r2, #9]	@ zero_extendqisi2
 2258 0d7c 987A     		ldrb	r0, [r3, #10]	@ zero_extendqisi2
 2259 0d7e 8242     		cmp	r2, r0
 2260 0d80 06D0     		beq	.L148
 934:gcode.c       ****     // Update spindle control and apply spindle speed when enabling it in this block.
 935:gcode.c       ****     // NOTE: All spindle state changes are synced, even in laser mode. Also, pl_data,
 936:gcode.c       ****     // rather than gc_state, is used to manage laser state for non-laser motions.
 937:gcode.c       ****     spindle_sync(gc_block.modal.spindle, pl_data->spindle_speed);
 2261              		.loc 1 937 0
 2262 0d82 1199     		ldr	r1, [sp, #68]	@ float
 2263 0d84 FFF7FEFF 		bl	spindle_sync
 2264              	.LVL263:
 938:gcode.c       ****     gc_state.modal.spindle = gc_block.modal.spindle;
 2265              		.loc 1 938 0
 2266 0d88 114B     		ldr	r3, .L262+16
 2267 0d8a 9A7A     		ldrb	r2, [r3, #10]	@ zero_extendqisi2
 2268 0d8c 134B     		ldr	r3, .L262+28
 2269 0d8e 5A72     		strb	r2, [r3, #9]
 2270              	.L148:
 939:gcode.c       ****   }
 940:gcode.c       ****   pl_data->condition |= gc_state.modal.spindle; // Set condition flag for planner use.
 2271              		.loc 1 940 0
 2272 0d90 124A     		ldr	r2, .L262+28
 2273 0d92 517A     		ldrb	r1, [r2, #9]	@ zero_extendqisi2
 2274 0d94 9DF84830 		ldrb	r3, [sp, #72]	@ zero_extendqisi2
ARM GAS  C:\Users\miker\AppData\Local\Temp\cctp1tOt.s 			page 60


 2275 0d98 0B43     		orrs	r3, r3, r1
 2276 0d9a 8DF84830 		strb	r3, [sp, #72]
 941:gcode.c       **** 
 942:gcode.c       ****   // [8. Coolant control ]:
 943:gcode.c       ****   if (gc_state.modal.coolant != gc_block.modal.coolant) {
 2277              		.loc 1 943 0
 2278 0d9e 137A     		ldrb	r3, [r2, #8]	@ zero_extendqisi2
 2279 0da0 0B4A     		ldr	r2, .L262+16
 2280 0da2 507A     		ldrb	r0, [r2, #9]	@ zero_extendqisi2
 2281 0da4 8342     		cmp	r3, r0
 2282 0da6 21D0     		beq	.L149
 944:gcode.c       ****     // NOTE: Coolant M-codes are modal. Only one command per line is allowed. But, multiple states
 945:gcode.c       ****     // can exist at the same time, while coolant disable clears all states.
 946:gcode.c       ****     coolant_sync(gc_block.modal.coolant);
 2283              		.loc 1 946 0
 2284 0da8 FFF7FEFF 		bl	coolant_sync
 2285              	.LVL264:
 947:gcode.c       ****     if (gc_block.modal.coolant == COOLANT_DISABLE) { gc_state.modal.coolant = COOLANT_DISABLE; }
 2286              		.loc 1 947 0
 2287 0dac 084B     		ldr	r3, .L262+16
 2288 0dae 597A     		ldrb	r1, [r3, #9]	@ zero_extendqisi2
 2289 0db0 C1B9     		cbnz	r1, .L150
 2290              		.loc 1 947 0 is_stmt 0 discriminator 1
 2291 0db2 0022     		movs	r2, #0
 2292 0db4 094B     		ldr	r3, .L262+28
 2293 0db6 1A72     		strb	r2, [r3, #8]
 2294 0db8 18E0     		b	.L149
 2295              	.L263:
 2296 0dba 00BFAFF3 		.align	3
 2296      0080
 2297              	.L262:
 2298 0dc0 7B14AE47 		.word	1202590843
 2299 0dc4 E17A743F 		.word	1064598241
 2300 0dc8 FCA9F1D2 		.word	-755914244
 2301 0dcc 4D62503F 		.word	1062232653
 2302 0dd0 00000000 		.word	gc_block
 2303 0dd4 1C000000 		.word	gc_state+28
 2304 0dd8 34000000 		.word	gc_block+52
 2305 0ddc 00000000 		.word	gc_state
 2306 0de0 00000000 		.word	settings
 2307              	.L150:
 948:gcode.c       ****     else { gc_state.modal.coolant |= gc_block.modal.coolant; }
 2308              		.loc 1 948 0 is_stmt 1
 2309 0de4 A94A     		ldr	r2, .L264
 2310 0de6 137A     		ldrb	r3, [r2, #8]	@ zero_extendqisi2
 2311 0de8 0B43     		orrs	r3, r3, r1
 2312 0dea 1372     		strb	r3, [r2, #8]
 2313              	.L149:
 949:gcode.c       ****   }
 950:gcode.c       ****   pl_data->condition |= gc_state.modal.coolant; // Set condition flag for planner use.
 2314              		.loc 1 950 0
 2315 0dec A74B     		ldr	r3, .L264
 2316 0dee 1A7A     		ldrb	r2, [r3, #8]	@ zero_extendqisi2
 2317 0df0 9DF84830 		ldrb	r3, [sp, #72]	@ zero_extendqisi2
 2318 0df4 1343     		orrs	r3, r3, r2
 2319 0df6 8DF84830 		strb	r3, [sp, #72]
 951:gcode.c       **** 
ARM GAS  C:\Users\miker\AppData\Local\Temp\cctp1tOt.s 			page 61


 952:gcode.c       ****   // [9. Enable/disable feed rate or spindle overrides ]: NOT SUPPORTED. Always enabled.
 953:gcode.c       **** 
 954:gcode.c       ****   // [10. Dwell ]:
 955:gcode.c       ****   if (gc_block.non_modal_command == NON_MODAL_DWELL) { mc_dwell(gc_block.values.p); }
 2320              		.loc 1 955 0
 2321 0dfa A54B     		ldr	r3, .L264+4
 2322 0dfc 1B78     		ldrb	r3, [r3]	@ zero_extendqisi2
 2323 0dfe 042B     		cmp	r3, #4
 2324 0e00 03D1     		bne	.L151
 2325              		.loc 1 955 0 is_stmt 0 discriminator 1
 2326 0e02 A34B     		ldr	r3, .L264+4
 2327 0e04 586A     		ldr	r0, [r3, #36]	@ float
 2328 0e06 FFF7FEFF 		bl	mc_dwell
 2329              	.LVL265:
 2330              	.L151:
 956:gcode.c       **** 
 957:gcode.c       ****   // [11. Set active plane ]:
 958:gcode.c       ****   gc_state.modal.plane_select = gc_block.modal.plane_select;
 2331              		.loc 1 958 0 is_stmt 1
 2332 0e0a A14A     		ldr	r2, .L264+4
 2333 0e0c 5179     		ldrb	r1, [r2, #5]	@ zero_extendqisi2
 2334 0e0e 9F4B     		ldr	r3, .L264
 2335 0e10 1971     		strb	r1, [r3, #4]
 959:gcode.c       **** 
 960:gcode.c       ****   // [12. Set length units ]:
 961:gcode.c       ****   gc_state.modal.units = gc_block.modal.units;
 2336              		.loc 1 961 0
 2337 0e12 D278     		ldrb	r2, [r2, #3]	@ zero_extendqisi2
 2338 0e14 9A70     		strb	r2, [r3, #2]
 962:gcode.c       **** 
 963:gcode.c       ****   // [13. Cutter radius compensation ]: G41/42 NOT SUPPORTED
 964:gcode.c       ****   // gc_state.modal.cutter_comp = gc_block.modal.cutter_comp; // NOTE: Not needed since always disa
 965:gcode.c       **** 
 966:gcode.c       ****   // [14. Cutter length compensation ]: G43.1 and G49 supported. G43 NOT SUPPORTED.
 967:gcode.c       ****   // NOTE: If G43 were supported, its operation wouldn't be any different from G43.1 in terms
 968:gcode.c       ****   // of execution. The error-checking step would simply load the offset value into the correct
 969:gcode.c       ****   // axis of the block XYZ value array.
 970:gcode.c       ****   if (axis_command == AXIS_COMMAND_TOOL_LENGTH_OFFSET ) { // Indicates a change.
 2339              		.loc 1 970 0
 2340 0e16 089B     		ldr	r3, [sp, #32]
 2341 0e18 032B     		cmp	r3, #3
 2342 0e1a 13D1     		bne	.L152
 971:gcode.c       ****     gc_state.modal.tool_length = gc_block.modal.tool_length;
 2343              		.loc 1 971 0
 2344 0e1c 9C4B     		ldr	r3, .L264+4
 2345 0e1e 9B79     		ldrb	r3, [r3, #6]	@ zero_extendqisi2
 2346 0e20 9A4A     		ldr	r2, .L264
 2347 0e22 5371     		strb	r3, [r2, #5]
 972:gcode.c       ****     if (gc_state.modal.tool_length == TOOL_LENGTH_OFFSET_CANCEL) { // G49
 2348              		.loc 1 972 0
 2349 0e24 13B9     		cbnz	r3, .L153
 973:gcode.c       ****       gc_block.values.xyz[TOOL_LENGTH_OFFSET_AXIS] = 0.0;
 2350              		.loc 1 973 0
 2351 0e26 0022     		movs	r2, #0
 2352 0e28 994B     		ldr	r3, .L264+4
 2353 0e2a DA63     		str	r2, [r3, #60]	@ float
 2354              	.L153:
ARM GAS  C:\Users\miker\AppData\Local\Temp\cctp1tOt.s 			page 62


 974:gcode.c       ****     } // else G43.1
 975:gcode.c       ****     if ( gc_state.tool_length_offset != gc_block.values.xyz[TOOL_LENGTH_OFFSET_AXIS] ) {
 2355              		.loc 1 975 0
 2356 0e2c 984B     		ldr	r3, .L264+4
 2357 0e2e DD6B     		ldr	r5, [r3, #60]	@ float
 2358 0e30 964B     		ldr	r3, .L264
 2359 0e32 186C     		ldr	r0, [r3, #64]	@ float
 2360 0e34 2946     		mov	r1, r5
 2361 0e36 FFF7FEFF 		bl	__aeabi_fcmpeq
 2362              	.LVL266:
 2363 0e3a 18B9     		cbnz	r0, .L152
 976:gcode.c       ****       gc_state.tool_length_offset = gc_block.values.xyz[TOOL_LENGTH_OFFSET_AXIS];
 2364              		.loc 1 976 0
 2365 0e3c 934B     		ldr	r3, .L264
 2366 0e3e 1D64     		str	r5, [r3, #64]	@ float
 977:gcode.c       ****       system_flag_wco_change();
 2367              		.loc 1 977 0
 2368 0e40 FFF7FEFF 		bl	system_flag_wco_change
 2369              	.LVL267:
 2370              	.L152:
 978:gcode.c       ****     }
 979:gcode.c       ****   }
 980:gcode.c       **** 
 981:gcode.c       ****   // [15. Coordinate system selection ]:
 982:gcode.c       ****   if (gc_state.modal.coord_select != gc_block.modal.coord_select) {
 2371              		.loc 1 982 0
 2372 0e44 914B     		ldr	r3, .L264
 2373 0e46 9B79     		ldrb	r3, [r3, #6]	@ zero_extendqisi2
 2374 0e48 914A     		ldr	r2, .L264+4
 2375 0e4a D279     		ldrb	r2, [r2, #7]	@ zero_extendqisi2
 2376 0e4c 9342     		cmp	r3, r2
 2377 0e4e 08D0     		beq	.L155
 983:gcode.c       ****     gc_state.modal.coord_select = gc_block.modal.coord_select;
 2378              		.loc 1 983 0
 2379 0e50 8E4B     		ldr	r3, .L264
 2380 0e52 9A71     		strb	r2, [r3, #6]
 984:gcode.c       ****     memcpy(gc_state.coord_system,block_coord_system,N_AXIS*sizeof(float));
 2381              		.loc 1 984 0
 2382 0e54 2833     		adds	r3, r3, #40
 2383 0e56 13AA     		add	r2, sp, #76
 2384 0e58 07CA     		ldmia	r2, {r0, r1, r2}
 2385 0e5a 83E80700 		stmia	r3, {r0, r1, r2}
 985:gcode.c       ****     system_flag_wco_change();
 2386              		.loc 1 985 0
 2387 0e5e FFF7FEFF 		bl	system_flag_wco_change
 2388              	.LVL268:
 2389              	.L155:
 986:gcode.c       ****   }
 987:gcode.c       **** 
 988:gcode.c       ****   // [16. Set path control mode ]: G61.1/G64 NOT SUPPORTED
 989:gcode.c       ****   // gc_state.modal.control = gc_block.modal.control; // NOTE: Always default.
 990:gcode.c       **** 
 991:gcode.c       ****   // [17. Set distance mode ]:
 992:gcode.c       ****   gc_state.modal.distance = gc_block.modal.distance;
 2390              		.loc 1 992 0
 2391 0e62 8B4B     		ldr	r3, .L264+4
 2392 0e64 1979     		ldrb	r1, [r3, #4]	@ zero_extendqisi2
ARM GAS  C:\Users\miker\AppData\Local\Temp\cctp1tOt.s 			page 63


 2393 0e66 894A     		ldr	r2, .L264
 2394 0e68 D170     		strb	r1, [r2, #3]
 993:gcode.c       **** 
 994:gcode.c       ****   // [18. Set retract mode ]: NOT SUPPORTED
 995:gcode.c       **** 
 996:gcode.c       ****   // [19. Go to predefined position, Set G10, or Set axis offsets ]:
 997:gcode.c       ****   switch(gc_block.non_modal_command) {
 2395              		.loc 1 997 0
 2396 0e6a 1B78     		ldrb	r3, [r3]	@ zero_extendqisi2
 2397 0e6c 262B     		cmp	r3, #38
 2398 0e6e 36D0     		beq	.L157
 2399 0e70 06D8     		bhi	.L158
 2400 0e72 1C2B     		cmp	r3, #28
 2401 0e74 1CD0     		beq	.L159
 2402 0e76 1E2B     		cmp	r3, #30
 2403 0e78 1AD0     		beq	.L159
 2404 0e7a 0A2B     		cmp	r3, #10
 2405 0e7c 07D0     		beq	.L160
 2406 0e7e 47E0     		b	.L156
 2407              	.L158:
 2408 0e80 5C2B     		cmp	r3, #92
 2409 0e82 36D0     		beq	.L161
 2410 0e84 662B     		cmp	r3, #102
 2411 0e86 3CD0     		beq	.L162
 2412 0e88 282B     		cmp	r3, #40
 2413 0e8a 41D1     		bne	.L156
 2414 0e8c 2CE0     		b	.L163
 2415              	.L160:
 998:gcode.c       ****     case NON_MODAL_SET_COORDINATE_DATA:
 999:gcode.c       ****       settings_write_coord_data(coord_select,gc_block.values.ijk);
 2416              		.loc 1 999 0
 2417 0e8e 0B9D     		ldr	r5, [sp, #44]
 2418 0e90 2846     		mov	r0, r5
 2419 0e92 8049     		ldr	r1, .L264+8
 2420 0e94 FFF7FEFF 		bl	settings_write_coord_data
 2421              	.LVL269:
1000:gcode.c       ****       // Update system coordinate system if currently active.
1001:gcode.c       ****       if (gc_state.modal.coord_select == coord_select) {
 2422              		.loc 1 1001 0
 2423 0e98 7C4B     		ldr	r3, .L264
 2424 0e9a 9B79     		ldrb	r3, [r3, #6]	@ zero_extendqisi2
 2425 0e9c AB42     		cmp	r3, r5
 2426 0e9e 37D1     		bne	.L156
1002:gcode.c       ****         memcpy(gc_state.coord_system,gc_block.values.ijk,N_AXIS*sizeof(float));
 2427              		.loc 1 1002 0
 2428 0ea0 7D4B     		ldr	r3, .L264+12
 2429 0ea2 7C4A     		ldr	r2, .L264+8
 2430 0ea4 07CA     		ldmia	r2, {r0, r1, r2}
 2431 0ea6 83E80700 		stmia	r3, {r0, r1, r2}
1003:gcode.c       ****         system_flag_wco_change();
 2432              		.loc 1 1003 0
 2433 0eaa FFF7FEFF 		bl	system_flag_wco_change
 2434              	.LVL270:
 2435 0eae 2FE0     		b	.L156
 2436              	.L159:
1004:gcode.c       ****       }
1005:gcode.c       ****       break;
ARM GAS  C:\Users\miker\AppData\Local\Temp\cctp1tOt.s 			page 64


1006:gcode.c       ****     case NON_MODAL_GO_HOME_0: case NON_MODAL_GO_HOME_1:
1007:gcode.c       ****       // Move to intermediate position before going home. Obeys current coordinate system and offse
1008:gcode.c       ****       // and absolute and incremental modes.
1009:gcode.c       ****       pl_data->condition |= PL_COND_FLAG_RAPID_MOTION; // Set rapid motion condition flag.
 2437              		.loc 1 1009 0
 2438 0eb0 9DF84830 		ldrb	r3, [sp, #72]	@ zero_extendqisi2
 2439 0eb4 43F00103 		orr	r3, r3, #1
 2440 0eb8 8DF84830 		strb	r3, [sp, #72]
1010:gcode.c       ****       if (axis_command) { mc_line(gc_block.values.xyz, pl_data); }
 2441              		.loc 1 1010 0
 2442 0ebc 089B     		ldr	r3, [sp, #32]
 2443 0ebe 1BB1     		cbz	r3, .L164
 2444              		.loc 1 1010 0 is_stmt 0 discriminator 1
 2445 0ec0 7648     		ldr	r0, .L264+16
 2446 0ec2 10A9     		add	r1, sp, #64
 2447              	.LVL271:
 2448 0ec4 FFF7FEFF 		bl	mc_line
 2449              	.LVL272:
 2450              	.L164:
1011:gcode.c       ****       mc_line(gc_block.values.ijk, pl_data);
 2451              		.loc 1 1011 0 is_stmt 1
 2452 0ec8 724D     		ldr	r5, .L264+8
 2453 0eca 2846     		mov	r0, r5
 2454 0ecc 10A9     		add	r1, sp, #64
 2455              	.LVL273:
 2456 0ece FFF7FEFF 		bl	mc_line
 2457              	.LVL274:
1012:gcode.c       ****       memcpy(gc_state.position, gc_block.values.ijk, N_AXIS*sizeof(float));
 2458              		.loc 1 1012 0
 2459 0ed2 734B     		ldr	r3, .L264+20
 2460 0ed4 95E80700 		ldmia	r5, {r0, r1, r2}
 2461 0ed8 83E80700 		stmia	r3, {r0, r1, r2}
1013:gcode.c       ****       break;
 2462              		.loc 1 1013 0
 2463 0edc 18E0     		b	.L156
 2464              	.L157:
1014:gcode.c       ****     case NON_MODAL_SET_HOME_0:
1015:gcode.c       ****       settings_write_coord_data(SETTING_INDEX_G28,gc_state.position);
 2465              		.loc 1 1015 0
 2466 0ede 0620     		movs	r0, #6
 2467 0ee0 6F49     		ldr	r1, .L264+20
 2468 0ee2 FFF7FEFF 		bl	settings_write_coord_data
 2469              	.LVL275:
1016:gcode.c       ****       break;
 2470              		.loc 1 1016 0
 2471 0ee6 13E0     		b	.L156
 2472              	.L163:
1017:gcode.c       ****     case NON_MODAL_SET_HOME_1:
1018:gcode.c       ****       settings_write_coord_data(SETTING_INDEX_G30,gc_state.position);
 2473              		.loc 1 1018 0
 2474 0ee8 0720     		movs	r0, #7
 2475 0eea 6D49     		ldr	r1, .L264+20
 2476 0eec FFF7FEFF 		bl	settings_write_coord_data
 2477              	.LVL276:
1019:gcode.c       ****       break;
 2478              		.loc 1 1019 0
 2479 0ef0 0EE0     		b	.L156
ARM GAS  C:\Users\miker\AppData\Local\Temp\cctp1tOt.s 			page 65


 2480              	.L161:
1020:gcode.c       ****     case NON_MODAL_SET_COORDINATE_OFFSET:
1021:gcode.c       ****       memcpy(gc_state.coord_offset,gc_block.values.xyz,sizeof(gc_block.values.xyz));
 2481              		.loc 1 1021 0
 2482 0ef2 6C4B     		ldr	r3, .L264+24
 2483 0ef4 694A     		ldr	r2, .L264+16
 2484 0ef6 07CA     		ldmia	r2, {r0, r1, r2}
 2485 0ef8 83E80700 		stmia	r3, {r0, r1, r2}
1022:gcode.c       ****       system_flag_wco_change();
 2486              		.loc 1 1022 0
 2487 0efc FFF7FEFF 		bl	system_flag_wco_change
 2488              	.LVL277:
1023:gcode.c       ****       break;
 2489              		.loc 1 1023 0
 2490 0f00 06E0     		b	.L156
 2491              	.L162:
1024:gcode.c       ****     case NON_MODAL_RESET_COORDINATE_OFFSET:
1025:gcode.c       ****       clear_vector(gc_state.coord_offset); // Disable G92 offsets by zeroing offset vector.
 2492              		.loc 1 1025 0
 2493 0f02 6848     		ldr	r0, .L264+24
 2494 0f04 0021     		movs	r1, #0
 2495 0f06 0C22     		movs	r2, #12
 2496 0f08 FFF7FEFF 		bl	memset
 2497              	.LVL278:
1026:gcode.c       ****       system_flag_wco_change();
 2498              		.loc 1 1026 0
 2499 0f0c FFF7FEFF 		bl	system_flag_wco_change
 2500              	.LVL279:
 2501              	.L156:
1027:gcode.c       ****       break;
1028:gcode.c       ****   }
1029:gcode.c       **** 
1030:gcode.c       **** 
1031:gcode.c       ****   // [20. Motion modes ]:
1032:gcode.c       ****   // NOTE: Commands G10,G28,G30,G92 lock out and prevent axis words from use in motion modes.
1033:gcode.c       ****   // Enter motion modes only if there are axis words or a motion mode command word in the block.
1034:gcode.c       ****   gc_state.modal.motion = gc_block.modal.motion;
 2502              		.loc 1 1034 0
 2503 0f10 5F4B     		ldr	r3, .L264+4
 2504 0f12 5B78     		ldrb	r3, [r3, #1]	@ zero_extendqisi2
 2505 0f14 5D4A     		ldr	r2, .L264
 2506 0f16 1370     		strb	r3, [r2]
1035:gcode.c       ****   if (gc_state.modal.motion != MOTION_MODE_NONE) {
 2507              		.loc 1 1035 0
 2508 0f18 502B     		cmp	r3, #80
 2509 0f1a 46D0     		beq	.L165
1036:gcode.c       ****     if (axis_command == AXIS_COMMAND_MOTION_MODE) {
 2510              		.loc 1 1036 0
 2511 0f1c 089A     		ldr	r2, [sp, #32]
 2512 0f1e 022A     		cmp	r2, #2
 2513 0f20 43D1     		bne	.L165
 2514              	.LVL280:
 2515              	.LBB9:
1037:gcode.c       ****       uint8_t gc_update_pos = GC_UPDATE_POS_TARGET;
1038:gcode.c       ****       if (gc_state.modal.motion == MOTION_MODE_LINEAR) {
 2516              		.loc 1 1038 0
 2517 0f22 012B     		cmp	r3, #1
ARM GAS  C:\Users\miker\AppData\Local\Temp\cctp1tOt.s 			page 66


 2518 0f24 05D1     		bne	.L166
1039:gcode.c       ****         mc_line(gc_block.values.xyz, pl_data);
 2519              		.loc 1 1039 0
 2520 0f26 5D48     		ldr	r0, .L264+16
 2521 0f28 10A9     		add	r1, sp, #64
 2522              	.LVL281:
 2523 0f2a FFF7FEFF 		bl	mc_line
 2524              	.LVL282:
1037:gcode.c       ****       uint8_t gc_update_pos = GC_UPDATE_POS_TARGET;
 2525              		.loc 1 1037 0
 2526 0f2e 0020     		movs	r0, #0
 2527 0f30 30E0     		b	.L167
 2528              	.L166:
1040:gcode.c       ****       } else if (gc_state.modal.motion == MOTION_MODE_SEEK) {
 2529              		.loc 1 1040 0
 2530 0f32 5BB9     		cbnz	r3, .L168
1041:gcode.c       ****         pl_data->condition |= PL_COND_FLAG_RAPID_MOTION; // Set rapid motion condition flag.
 2531              		.loc 1 1041 0
 2532 0f34 9DF84830 		ldrb	r3, [sp, #72]	@ zero_extendqisi2
 2533 0f38 43F00103 		orr	r3, r3, #1
 2534 0f3c 8DF84830 		strb	r3, [sp, #72]
1042:gcode.c       ****         mc_line(gc_block.values.xyz, pl_data);
 2535              		.loc 1 1042 0
 2536 0f40 5648     		ldr	r0, .L264+16
 2537 0f42 10A9     		add	r1, sp, #64
 2538              	.LVL283:
 2539 0f44 FFF7FEFF 		bl	mc_line
 2540              	.LVL284:
1037:gcode.c       ****       if (gc_state.modal.motion == MOTION_MODE_LINEAR) {
 2541              		.loc 1 1037 0
 2542 0f48 0020     		movs	r0, #0
 2543 0f4a 23E0     		b	.L167
 2544              	.L168:
1043:gcode.c       ****       } else if ((gc_state.modal.motion == MOTION_MODE_CW_ARC) || (gc_state.modal.motion == MOTION_
 2545              		.loc 1 1043 0
 2546 0f4c 023B     		subs	r3, r3, #2
 2547 0f4e DBB2     		uxtb	r3, r3
 2548 0f50 012B     		cmp	r3, #1
 2549 0f52 14D8     		bhi	.L169
1044:gcode.c       ****         mc_arc(gc_block.values.xyz, pl_data, gc_state.position, gc_block.values.ijk, gc_block.value
 2550              		.loc 1 1044 0
 2551 0f54 514B     		ldr	r3, .L264+16
 2552 0f56 53F80C2C 		ldr	r2, [r3, #-12]	@ float
 2553 0f5a 0092     		str	r2, [sp]	@ float
 2554 0f5c CDF804B0 		str	fp, [sp, #4]
 2555 0f60 0A9A     		ldr	r2, [sp, #40]
 2556 0f62 0292     		str	r2, [sp, #8]
 2557 0f64 0C9A     		ldr	r2, [sp, #48]
 2558 0f66 0392     		str	r2, [sp, #12]
 2559 0f68 CAF38002 		ubfx	r2, r10, #2, #1
 2560 0f6c 0492     		str	r2, [sp, #16]
 2561 0f6e 1846     		mov	r0, r3
 2562 0f70 10A9     		add	r1, sp, #64
 2563              	.LVL285:
 2564 0f72 4B4A     		ldr	r2, .L264+20
 2565 0f74 243B     		subs	r3, r3, #36
 2566 0f76 FFF7FEFF 		bl	mc_arc
ARM GAS  C:\Users\miker\AppData\Local\Temp\cctp1tOt.s 			page 67


 2567              	.LVL286:
1037:gcode.c       ****       if (gc_state.modal.motion == MOTION_MODE_LINEAR) {
 2568              		.loc 1 1037 0
 2569 0f7a 0020     		movs	r0, #0
 2570 0f7c 0AE0     		b	.L167
 2571              	.L169:
1045:gcode.c       ****             axis_0, axis_1, axis_linear, bit_istrue(gc_parser_flags,GC_PARSER_ARC_IS_CLOCKWISE));
1046:gcode.c       ****       } else {
1047:gcode.c       ****         // NOTE: gc_block.values.xyz is returned from mc_probe_cycle with the updated position valu
1048:gcode.c       ****         // upon a successful probing cycle, the machine position and the returned value should be t
1049:gcode.c       ****         #ifndef ALLOW_FEED_OVERRIDE_DURING_PROBE_CYCLES
1050:gcode.c       ****           pl_data->condition |= PL_COND_FLAG_NO_FEED_OVERRIDE;
 2572              		.loc 1 1050 0
 2573 0f7e 9DF84830 		ldrb	r3, [sp, #72]	@ zero_extendqisi2
 2574 0f82 43F00403 		orr	r3, r3, #4
 2575 0f86 8DF84830 		strb	r3, [sp, #72]
1051:gcode.c       ****         #endif
1052:gcode.c       ****         gc_update_pos = mc_probe_cycle(gc_block.values.xyz, pl_data, gc_parser_flags);
 2576              		.loc 1 1052 0
 2577 0f8a 4448     		ldr	r0, .L264+16
 2578 0f8c 10A9     		add	r1, sp, #64
 2579              	.LVL287:
 2580 0f8e 5246     		mov	r2, r10
 2581 0f90 FFF7FEFF 		bl	mc_probe_cycle
 2582              	.LVL288:
 2583              	.L167:
1053:gcode.c       ****       }  
1054:gcode.c       ****      
1055:gcode.c       ****       // As far as the parser is concerned, the position is now == target. In reality the
1056:gcode.c       ****       // motion control system might still be processing the action and the real tool position
1057:gcode.c       ****       // in any intermediate location.
1058:gcode.c       ****       if (gc_update_pos == GC_UPDATE_POS_TARGET) {
 2584              		.loc 1 1058 0
 2585 0f94 28B9     		cbnz	r0, .L170
1059:gcode.c       ****         memcpy(gc_state.position, gc_block.values.xyz, sizeof(gc_block.values.xyz)); // gc_state.po
 2586              		.loc 1 1059 0
 2587 0f96 424B     		ldr	r3, .L264+20
 2588 0f98 404A     		ldr	r2, .L264+16
 2589 0f9a 07CA     		ldmia	r2, {r0, r1, r2}
 2590              	.LVL289:
 2591 0f9c 83E80700 		stmia	r3, {r0, r1, r2}
 2592 0fa0 03E0     		b	.L165
 2593              	.LVL290:
 2594              	.L170:
1060:gcode.c       ****       } else if (gc_update_pos == GC_UPDATE_POS_SYSTEM) {
 2595              		.loc 1 1060 0
 2596 0fa2 0128     		cmp	r0, #1
 2597 0fa4 01D1     		bne	.L165
1061:gcode.c       ****         gc_sync_position(); // gc_state.position[] = sys_position
 2598              		.loc 1 1061 0
 2599 0fa6 FFF7FEFF 		bl	gc_sync_position
 2600              	.LVL291:
 2601              	.L165:
 2602              	.LBE9:
1062:gcode.c       ****       } // == GC_UPDATE_POS_NONE
1063:gcode.c       ****     }     
1064:gcode.c       ****   }
ARM GAS  C:\Users\miker\AppData\Local\Temp\cctp1tOt.s 			page 68


1065:gcode.c       **** 
1066:gcode.c       ****   // [21. Program flow ]:
1067:gcode.c       ****   // M0,M1,M2,M30: Perform non-running program flow actions. During a program pause, the buffer may
1068:gcode.c       ****   // refill and can only be resumed by the cycle start run-time command.
1069:gcode.c       ****   gc_state.modal.program_flow = gc_block.modal.program_flow;
 2603              		.loc 1 1069 0
 2604 0faa 394B     		ldr	r3, .L264+4
 2605 0fac 187A     		ldrb	r0, [r3, #8]	@ zero_extendqisi2
 2606 0fae 374B     		ldr	r3, .L264
 2607 0fb0 D871     		strb	r0, [r3, #7]
1070:gcode.c       ****   if (gc_state.modal.program_flow) {
 2608              		.loc 1 1070 0
 2609 0fb2 0028     		cmp	r0, #0
 2610 0fb4 00F0B380 		beq	.L15
1071:gcode.c       ****     protocol_buffer_synchronize(); // Sync and finish all remaining buffered motions before moving 
 2611              		.loc 1 1071 0
 2612 0fb8 FFF7FEFF 		bl	protocol_buffer_synchronize
 2613              	.LVL292:
1072:gcode.c       ****     if (gc_state.modal.program_flow == PROGRAM_FLOW_PAUSED) {
 2614              		.loc 1 1072 0
 2615 0fbc 334B     		ldr	r3, .L264
 2616 0fbe DB79     		ldrb	r3, [r3, #7]	@ zero_extendqisi2
 2617 0fc0 032B     		cmp	r3, #3
 2618 0fc2 09D1     		bne	.L171
1073:gcode.c       ****       if (sys.state != STATE_CHECK_MODE) {
 2619              		.loc 1 1073 0
 2620 0fc4 384B     		ldr	r3, .L264+28
 2621 0fc6 1B78     		ldrb	r3, [r3]	@ zero_extendqisi2
 2622 0fc8 022B     		cmp	r3, #2
 2623 0fca 2AD0     		beq	.L172
1074:gcode.c       ****         system_set_exec_state_flag(EXEC_FEED_HOLD); // Use feed hold for program pause.
 2624              		.loc 1 1074 0
 2625 0fcc 0820     		movs	r0, #8
 2626 0fce FFF7FEFF 		bl	system_set_exec_state_flag
 2627              	.LVL293:
1075:gcode.c       ****         protocol_execute_realtime(); // Execute suspend.
 2628              		.loc 1 1075 0
 2629 0fd2 FFF7FEFF 		bl	protocol_execute_realtime
 2630              	.LVL294:
 2631 0fd6 24E0     		b	.L172
 2632              	.L171:
1076:gcode.c       ****       }
1077:gcode.c       ****     } else { // == PROGRAM_FLOW_COMPLETED
1078:gcode.c       ****       // Upon program complete, only a subset of g-codes reset to certain defaults, according to
1079:gcode.c       ****       // LinuxCNC's program end descriptions and testing. Only modal groups [G-code 1,2,3,5,7,12]
1080:gcode.c       ****       // and [M-code 7,8,9] reset to [G1,G17,G90,G94,G40,G54,M5,M9,M48]. The remaining modal groups
1081:gcode.c       ****       // [G-code 4,6,8,10,13,14,15] and [M-code 4,5,6] and the modal words [F,S,T,H] do not reset.
1082:gcode.c       ****       gc_state.modal.motion = MOTION_MODE_LINEAR;
 2633              		.loc 1 1082 0
 2634 0fd8 2C4B     		ldr	r3, .L264
 2635 0fda 0122     		movs	r2, #1
 2636 0fdc 1A70     		strb	r2, [r3]
1083:gcode.c       ****       gc_state.modal.plane_select = PLANE_SELECT_XY;
 2637              		.loc 1 1083 0
 2638 0fde 0022     		movs	r2, #0
 2639 0fe0 1A71     		strb	r2, [r3, #4]
1084:gcode.c       ****       gc_state.modal.distance = DISTANCE_MODE_ABSOLUTE;
ARM GAS  C:\Users\miker\AppData\Local\Temp\cctp1tOt.s 			page 69


 2640              		.loc 1 1084 0
 2641 0fe2 DA70     		strb	r2, [r3, #3]
1085:gcode.c       ****       gc_state.modal.feed_rate = FEED_RATE_MODE_UNITS_PER_MIN;
 2642              		.loc 1 1085 0
 2643 0fe4 5A70     		strb	r2, [r3, #1]
1086:gcode.c       ****       // gc_state.modal.cutter_comp = CUTTER_COMP_DISABLE; // Not supported.
1087:gcode.c       ****       gc_state.modal.coord_select = 0; // G54
 2644              		.loc 1 1087 0
 2645 0fe6 9A71     		strb	r2, [r3, #6]
1088:gcode.c       ****       gc_state.modal.spindle = SPINDLE_DISABLE;
 2646              		.loc 1 1088 0
 2647 0fe8 5A72     		strb	r2, [r3, #9]
1089:gcode.c       ****       gc_state.modal.coolant = COOLANT_DISABLE;
 2648              		.loc 1 1089 0
 2649 0fea 1A72     		strb	r2, [r3, #8]
1090:gcode.c       ****       // gc_state.modal.override = OVERRIDE_DISABLE; // Not supported.
1091:gcode.c       **** 
1092:gcode.c       ****       #ifdef RESTORE_OVERRIDES_AFTER_PROGRAM_END
1093:gcode.c       ****         sys.f_override = DEFAULT_FEED_OVERRIDE;
 2650              		.loc 1 1093 0
 2651 0fec 2E4B     		ldr	r3, .L264+28
 2652 0fee 6422     		movs	r2, #100
 2653 0ff0 DA71     		strb	r2, [r3, #7]
1094:gcode.c       ****         sys.r_override = DEFAULT_RAPID_OVERRIDE;
 2654              		.loc 1 1094 0
 2655 0ff2 1A72     		strb	r2, [r3, #8]
1095:gcode.c       ****         sys.spindle_speed_ovr = DEFAULT_SPINDLE_SPEED_OVERRIDE;
 2656              		.loc 1 1095 0
 2657 0ff4 5A72     		strb	r2, [r3, #9]
1096:gcode.c       ****       #endif
1097:gcode.c       **** 
1098:gcode.c       ****       // Execute coordinate change and spindle/coolant stop.
1099:gcode.c       ****       if (sys.state != STATE_CHECK_MODE) {
 2658              		.loc 1 1099 0
 2659 0ff6 1B78     		ldrb	r3, [r3]	@ zero_extendqisi2
 2660 0ff8 022B     		cmp	r3, #2
 2661 0ffa 0FD0     		beq	.L173
1100:gcode.c       ****         if (!(settings_read_coord_data(gc_state.modal.coord_select,gc_state.coord_system))) { FAIL(
 2662              		.loc 1 1100 0
 2663 0ffc 0020     		movs	r0, #0
 2664 0ffe 2649     		ldr	r1, .L264+12
 2665 1000 FFF7FEFF 		bl	settings_read_coord_data
 2666              	.LVL295:
 2667 1004 0028     		cmp	r0, #0
 2668 1006 00F08980 		beq	.L242
1101:gcode.c       ****         system_flag_wco_change(); // Set to refresh immediately just in case something altered.
 2669              		.loc 1 1101 0
 2670 100a FFF7FEFF 		bl	system_flag_wco_change
 2671              	.LVL296:
1102:gcode.c       ****         spindle_set_state(SPINDLE_DISABLE,0.0);
 2672              		.loc 1 1102 0
 2673 100e 0020     		movs	r0, #0
 2674 1010 0021     		movs	r1, #0
 2675 1012 FFF7FEFF 		bl	spindle_set_state
 2676              	.LVL297:
1103:gcode.c       ****         coolant_set_state(COOLANT_DISABLE);
 2677              		.loc 1 1103 0
ARM GAS  C:\Users\miker\AppData\Local\Temp\cctp1tOt.s 			page 70


 2678 1016 0020     		movs	r0, #0
 2679 1018 FFF7FEFF 		bl	coolant_set_state
 2680              	.LVL298:
 2681              	.L173:
1104:gcode.c       ****       }
1105:gcode.c       ****       report_feedback_message(MESSAGE_PROGRAM_END);
 2682              		.loc 1 1105 0
 2683 101c 0820     		movs	r0, #8
 2684 101e FFF7FEFF 		bl	report_feedback_message
 2685              	.LVL299:
 2686              	.L172:
1106:gcode.c       ****     }
1107:gcode.c       ****     gc_state.modal.program_flow = PROGRAM_FLOW_RUNNING; // Reset program flow.
 2687              		.loc 1 1107 0
 2688 1022 0022     		movs	r2, #0
 2689 1024 194B     		ldr	r3, .L264
 2690 1026 DA71     		strb	r2, [r3, #7]
1108:gcode.c       ****   }
1109:gcode.c       **** 
1110:gcode.c       ****   // TODO: % to denote start of program.
1111:gcode.c       **** 
1112:gcode.c       ****   return(STATUS_OK);
 2691              		.loc 1 1112 0
 2692 1028 2046     		mov	r0, r4
 2693 102a 78E0     		b	.L15
 2694              	.LVL300:
 2695              	.L175:
 121:gcode.c       ****     char_counter++;
 2696              		.loc 1 121 0
 2697 102c 0120     		movs	r0, #1
 2698 102e 76E0     		b	.L15
 2699              	.L176:
 123:gcode.c       **** 
 2700              		.loc 1 123 0
 2701 1030 0220     		movs	r0, #2
 2702 1032 74E0     		b	.L15
 2703              	.LVL301:
 2704              	.L177:
 233:gcode.c       ****         }
 2705              		.loc 1 233 0
 2706 1034 1420     		movs	r0, #20
 2707              	.LVL302:
 2708 1036 72E0     		b	.L15
 2709              	.LVL303:
 2710              	.L179:
 150:gcode.c       ****               axis_command = AXIS_COMMAND_NON_MODAL;
 2711              		.loc 1 150 0
 2712 1038 1820     		movs	r0, #24
 2713              	.LVL304:
 2714 103a 70E0     		b	.L15
 2715              	.LVL305:
 2716              	.L181:
 158:gcode.c       ****               gc_block.non_modal_command += mantissa;
 2717              		.loc 1 158 0
 2718 103c 1420     		movs	r0, #20
 2719              	.LVL306:
 2720 103e 6EE0     		b	.L15
ARM GAS  C:\Users\miker\AppData\Local\Temp\cctp1tOt.s 			page 71


 2721              	.LVL307:
 2722              	.L182:
 166:gcode.c       ****             axis_command = AXIS_COMMAND_MOTION_MODE;
 2723              		.loc 1 166 0
 2724 1040 1820     		movs	r0, #24
 2725              	.LVL308:
 2726 1042 6CE0     		b	.L15
 2727              	.LVL309:
 2728              	.L184:
 174:gcode.c       ****               }
 2729              		.loc 1 174 0
 2730 1044 1420     		movs	r0, #20
 2731              	.LVL310:
 2732 1046 6AE0     		b	.L15
 2733              	.LVL311:
 2734              	.L185:
 190:gcode.c       ****               mantissa = 0; // Set to zero to indicate valid non-integer G command.
 2735              		.loc 1 190 0
 2736 1048 1420     		movs	r0, #20
 2737              	.LVL312:
 2738 104a 68E0     		b	.L15
 2739              	.LVL313:
 2740              	.L186:
 2741 104c 1420     		movs	r0, #20
 2742              	.LVL314:
 2743 104e 66E0     		b	.L15
 2744              	.LVL315:
 2745              	.L187:
 214:gcode.c       ****             axis_command = AXIS_COMMAND_TOOL_LENGTH_OFFSET;
 2746              		.loc 1 214 0
 2747 1050 1820     		movs	r0, #24
 2748              	.LVL316:
 2749 1052 64E0     		b	.L15
 2750              	.LVL317:
 2751              	.L188:
 220:gcode.c       ****             mantissa = 0; // Set to zero to indicate valid non-integer G command.
 2752              		.loc 1 220 0
 2753 1054 1420     		movs	r0, #20
 2754              	.LVL318:
 2755 1056 62E0     		b	.L15
 2756              	.LVL319:
 2757              	.L189:
 230:gcode.c       ****             // gc_block.modal.control = CONTROL_MODE_EXACT_PATH; // G61
 2758              		.loc 1 230 0
 2759 1058 1420     		movs	r0, #20
 2760              	.LVL320:
 2761 105a 60E0     		b	.L15
 2762              	.LVL321:
 2763              	.L190:
 235:gcode.c       ****         // Check for more than one command per modal group violations in the current block
 2764              		.loc 1 235 0
 2765 105c 1720     		movs	r0, #23
 2766              	.LVL322:
 2767 105e 5EE0     		b	.L15
 2768              	.LVL323:
 2769              	.L191:
 238:gcode.c       ****         command_words |= bit(word_bit);
ARM GAS  C:\Users\miker\AppData\Local\Temp\cctp1tOt.s 			page 72


 2770              		.loc 1 238 0
 2771 1060 1520     		movs	r0, #21
 2772              	.LVL324:
 2773 1062 5CE0     		b	.L15
 2774              	.LVL325:
 2775              	.L192:
 245:gcode.c       ****         switch(int_value) {
 2776              		.loc 1 245 0
 2777 1064 1720     		movs	r0, #23
 2778              	.LVL326:
 2779 1066 5AE0     		b	.L15
 2780              	.LVL327:
 2781              	.L193:
 282:gcode.c       ****         }
 2782              		.loc 1 282 0
 2783 1068 1420     		movs	r0, #20
 2784              	.LVL328:
 2785 106a 58E0     		b	.L15
 2786              	.LVL329:
 2787              	.L197:
 287:gcode.c       ****         command_words |= bit(word_bit);
 2788              		.loc 1 287 0
 2789 106c 1520     		movs	r0, #21
 2790              	.LVL330:
 2791 106e 56E0     		b	.L15
 2792              	.LVL331:
 2793              	.L198:
 321:gcode.c       ****         }
 2794              		.loc 1 321 0
 2795 1070 1420     		movs	r0, #20
 2796              	.LVL332:
 2797 1072 54E0     		b	.L15
 2798              	.LVL333:
 2799              	.L199:
 315:gcode.c       ****              gc_block.values.t = int_value;
 2800              		.loc 1 315 0
 2801 1074 2620     		movs	r0, #38
 2802 1076 52E0     		b	.L15
 2803              	.LVL334:
 2804              	.L200:
 325:gcode.c       ****         // Check for invalid negative values for words F, N, P, T, and S.
 2805              		.loc 1 325 0
 2806 1078 1920     		movs	r0, #25
 2807 107a 50E0     		b	.L15
 2808              	.LVL335:
 2809              	.L201:
 329:gcode.c       ****         }
 2810              		.loc 1 329 0
 2811 107c 0420     		movs	r0, #4
 2812 107e 4EE0     		b	.L15
 2813              	.LVL336:
 2814              	.L203:
 375:gcode.c       ****   }
 2815              		.loc 1 375 0
 2816 1080 1B20     		movs	r0, #27
 2817 1082 4CE0     		b	.L15
 2818              	.L204:
ARM GAS  C:\Users\miker\AppData\Local\Temp\cctp1tOt.s 			page 73


 392:gcode.c       ****     if (gc_block.modal.units == UNITS_MODE_INCHES) { gc_block.values.f *= MM_PER_INCH; }
 2819              		.loc 1 392 0
 2820 1084 1620     		movs	r0, #22
 2821 1086 4AE0     		b	.L15
 2822              	.L205:
 399:gcode.c       ****         }
 2823              		.loc 1 399 0
 2824 1088 1620     		movs	r0, #22
 2825 108a 48E0     		b	.L15
 2826              	.L265:
 2827              		.align	2
 2828              	.L264:
 2829 108c 00000000 		.word	gc_state
 2830 1090 00000000 		.word	gc_block
 2831 1094 10000000 		.word	gc_block+16
 2832 1098 28000000 		.word	gc_state+40
 2833 109c 34000000 		.word	gc_block+52
 2834 10a0 1C000000 		.word	gc_state+28
 2835 10a4 34000000 		.word	gc_state+52
 2836 10a8 00000000 		.word	sys
 2837              	.L206:
 441:gcode.c       ****     bit_false(value_words,bit(WORD_P));
 2838              		.loc 1 441 0
 2839 10ac 1C20     		movs	r0, #28
 2840 10ae 36E0     		b	.L15
 2841              	.LVL337:
 2842              	.L209:
 486:gcode.c       ****     }
 2843              		.loc 1 486 0
 2844 10b0 2520     		movs	r0, #37
 2845 10b2 34E0     		b	.L15
 2846              	.L210:
 498:gcode.c       ****     if (gc_state.modal.coord_select != gc_block.modal.coord_select) {
 2847              		.loc 1 498 0
 2848 10b4 1D20     		movs	r0, #29
 2849 10b6 32E0     		b	.L15
 2850              	.L211:
 500:gcode.c       ****     }
 2851              		.loc 1 500 0
 2852 10b8 0720     		movs	r0, #7
 2853 10ba 30E0     		b	.L15
 2854              	.L212:
 518:gcode.c       ****       if (bit_isfalse(value_words,((1<<WORD_P)|(1<<WORD_L)))) { FAIL(STATUS_GCODE_VALUE_WORD_MISSIN
 2855              		.loc 1 518 0
 2856 10bc 1A20     		movs	r0, #26
 2857 10be 2EE0     		b	.L15
 2858              	.L213:
 519:gcode.c       ****       coord_select = trunc(gc_block.values.p); // Convert p value to int.
 2859              		.loc 1 519 0
 2860 10c0 1C20     		movs	r0, #28
 2861 10c2 2CE0     		b	.L15
 2862              	.LVL338:
 2863              	.L214:
 521:gcode.c       ****       if (gc_block.values.l != 20) {
 2864              		.loc 1 521 0
 2865 10c4 1D20     		movs	r0, #29
 2866              	.LVL339:
ARM GAS  C:\Users\miker\AppData\Local\Temp\cctp1tOt.s 			page 74


 2867 10c6 2AE0     		b	.L15
 2868              	.LVL340:
 2869              	.L215:
 525:gcode.c       ****       }
 2870              		.loc 1 525 0
 2871 10c8 1420     		movs	r0, #20
 2872              	.LVL341:
 2873 10ca 28E0     		b	.L15
 2874              	.LVL342:
 2875              	.L216:
 524:gcode.c       ****         } else { FAIL(STATUS_GCODE_UNSUPPORTED_COMMAND); } // [Unsupported L]
 2876              		.loc 1 524 0
 2877 10cc 1420     		movs	r0, #20
 2878              	.LVL343:
 2879 10ce 26E0     		b	.L15
 2880              	.LVL344:
 2881              	.L217:
 534:gcode.c       **** 
 2882              		.loc 1 534 0
 2883 10d0 0720     		movs	r0, #7
 2884 10d2 24E0     		b	.L15
 2885              	.LVL345:
 2886              	.L218:
 554:gcode.c       **** 
 2887              		.loc 1 554 0
 2888 10d4 1A20     		movs	r0, #26
 2889 10d6 22E0     		b	.L15
 2890              	.LVL346:
 2891              	.L221:
 605:gcode.c       ****           } else { // == NON_MODAL_GO_HOME_1
 2892              		.loc 1 605 0
 2893 10d8 0720     		movs	r0, #7
 2894 10da 20E0     		b	.L15
 2895              	.L222:
 607:gcode.c       ****           }
 2896              		.loc 1 607 0
 2897 10dc 0720     		movs	r0, #7
 2898 10de 1EE0     		b	.L15
 2899              	.L224:
 630:gcode.c       ****           }
 2900              		.loc 1 630 0
 2901 10e0 1E20     		movs	r0, #30
 2902 10e2 1CE0     		b	.L15
 2903              	.LVL347:
 2904              	.L225:
 640:gcode.c       **** 
 2905              		.loc 1 640 0
 2906 10e4 1F20     		movs	r0, #31
 2907 10e6 1AE0     		b	.L15
 2908              	.L227:
 655:gcode.c       **** 
 2909              		.loc 1 655 0
 2910 10e8 1620     		movs	r0, #22
 2911 10ea 18E0     		b	.L15
 2912              	.L229:
 2913              	.LBB10:
 673:gcode.c       ****           if (!(axis_words & (bit(axis_0)|bit(axis_1)))) { FAIL(STATUS_GCODE_NO_AXIS_WORDS_IN_PLANE
ARM GAS  C:\Users\miker\AppData\Local\Temp\cctp1tOt.s 			page 75


 2914              		.loc 1 673 0
 2915 10ec 1A20     		movs	r0, #26
 2916 10ee 16E0     		b	.L15
 2917              	.L230:
 674:gcode.c       **** 
 2918              		.loc 1 674 0
 2919 10f0 2020     		movs	r0, #32
 2920 10f2 14E0     		b	.L15
 2921              	.LVL348:
 2922              	.L231:
 2923              	.LBB5:
 683:gcode.c       **** 
 2924              		.loc 1 683 0
 2925 10f4 2120     		movs	r0, #33
 2926 10f6 12E0     		b	.L15
 2927              	.LVL349:
 2928              	.L232:
 739:gcode.c       **** 
 2929              		.loc 1 739 0
 2930 10f8 2220     		movs	r0, #34
 2931 10fa 10E0     		b	.L15
 2932              	.LVL350:
 2933              	.L233:
 2934              	.LBE5:
 2935              	.LBB6:
 774:gcode.c       ****             bit_false(value_words,(bit(WORD_I)|bit(WORD_J)|bit(WORD_K)));
 2936              		.loc 1 774 0
 2937 10fc 2320     		movs	r0, #35
 2938              	.LVL351:
 2939 10fe 0EE0     		b	.L15
 2940              	.LVL352:
 2941              	.L235:
 795:gcode.c       ****               if (delta_r > (0.001*gc_block.values.r)) { FAIL(STATUS_GCODE_INVALID_TARGET); } // [A
 2942              		.loc 1 795 0
 2943 1100 2120     		movs	r0, #33
 2944 1102 0CE0     		b	.L15
 2945              	.L236:
 796:gcode.c       ****             }
 2946              		.loc 1 796 0
 2947 1104 2120     		movs	r0, #33
 2948 1106 0AE0     		b	.L15
 2949              	.LVL353:
 2950              	.L237:
 2951              	.LBE6:
 809:gcode.c       ****           if (isequal_position_vector(gc_state.position, gc_block.values.xyz)) { FAIL(STATUS_GCODE_
 2952              		.loc 1 809 0
 2953 1108 1A20     		movs	r0, #26
 2954 110a 08E0     		b	.L15
 2955              	.L238:
 810:gcode.c       ****           break;
 2956              		.loc 1 810 0
 2957 110c 2120     		movs	r0, #33
 2958 110e 06E0     		b	.L15
 2959              	.LVL354:
 2960              	.L239:
 2961              	.LBE10:
 827:gcode.c       **** 
ARM GAS  C:\Users\miker\AppData\Local\Temp\cctp1tOt.s 			page 76


 2962              		.loc 1 827 0
 2963 1110 2420     		movs	r0, #36
 2964 1112 04E0     		b	.L15
 2965              	.LVL355:
 2966              	.L240:
 2967              	.LBB11:
 847:gcode.c       ****     if (!(gc_block.non_modal_command == NON_MODAL_ABSOLUTE_OVERRIDE || gc_block.non_modal_command =
 2968              		.loc 1 847 0
 2969 1114 1020     		movs	r0, #16
 2970 1116 02E0     		b	.L15
 2971              	.L241:
 848:gcode.c       **** 
 2972              		.loc 1 848 0
 2973 1118 1020     		movs	r0, #16
 2974 111a 00E0     		b	.L15
 2975              	.L242:
 2976              	.LBE11:
1100:gcode.c       ****         system_flag_wco_change(); // Set to refresh immediately just in case something altered.
 2977              		.loc 1 1100 0
 2978 111c 0720     		movs	r0, #7
 2979              	.LVL356:
 2980              	.L15:
1113:gcode.c       **** }
 2981              		.loc 1 1113 0
 2982 111e 19B0     		add	sp, sp, #100
 2983              		.cfi_def_cfa_offset 36
 2984              		@ sp needed
 2985 1120 BDE8F08F 		pop	{r4, r5, r6, r7, r8, r9, r10, fp, pc}
 2986              		.cfi_endproc
 2987              	.LFE65:
 2988              		.size	gc_execute_line, .-gc_execute_line
 2989              		.comm	gc_block,64,4
 2990              		.comm	gc_state,68,4
 2991              		.comm	exec_lcd_status,1,1
 2992              		.comm	sys_rt_exec_accessory_override,1,1
 2993              		.comm	sys_rt_exec_motion_override,1,1
 2994              		.comm	sys_rt_exec_alarm,1,1
 2995              		.comm	sys_rt_exec_state,1,1
 2996              		.comm	sys_probe_state,1,1
 2997              		.comm	sys_probe_position,12,4
 2998              		.comm	sys_position,12,4
 2999 1124 AFF30080 		.text
 3000              	.Letext0:
 3001              		.file 2 "c:\\program files (x86)\\cypress\\psoc creator\\4.0\\psoc creator\\import\\gnu\\arm\\4.9.
 3002              		.file 3 "c:\\program files (x86)\\cypress\\psoc creator\\4.0\\psoc creator\\import\\gnu\\arm\\4.9.
 3003              		.file 4 "c:\\program files (x86)\\cypress\\psoc creator\\4.0\\psoc creator\\import\\gnu\\arm\\4.9.
 3004              		.file 5 "settings.h"
 3005              		.file 6 "system.h"
 3006              		.file 7 "planner.h"
 3007              		.file 8 "gcode.h"
 3008              		.file 9 "Generated_Source\\PSoC5/core_cm3.h"
 3009              		.file 10 "lcd_report.h"
 3010              		.file 11 "report.h"
 3011              		.file 12 "c:\\program files (x86)\\cypress\\psoc creator\\4.0\\psoc creator\\import\\gnu\\arm\\4.9
 3012              		.file 13 "c:\\program files (x86)\\cypress\\psoc creator\\4.0\\psoc creator\\import\\gnu\\arm\\4.9
 3013              		.file 14 "nuts_bolts.h"
 3014              		.file 15 "jog.h"
ARM GAS  C:\Users\miker\AppData\Local\Temp\cctp1tOt.s 			page 77


 3015              		.file 16 "motion_control.h"
 3016              		.file 17 "spindle_control.h"
 3017              		.file 18 "coolant_control.h"
 3018              		.file 19 "protocol.h"