ARM GAS  C:\Users\miker\AppData\Local\Temp\ccQCAluu.s 			page 1


   1              		.syntax unified
   2              		.cpu cortex-m3
   3              		.fpu softvfp
   4              		.eabi_attribute 20, 1
   5              		.eabi_attribute 21, 1
   6              		.eabi_attribute 23, 3
   7              		.eabi_attribute 24, 1
   8              		.eabi_attribute 25, 1
   9              		.eabi_attribute 26, 1
  10              		.eabi_attribute 30, 1
  11              		.eabi_attribute 34, 1
  12              		.eabi_attribute 18, 4
  13              		.thumb
  14              		.file	"limits.c"
  15              		.text
  16              	.Ltext0:
  17              		.cfi_sections	.debug_frame
  18              		.section	.text.limit_isr_handler,"ax",%progbits
  19              		.align	2
  20              		.global	limit_isr_handler
  21              		.thumb
  22              		.thumb_func
  23              		.type	limit_isr_handler, %function
  24              	limit_isr_handler:
  25              	.LFB66:
  26              		.file 1 "limits.c"
   1:limits.c      **** /*
   2:limits.c      ****   limits.c - code pertaining to limit-switches and performing the homing cycle
   3:limits.c      ****   Part of Grbl
   4:limits.c      **** 
   5:limits.c      ****   Copyright (c) 2012-2016 Sungeun K. Jeon for Gnea Research LLC
   6:limits.c      ****   Copyright (c) 2009-2011 Simen Svale Skogsrud
   7:limits.c      **** 
   8:limits.c      ****   Grbl is free software: you can redistribute it and/or modify
   9:limits.c      ****   it under the terms of the GNU General Public License as published by
  10:limits.c      ****   the Free Software Foundation, either version 3 of the License, or
  11:limits.c      ****   (at your option) any later version.
  12:limits.c      **** 
  13:limits.c      ****   Grbl is distributed in the hope that it will be useful,
  14:limits.c      ****   but WITHOUT ANY WARRANTY; without even the implied warranty of
  15:limits.c      ****   MERCHANTABILITY or FITNESS FOR A PARTICULAR PURPOSE.  See the
  16:limits.c      ****   GNU General Public License for more details.
  17:limits.c      **** 
  18:limits.c      ****   You should have received a copy of the GNU General Public License
  19:limits.c      ****   along with Grbl.  If not, see <http://www.gnu.org/licenses/>.
  20:limits.c      **** */
  21:limits.c      **** 
  22:limits.c      **** #include "grbl.h"
  23:limits.c      **** 
  24:limits.c      **** 
  25:limits.c      **** // Homing axis search distance multiplier. Computed by this value times the cycle travel.
  26:limits.c      **** #ifndef HOMING_AXIS_SEARCH_SCALAR
  27:limits.c      ****   #define HOMING_AXIS_SEARCH_SCALAR  1.5 // Must be > 1 to ensure limit switch will be engaged.
  28:limits.c      **** #endif
  29:limits.c      **** #ifndef HOMING_AXIS_LOCATE_SCALAR
  30:limits.c      ****   #define HOMING_AXIS_LOCATE_SCALAR  5.0 // Must be > 1 to ensure limit switch is cleared.
  31:limits.c      **** #endif
ARM GAS  C:\Users\miker\AppData\Local\Temp\ccQCAluu.s 			page 2


  32:limits.c      **** 
  33:limits.c      **** // PSoc Complete rewrire.  Pins and debouncing are setup on the PSoc Schematic
  34:limits.c      **** void limits_init() 
  35:limits.c      **** { 
  36:limits.c      **** 
  37:limits.c      ****   if (bit_istrue(settings.flags,BITFLAG_HARD_LIMIT_ENABLE)) {
  38:limits.c      ****     Status_Limit_InterruptEnable();
  39:limits.c      ****     isr_Limits_StartEx(limit_isr_handler);
  40:limits.c      ****   } else {
  41:limits.c      ****     
  42:limits.c      ****     limits_disable(); 
  43:limits.c      ****   }
  44:limits.c      **** }
  45:limits.c      **** 
  46:limits.c      **** 
  47:limits.c      **** // complete PSoc rewrite
  48:limits.c      **** void limits_disable()
  49:limits.c      **** {
  50:limits.c      ****   Status_Limit_InterruptDisable();
  51:limits.c      ****   isr_Limits_Stop();
  52:limits.c      **** }
  53:limits.c      **** 
  54:limits.c      **** 
  55:limits.c      **** // Returns limit state as a bit-wise uint8 variable. Each bit indicates an axis limit, where
  56:limits.c      **** // triggered is 1 and not triggered is 0. Invert mask is applied. Axes are defined by their
  57:limits.c      **** // number in bit position, i.e. Z_AXIS is (1<<2) or bit 2, and Y_AXIS is (1<<1) or bit 1.
  58:limits.c      **** // Complete PSoC Rewrite
  59:limits.c      **** uint8_t limits_get_state()
  60:limits.c      **** {  
  61:limits.c      ****   return Status_Limit_Read(); 
  62:limits.c      **** }
  63:limits.c      **** 
  64:limits.c      **** // PSoc Change
  65:limits.c      **** void limit_isr_handler() // ISR(LIMIT_INT_vect) // DEFAULT: Limit pin change interrupt process. 
  66:limits.c      ****   {
  27              		.loc 1 66 0
  28              		.cfi_startproc
  29              		@ args = 0, pretend = 0, frame = 0
  30              		@ frame_needed = 0, uses_anonymous_args = 0
  31 0000 08B5     		push	{r3, lr}
  32              		.cfi_def_cfa_offset 8
  33              		.cfi_offset 3, -8
  34              		.cfi_offset 14, -4
  67:limits.c      ****     // Ignore limit switches if already in an alarm state or in-process of executing an alarm.
  68:limits.c      ****     // When in the alarm state, Grbl should have been reset or will force a reset, so any pending 
  69:limits.c      ****     // moves in the planner and serial buffers are all cleared and newly sent blocks will be 
  70:limits.c      ****     // locked out until a homing cycle or a kill lock command. Allows the user to disable the hard
  71:limits.c      ****     // limit setting if their limits are constantly triggering after a reset and move their axes.
  72:limits.c      ****     if (sys.state != STATE_ALARM) { 
  35              		.loc 1 72 0
  36 0002 074B     		ldr	r3, .L4
  37 0004 1B78     		ldrb	r3, [r3]	@ zero_extendqisi2
  38 0006 012B     		cmp	r3, #1
  39 0008 09D0     		beq	.L1
  73:limits.c      ****       if (!(sys_rt_exec_alarm)) {
  40              		.loc 1 73 0
  41 000a 064B     		ldr	r3, .L4+4
ARM GAS  C:\Users\miker\AppData\Local\Temp\ccQCAluu.s 			page 3


  42 000c 1B78     		ldrb	r3, [r3]	@ zero_extendqisi2
  43 000e 13F0FF0F 		tst	r3, #255
  44 0012 04D1     		bne	.L1
  74:limits.c      ****         #ifdef HARD_LIMIT_FORCE_STATE_CHECK
  75:limits.c      ****           // Check limit pin state. 
  76:limits.c      ****           if (limits_get_state()) {
  77:limits.c      ****             mc_reset(); // Initiate system kill.
  78:limits.c      ****             system_set_exec_alarm_flag((EXEC_ALARM_HARD_LIMIT|EXEC_CRITICAL_EVENT)); // Indicate ha
  79:limits.c      ****           }
  80:limits.c      ****         #else
  81:limits.c      ****           mc_reset(); // Initiate system kill.
  45              		.loc 1 81 0
  46 0014 FFF7FEFF 		bl	mc_reset
  47              	.LVL0:
  82:limits.c      ****           system_set_exec_alarm(EXEC_ALARM_HARD_LIMIT); // Indicate hard limit critical event
  48              		.loc 1 82 0
  49 0018 0120     		movs	r0, #1
  50 001a FFF7FEFF 		bl	system_set_exec_alarm
  51              	.LVL1:
  52              	.L1:
  53 001e 08BD     		pop	{r3, pc}
  54              	.L5:
  55              		.align	2
  56              	.L4:
  57 0020 00000000 		.word	sys
  58 0024 00000000 		.word	sys_rt_exec_alarm
  59              		.cfi_endproc
  60              	.LFE66:
  61              		.size	limit_isr_handler, .-limit_isr_handler
  62              		.section	.text.limits_disable,"ax",%progbits
  63              		.align	2
  64              		.global	limits_disable
  65              		.thumb
  66              		.thumb_func
  67              		.type	limits_disable, %function
  68              	limits_disable:
  69              	.LFB64:
  49:limits.c      ****   Status_Limit_InterruptDisable();
  70              		.loc 1 49 0
  71              		.cfi_startproc
  72              		@ args = 0, pretend = 0, frame = 0
  73              		@ frame_needed = 0, uses_anonymous_args = 0
  74 0000 08B5     		push	{r3, lr}
  75              		.cfi_def_cfa_offset 8
  76              		.cfi_offset 3, -8
  77              		.cfi_offset 14, -4
  50:limits.c      ****   isr_Limits_Stop();
  78              		.loc 1 50 0
  79 0002 FFF7FEFF 		bl	Status_Limit_InterruptDisable
  80              	.LVL2:
  51:limits.c      **** }
  81              		.loc 1 51 0
  82 0006 FFF7FEFF 		bl	isr_Limits_Stop
  83              	.LVL3:
  84 000a 08BD     		pop	{r3, pc}
  85              		.cfi_endproc
  86              	.LFE64:
ARM GAS  C:\Users\miker\AppData\Local\Temp\ccQCAluu.s 			page 4


  87              		.size	limits_disable, .-limits_disable
  88              		.section	.text.limits_init,"ax",%progbits
  89              		.align	2
  90              		.global	limits_init
  91              		.thumb
  92              		.thumb_func
  93              		.type	limits_init, %function
  94              	limits_init:
  95              	.LFB63:
  35:limits.c      **** 
  96              		.loc 1 35 0
  97              		.cfi_startproc
  98              		@ args = 0, pretend = 0, frame = 0
  99              		@ frame_needed = 0, uses_anonymous_args = 0
 100 0000 08B5     		push	{r3, lr}
 101              		.cfi_def_cfa_offset 8
 102              		.cfi_offset 3, -8
 103              		.cfi_offset 14, -4
  37:limits.c      ****     Status_Limit_InterruptEnable();
 104              		.loc 1 37 0
 105 0002 074B     		ldr	r3, .L12
 106 0004 93F84830 		ldrb	r3, [r3, #72]	@ zero_extendqisi2
 107 0008 13F0080F 		tst	r3, #8
 108 000c 05D0     		beq	.L9
  38:limits.c      ****     isr_Limits_StartEx(limit_isr_handler);
 109              		.loc 1 38 0
 110 000e FFF7FEFF 		bl	Status_Limit_InterruptEnable
 111              	.LVL4:
  39:limits.c      ****   } else {
 112              		.loc 1 39 0
 113 0012 0448     		ldr	r0, .L12+4
 114 0014 FFF7FEFF 		bl	isr_Limits_StartEx
 115              	.LVL5:
 116 0018 08BD     		pop	{r3, pc}
 117              	.L9:
  42:limits.c      ****   }
 118              		.loc 1 42 0
 119 001a FFF7FEFF 		bl	limits_disable
 120              	.LVL6:
 121 001e 08BD     		pop	{r3, pc}
 122              	.L13:
 123              		.align	2
 124              	.L12:
 125 0020 00000000 		.word	settings
 126 0024 00000000 		.word	limit_isr_handler
 127              		.cfi_endproc
 128              	.LFE63:
 129              		.size	limits_init, .-limits_init
 130              		.section	.text.limits_get_state,"ax",%progbits
 131              		.align	2
 132              		.global	limits_get_state
 133              		.thumb
 134              		.thumb_func
 135              		.type	limits_get_state, %function
 136              	limits_get_state:
 137              	.LFB65:
  60:limits.c      ****   return Status_Limit_Read(); 
ARM GAS  C:\Users\miker\AppData\Local\Temp\ccQCAluu.s 			page 5


 138              		.loc 1 60 0
 139              		.cfi_startproc
 140              		@ args = 0, pretend = 0, frame = 0
 141              		@ frame_needed = 0, uses_anonymous_args = 0
 142 0000 08B5     		push	{r3, lr}
 143              		.cfi_def_cfa_offset 8
 144              		.cfi_offset 3, -8
 145              		.cfi_offset 14, -4
  61:limits.c      **** }
 146              		.loc 1 61 0
 147 0002 FFF7FEFF 		bl	Status_Limit_Read
 148              	.LVL7:
  62:limits.c      **** 
 149              		.loc 1 62 0
 150 0006 08BD     		pop	{r3, pc}
 151              		.cfi_endproc
 152              	.LFE65:
 153              		.size	limits_get_state, .-limits_get_state
 154              		.global	__aeabi_f2d
 155              		.global	__aeabi_dmul
 156              		.global	__aeabi_dcmpgt
 157              		.global	__aeabi_d2f
 158              		.global	__aeabi_ui2d
 159              		.global	__aeabi_fmul
 160              		.global	__aeabi_fadd
 161              		.section	.text.limits_go_home,"ax",%progbits
 162              		.align	2
 163              		.global	limits_go_home
 164              		.thumb
 165              		.thumb_func
 166              		.type	limits_go_home, %function
 167              	limits_go_home:
 168              	.LFB67:
  83:limits.c      ****         #endif
  84:limits.c      ****       }
  85:limits.c      ****     }
  86:limits.c      ****   }  
  87:limits.c      **** 
  88:limits.c      **** // Homes the specified cycle axes, sets the machine position, and performs a pull-off motion after
  89:limits.c      **** // completing. Homing is a special motion case, which involves rapid uncontrolled stops to locate
  90:limits.c      **** // the trigger point of the limit switches. The rapid stops are handled by a system level axis lock
  91:limits.c      **** // mask, which prevents the stepper algorithm from executing step pulses. Homing motions typically
  92:limits.c      **** // circumvent the processes for executing motions in normal operation.
  93:limits.c      **** // NOTE: Only the abort realtime command can interrupt this process.
  94:limits.c      **** // TODO: Move limit pin-specific calls to a general function for portability.
  95:limits.c      **** void limits_go_home(uint8_t cycle_mask)
  96:limits.c      **** {
 169              		.loc 1 96 0
 170              		.cfi_startproc
 171              		@ args = 0, pretend = 0, frame = 32
 172              		@ frame_needed = 0, uses_anonymous_args = 0
 173              	.LVL8:
  97:limits.c      ****   if (sys.abort) { return; } // Block if system reset has been issued.
 174              		.loc 1 97 0
 175 0000 A74B     		ldr	r3, .L53
 176 0002 5B78     		ldrb	r3, [r3, #1]	@ zero_extendqisi2
 177 0004 002B     		cmp	r3, #0
ARM GAS  C:\Users\miker\AppData\Local\Temp\ccQCAluu.s 			page 6


 178 0006 40F04A81 		bne	.L52
  96:limits.c      ****   if (sys.abort) { return; } // Block if system reset has been issued.
 179              		.loc 1 96 0
 180 000a 2DE9F04F 		push	{r4, r5, r6, r7, r8, r9, r10, fp, lr}
 181              		.cfi_def_cfa_offset 36
 182              		.cfi_offset 4, -36
 183              		.cfi_offset 5, -32
 184              		.cfi_offset 6, -28
 185              		.cfi_offset 7, -24
 186              		.cfi_offset 8, -20
 187              		.cfi_offset 9, -16
 188              		.cfi_offset 10, -12
 189              		.cfi_offset 11, -8
 190              		.cfi_offset 14, -4
 191 000e 89B0     		sub	sp, sp, #36
 192              		.cfi_def_cfa_offset 72
 193 0010 8046     		mov	r8, r0
 194              	.LVL9:
  98:limits.c      **** 
  99:limits.c      ****   // Initialize plan data struct for homing motion. Spindle and coolant are disabled.
 100:limits.c      ****   plan_line_data_t plan_data;
 101:limits.c      ****   plan_line_data_t *pl_data = &plan_data;
 102:limits.c      ****   memset(pl_data,0,sizeof(plan_line_data_t));
 195              		.loc 1 102 0
 196 0012 0593     		str	r3, [sp, #20]
 197 0014 0693     		str	r3, [sp, #24]
 198 0016 0793     		str	r3, [sp, #28]
 103:limits.c      ****   pl_data->condition = (PL_COND_FLAG_SYSTEM_MOTION|PL_COND_FLAG_NO_FEED_OVERRIDE);
 199              		.loc 1 103 0
 200 0018 0622     		movs	r2, #6
 201 001a 8DF81C20 		strb	r2, [sp, #28]
 202              	.LVL10:
 104:limits.c      ****   #ifdef USE_LINE_NUMBERS
 105:limits.c      ****     pl_data->line_number = HOMING_CYCLE_LINE_NUMBER;
 106:limits.c      ****   #endif
 107:limits.c      **** 
 108:limits.c      ****   // Initialize variables used for homing computations.
 109:limits.c      ****   uint8_t n_cycle = (2*N_HOMING_LOCATE_CYCLE+1);
 110:limits.c      ****   uint8_t step_pin[N_AXIS];
 111:limits.c      ****   float target[N_AXIS];
 112:limits.c      ****   float max_travel = 0.0;
 113:limits.c      ****   uint8_t idx;
 114:limits.c      ****   for (idx=0; idx<N_AXIS; idx++) {
 203              		.loc 1 114 0
 204 001e 9A46     		mov	r10, r3
 112:limits.c      ****   uint8_t idx;
 205              		.loc 1 112 0
 206 0020 4FF00009 		mov	r9, #0
 207              		.loc 1 114 0
 208 0024 2CE0     		b	.L18
 209              	.LVL11:
 210              	.L21:
 115:limits.c      ****     // Initialize step pin masks
 116:limits.c      ****     step_pin[idx] = get_step_pin_mask(idx);
 211              		.loc 1 116 0
 212 0026 5046     		mov	r0, r10
 213 0028 FFF7FEFF 		bl	get_step_pin_mask
ARM GAS  C:\Users\miker\AppData\Local\Temp\ccQCAluu.s 			page 7


 214              	.LVL12:
 215 002c 08AB     		add	r3, sp, #32
 216 002e 5344     		add	r3, r3, r10
 217 0030 03F8100C 		strb	r0, [r3, #-16]
 117:limits.c      ****     #ifdef COREXY
 118:limits.c      ****       if ((idx==A_MOTOR)||(idx==B_MOTOR)) { step_pin[idx] = (get_step_pin_mask(X_AXIS)|get_step_pin
 119:limits.c      ****     #endif
 120:limits.c      **** 
 121:limits.c      ****     if (bit_istrue(cycle_mask,bit(idx))) {
 218              		.loc 1 121 0
 219 0034 48FA0AF3 		asr	r3, r8, r10
 220 0038 13F0010F 		tst	r3, #1
 221 003c 1CD0     		beq	.L19
 122:limits.c      ****       // Set target based on max_travel setting. Ensure homing switches engaged with search scalar.
 123:limits.c      ****       // NOTE: settings.max_travel[] is stored as a negative value.
 124:limits.c      ****       max_travel = max(max_travel,(-HOMING_AXIS_SEARCH_SCALAR)*settings.max_travel[idx]);
 222              		.loc 1 124 0
 223 003e 4846     		mov	r0, r9
 224 0040 FFF7FEFF 		bl	__aeabi_f2d
 225              	.LVL13:
 226 0044 0646     		mov	r6, r0
 227 0046 0F46     		mov	r7, r1
 228 0048 964B     		ldr	r3, .L53+4
 229 004a 03EB8A03 		add	r3, r3, r10, lsl #2
 230 004e 586A     		ldr	r0, [r3, #36]	@ float
 231 0050 FFF7FEFF 		bl	__aeabi_f2d
 232              	.LVL14:
 233 0054 0022     		movs	r2, #0
 234 0056 944B     		ldr	r3, .L53+8
 235 0058 FFF7FEFF 		bl	__aeabi_dmul
 236              	.LVL15:
 237 005c 0446     		mov	r4, r0
 238 005e 0D46     		mov	r5, r1
 239 0060 3046     		mov	r0, r6
 240 0062 3946     		mov	r1, r7
 241 0064 2246     		mov	r2, r4
 242 0066 2B46     		mov	r3, r5
 243 0068 FFF7FEFF 		bl	__aeabi_dcmpgt
 244              	.LVL16:
 245 006c 20B9     		cbnz	r0, .L19
 246              		.loc 1 124 0 is_stmt 0 discriminator 2
 247 006e 2046     		mov	r0, r4
 248 0070 2946     		mov	r1, r5
 249 0072 FFF7FEFF 		bl	__aeabi_d2f
 250              	.LVL17:
 251 0076 8146     		mov	r9, r0
 252              	.LVL18:
 253              	.L19:
 114:limits.c      ****     // Initialize step pin masks
 254              		.loc 1 114 0 is_stmt 1 discriminator 2
 255 0078 0AF1010A 		add	r10, r10, #1
 256              	.LVL19:
 257 007c 5FFA8AFA 		uxtb	r10, r10
 258              	.LVL20:
 259              	.L18:
 114:limits.c      ****     // Initialize step pin masks
 260              		.loc 1 114 0 is_stmt 0 discriminator 1
ARM GAS  C:\Users\miker\AppData\Local\Temp\ccQCAluu.s 			page 8


 261 0080 BAF1020F 		cmp	r10, #2
 262 0084 CFD9     		bls	.L21
 263              	.LVL21:
 125:limits.c      ****     }
 126:limits.c      ****   }
 127:limits.c      **** 
 128:limits.c      ****   // Set search mode with approach at seek rate to quickly engage the specified cycle_mask limit sw
 129:limits.c      ****   bool approach = true;
 130:limits.c      ****   float homing_rate = settings.homing_seek_rate;
 264              		.loc 1 130 0 is_stmt 1
 265 0086 874B     		ldr	r3, .L53+4
 266 0088 D3F850B0 		ldr	fp, [r3, #80]	@ float
 267              	.LVL22:
 129:limits.c      ****   float homing_rate = settings.homing_seek_rate;
 268              		.loc 1 129 0
 269 008c 0125     		movs	r5, #1
 109:limits.c      ****   uint8_t step_pin[N_AXIS];
 270              		.loc 1 109 0
 271 008e 4FF0030A 		mov	r10, #3
 272              	.LVL23:
 273 0092 00E0     		b	.L43
 274              	.LVL24:
 275              	.L50:
 131:limits.c      **** 
 132:limits.c      ****   uint8_t limit_state, axislock, n_active_axis;
 133:limits.c      ****   do {
 134:limits.c      **** 
 135:limits.c      ****     system_convert_array_steps_to_mpos(target,sys_position);
 136:limits.c      **** 
 137:limits.c      ****     // Initialize and declare variables needed for homing routine.
 138:limits.c      ****     axislock = 0;
 139:limits.c      ****     n_active_axis = 0;
 140:limits.c      ****     for (idx=0; idx<N_AXIS; idx++) {
 141:limits.c      ****       // Set target location for active axes and setup computation for homing rate.
 142:limits.c      ****       if (bit_istrue(cycle_mask,bit(idx))) {
 143:limits.c      ****         n_active_axis++;
 144:limits.c      ****         #ifdef COREXY
 145:limits.c      ****           if (idx == X_AXIS) {
 146:limits.c      ****             int32_t axis_position = system_convert_corexy_to_y_axis_steps(sys_position);
 147:limits.c      ****             sys_position[A_MOTOR] = axis_position;
 148:limits.c      ****             sys_position[B_MOTOR] = -axis_position;
 149:limits.c      ****           } else if (idx == Y_AXIS) {
 150:limits.c      ****             int32_t axis_position = system_convert_corexy_to_x_axis_steps(sys_position);
 151:limits.c      ****             sys_position[A_MOTOR] = sys_position[B_MOTOR] = axis_position;
 152:limits.c      ****           } else {
 153:limits.c      ****             sys_position[Z_AXIS] = 0;
 154:limits.c      ****           }
 155:limits.c      ****         #else
 156:limits.c      ****           sys_position[idx] = 0;
 157:limits.c      ****         #endif
 158:limits.c      ****         // Set target direction based on cycle mask and homing cycle approach state.
 159:limits.c      ****         // NOTE: This happens to compile smaller than any other implementation tried.
 160:limits.c      ****         if (bit_istrue(settings.homing_dir_mask,bit(idx))) {
 161:limits.c      ****           if (approach) { target[idx] = -max_travel; }
 162:limits.c      ****           else { target[idx] = max_travel; }
 163:limits.c      ****         } else {
 164:limits.c      ****           if (approach) { target[idx] = max_travel; }
ARM GAS  C:\Users\miker\AppData\Local\Temp\ccQCAluu.s 			page 9


 165:limits.c      ****           else { target[idx] = -max_travel; }
 166:limits.c      ****         }
 167:limits.c      ****         // Apply axislock to the step port pins active in this cycle.
 168:limits.c      ****         axislock |= step_pin[idx];
 169:limits.c      ****       }
 170:limits.c      **** 
 171:limits.c      ****     }
 172:limits.c      ****     homing_rate *= sqrt(n_active_axis); // [sqrt(N_AXIS)] Adjust so individual axes all move at hom
 173:limits.c      ****     sys.homing_axis_lock = axislock;
 174:limits.c      **** 
 175:limits.c      ****     // Perform homing cycle. Planner buffer should be empty, as required to initiate the homing cyc
 176:limits.c      ****     pl_data->feed_rate = homing_rate; // Set current homing rate.
 177:limits.c      ****     plan_buffer_line(target, pl_data); // Bypass mc_line(). Directly plan homing motion.
 178:limits.c      **** 
 179:limits.c      ****     sys.step_control = STEP_CONTROL_EXECUTE_SYS_MOTION; // Set to execute homing motion and clear e
 180:limits.c      ****     st_prep_buffer(); // Prep and fill segment buffer from newly planned block.
 181:limits.c      ****     st_wake_up(); // Initiate motion
 182:limits.c      ****     do {
 183:limits.c      ****       if (approach) {
 184:limits.c      ****         // Check limit state. Lock out cycle axes when they change.
 185:limits.c      ****         limit_state = limits_get_state();
 186:limits.c      ****         for (idx=0; idx<N_AXIS; idx++) {
 187:limits.c      ****           if (axislock & step_pin[idx]) {
 188:limits.c      ****             if (limit_state & (1 << idx)) {
 189:limits.c      ****               #ifdef COREXY
 190:limits.c      ****                 if (idx==Z_AXIS) { axislock &= ~(step_pin[Z_AXIS]); }
 191:limits.c      ****                 else { axislock &= ~(step_pin[A_MOTOR]|step_pin[B_MOTOR]); }
 192:limits.c      ****               #else
 193:limits.c      ****                 axislock &= ~(step_pin[idx]);
 194:limits.c      ****               #endif
 195:limits.c      ****             }
 196:limits.c      ****           }
 197:limits.c      ****         }
 198:limits.c      ****         sys.homing_axis_lock = axislock;
 199:limits.c      ****       }
 200:limits.c      **** 
 201:limits.c      ****       st_prep_buffer(); // Check and prep segment buffer. NOTE: Should take no longer than 200us.
 202:limits.c      **** 
 203:limits.c      ****       // Exit routines: No time to run protocol_execute_realtime() in this loop.
 204:limits.c      ****       if (sys_rt_exec_state & (EXEC_SAFETY_DOOR | EXEC_RESET | EXEC_CYCLE_STOP)) {
 205:limits.c      ****         uint8_t rt_exec = sys_rt_exec_state;
 206:limits.c      ****         // Homing failure condition: Reset issued during cycle.
 207:limits.c      ****         if (rt_exec & EXEC_RESET) { system_set_exec_alarm(EXEC_ALARM_HOMING_FAIL_RESET); }
 208:limits.c      ****         // Homing failure condition: Safety door was opened.
 209:limits.c      ****         if (rt_exec & EXEC_SAFETY_DOOR) { system_set_exec_alarm(EXEC_ALARM_HOMING_FAIL_DOOR); }
 210:limits.c      ****         // Homing failure condition: Limit switch still engaged after pull-off motion
 211:limits.c      ****         if (!approach && (limits_get_state() & cycle_mask)) { system_set_exec_alarm(EXEC_ALARM_HOMI
 212:limits.c      ****         // Homing failure condition: Limit switch not found during approach.
 213:limits.c      ****         if (approach && (rt_exec & EXEC_CYCLE_STOP)) { system_set_exec_alarm(EXEC_ALARM_HOMING_FAIL
 214:limits.c      ****         if (sys_rt_exec_alarm) {
 215:limits.c      ****           mc_reset(); // Stop motors, if they are running.
 216:limits.c      ****           protocol_execute_realtime();
 217:limits.c      ****           return;
 218:limits.c      ****         } else {
 219:limits.c      ****           // Pull-off motion complete. Disable CYCLE_STOP from executing.
 220:limits.c      ****           system_clear_exec_state_flag(EXEC_CYCLE_STOP);
 221:limits.c      ****           break;
ARM GAS  C:\Users\miker\AppData\Local\Temp\ccQCAluu.s 			page 10


 222:limits.c      ****         }
 223:limits.c      ****       }
 224:limits.c      **** 
 225:limits.c      ****     } while (STEP_MASK & axislock);
 226:limits.c      **** 
 227:limits.c      ****     st_reset(); // Immediately force kill steppers and reset step segment buffer.
 228:limits.c      ****     delay_ms(settings.homing_debounce_delay); // Delay to allow transient dynamics to dissipate.
 229:limits.c      **** 
 230:limits.c      ****     // Reverse direction and reset homing rate for locate cycle(s).
 231:limits.c      ****     approach = !approach;
 232:limits.c      **** 
 233:limits.c      ****     // After first cycle, homing enters locating phase. Shorten search to pull-off distance.
 234:limits.c      ****     if (approach) {
 235:limits.c      ****       max_travel = settings.homing_pulloff*HOMING_AXIS_LOCATE_SCALAR;
 236:limits.c      ****       homing_rate = settings.homing_feed_rate;
 237:limits.c      ****     } else {
 238:limits.c      ****       max_travel = settings.homing_pulloff;
 239:limits.c      ****       homing_rate = settings.homing_seek_rate;
 240:limits.c      ****     }
 241:limits.c      **** 
 242:limits.c      ****   } while (n_cycle-- > 0);
 276              		.loc 1 242 0
 277 0094 9A46     		mov	r10, r3
 278              	.LVL25:
 279              	.L43:
 135:limits.c      **** 
 280              		.loc 1 135 0
 281 0096 01A8     		add	r0, sp, #4
 282 0098 8449     		ldr	r1, .L53+12
 283 009a FFF7FEFF 		bl	system_convert_array_steps_to_mpos
 284              	.LVL26:
 139:limits.c      ****     for (idx=0; idx<N_AXIS; idx++) {
 285              		.loc 1 139 0
 286 009e 0026     		movs	r6, #0
 138:limits.c      ****     n_active_axis = 0;
 287              		.loc 1 138 0
 288 00a0 3446     		mov	r4, r6
 140:limits.c      ****       // Set target location for active axes and setup computation for homing rate.
 289              		.loc 1 140 0
 290 00a2 3346     		mov	r3, r6
 291 00a4 36E0     		b	.L22
 292              	.LVL27:
 293              	.L28:
 142:limits.c      ****         n_active_axis++;
 294              		.loc 1 142 0
 295 00a6 1A46     		mov	r2, r3
 296 00a8 48FA03F1 		asr	r1, r8, r3
 297 00ac 11F0010F 		tst	r1, #1
 298 00b0 2ED0     		beq	.L23
 143:limits.c      ****         #ifdef COREXY
 299              		.loc 1 143 0
 300 00b2 0136     		adds	r6, r6, #1
 301              	.LVL28:
 302 00b4 F6B2     		uxtb	r6, r6
 303              	.LVL29:
 156:limits.c      ****         #endif
 304              		.loc 1 156 0
ARM GAS  C:\Users\miker\AppData\Local\Temp\ccQCAluu.s 			page 11


 305 00b6 0020     		movs	r0, #0
 306 00b8 7C49     		ldr	r1, .L53+12
 307 00ba 41F82300 		str	r0, [r1, r3, lsl #2]
 160:limits.c      ****           if (approach) { target[idx] = -max_travel; }
 308              		.loc 1 160 0
 309 00be 7949     		ldr	r1, .L53+4
 310 00c0 91F84910 		ldrb	r1, [r1, #73]	@ zero_extendqisi2
 311 00c4 1941     		asrs	r1, r1, r3
 312 00c6 11F0010F 		tst	r1, #1
 313 00ca 0ED0     		beq	.L24
 161:limits.c      ****           else { target[idx] = max_travel; }
 314              		.loc 1 161 0
 315 00cc 3DB1     		cbz	r5, .L25
 161:limits.c      ****           else { target[idx] = max_travel; }
 316              		.loc 1 161 0 is_stmt 0 discriminator 1
 317 00ce 09F10040 		add	r0, r9, #-2147483648
 318 00d2 08A9     		add	r1, sp, #32
 319 00d4 01EB8301 		add	r1, r1, r3, lsl #2
 320 00d8 41F81C0C 		str	r0, [r1, #-28]	@ float
 321 00dc 13E0     		b	.L26
 322              	.L25:
 162:limits.c      ****         } else {
 323              		.loc 1 162 0 is_stmt 1
 324 00de 08A9     		add	r1, sp, #32
 325 00e0 01EB8301 		add	r1, r1, r3, lsl #2
 326 00e4 41F81C9C 		str	r9, [r1, #-28]	@ float
 327 00e8 0DE0     		b	.L26
 328              	.L24:
 164:limits.c      ****           else { target[idx] = -max_travel; }
 329              		.loc 1 164 0
 330 00ea 2DB1     		cbz	r5, .L27
 164:limits.c      ****           else { target[idx] = -max_travel; }
 331              		.loc 1 164 0 is_stmt 0 discriminator 1
 332 00ec 08A9     		add	r1, sp, #32
 333 00ee 01EB8301 		add	r1, r1, r3, lsl #2
 334 00f2 41F81C9C 		str	r9, [r1, #-28]	@ float
 335 00f6 06E0     		b	.L26
 336              	.L27:
 165:limits.c      ****         }
 337              		.loc 1 165 0 is_stmt 1
 338 00f8 09F10040 		add	r0, r9, #-2147483648
 339 00fc 08A9     		add	r1, sp, #32
 340 00fe 01EB8301 		add	r1, r1, r3, lsl #2
 341 0102 41F81C0C 		str	r0, [r1, #-28]	@ float
 342              	.L26:
 168:limits.c      ****       }
 343              		.loc 1 168 0
 344 0106 08A9     		add	r1, sp, #32
 345 0108 0A44     		add	r2, r2, r1
 346 010a 12F8102C 		ldrb	r2, [r2, #-16]	@ zero_extendqisi2
 347 010e 1443     		orrs	r4, r4, r2
 348              	.LVL30:
 349              	.L23:
 140:limits.c      ****       // Set target location for active axes and setup computation for homing rate.
 350              		.loc 1 140 0 discriminator 2
 351 0110 0133     		adds	r3, r3, #1
 352              	.LVL31:
ARM GAS  C:\Users\miker\AppData\Local\Temp\ccQCAluu.s 			page 12


 353 0112 DBB2     		uxtb	r3, r3
 354              	.LVL32:
 355              	.L22:
 140:limits.c      ****       // Set target location for active axes and setup computation for homing rate.
 356              		.loc 1 140 0 is_stmt 0 discriminator 1
 357 0114 022B     		cmp	r3, #2
 358 0116 C6D9     		bls	.L28
 172:limits.c      ****     sys.homing_axis_lock = axislock;
 359              		.loc 1 172 0 is_stmt 1
 360 0118 3046     		mov	r0, r6
 361 011a FFF7FEFF 		bl	__aeabi_ui2d
 362              	.LVL33:
 363 011e FFF7FEFF 		bl	sqrt
 364              	.LVL34:
 365 0122 0646     		mov	r6, r0
 366              	.LVL35:
 367 0124 0F46     		mov	r7, r1
 368 0126 5846     		mov	r0, fp
 369 0128 FFF7FEFF 		bl	__aeabi_f2d
 370              	.LVL36:
 371 012c 3246     		mov	r2, r6
 372 012e 3B46     		mov	r3, r7
 373 0130 FFF7FEFF 		bl	__aeabi_dmul
 374              	.LVL37:
 375 0134 FFF7FEFF 		bl	__aeabi_d2f
 376              	.LVL38:
 173:limits.c      **** 
 377              		.loc 1 173 0
 378 0138 594E     		ldr	r6, .L53
 379 013a B471     		strb	r4, [r6, #6]
 176:limits.c      ****     plan_buffer_line(target, pl_data); // Bypass mc_line(). Directly plan homing motion.
 380              		.loc 1 176 0
 381 013c 0590     		str	r0, [sp, #20]	@ float
 177:limits.c      **** 
 382              		.loc 1 177 0
 383 013e 01A8     		add	r0, sp, #4
 384              	.LVL39:
 385 0140 05A9     		add	r1, sp, #20
 386              	.LVL40:
 387 0142 FFF7FEFF 		bl	plan_buffer_line
 388              	.LVL41:
 179:limits.c      ****     st_prep_buffer(); // Prep and fill segment buffer from newly planned block.
 389              		.loc 1 179 0
 390 0146 0423     		movs	r3, #4
 391 0148 3371     		strb	r3, [r6, #4]
 180:limits.c      ****     st_wake_up(); // Initiate motion
 392              		.loc 1 180 0
 393 014a FFF7FEFF 		bl	st_prep_buffer
 394              	.LVL42:
 181:limits.c      ****     do {
 395              		.loc 1 181 0
 396 014e FFF7FEFF 		bl	st_wake_up
 397              	.LVL43:
 398              	.L40:
 183:limits.c      ****         // Check limit state. Lock out cycle axes when they change.
 399              		.loc 1 183 0
 400 0152 B5B1     		cbz	r5, .L29
ARM GAS  C:\Users\miker\AppData\Local\Temp\ccQCAluu.s 			page 13


 185:limits.c      ****         for (idx=0; idx<N_AXIS; idx++) {
 401              		.loc 1 185 0
 402 0154 FFF7FEFF 		bl	limits_get_state
 403              	.LVL44:
 186:limits.c      ****           if (axislock & step_pin[idx]) {
 404              		.loc 1 186 0
 405 0158 0023     		movs	r3, #0
 406 015a 0EE0     		b	.L30
 407              	.LVL45:
 408              	.L32:
 187:limits.c      ****             if (limit_state & (1 << idx)) {
 409              		.loc 1 187 0
 410 015c 08AA     		add	r2, sp, #32
 411 015e 1A44     		add	r2, r2, r3
 412 0160 12F8102C 		ldrb	r2, [r2, #-16]	@ zero_extendqisi2
 413 0164 2242     		tst	r2, r4
 414 0166 06D0     		beq	.L31
 188:limits.c      ****               #ifdef COREXY
 415              		.loc 1 188 0
 416 0168 40FA03F1 		asr	r1, r0, r3
 417 016c 11F0010F 		tst	r1, #1
 418 0170 01D0     		beq	.L31
 193:limits.c      ****               #endif
 419              		.loc 1 193 0
 420 0172 24EA0204 		bic	r4, r4, r2
 421              	.LVL46:
 422              	.L31:
 186:limits.c      ****           if (axislock & step_pin[idx]) {
 423              		.loc 1 186 0 discriminator 2
 424 0176 0133     		adds	r3, r3, #1
 425              	.LVL47:
 426 0178 DBB2     		uxtb	r3, r3
 427              	.LVL48:
 428              	.L30:
 186:limits.c      ****           if (axislock & step_pin[idx]) {
 429              		.loc 1 186 0 is_stmt 0 discriminator 1
 430 017a 022B     		cmp	r3, #2
 431 017c EED9     		bls	.L32
 198:limits.c      ****       }
 432              		.loc 1 198 0 is_stmt 1
 433 017e 484B     		ldr	r3, .L53
 434              	.LVL49:
 435 0180 9C71     		strb	r4, [r3, #6]
 436              	.LVL50:
 437              	.L29:
 201:limits.c      **** 
 438              		.loc 1 201 0
 439 0182 FFF7FEFF 		bl	st_prep_buffer
 440              	.LVL51:
 204:limits.c      ****         uint8_t rt_exec = sys_rt_exec_state;
 441              		.loc 1 204 0
 442 0186 4A4B     		ldr	r3, .L53+16
 443 0188 1B78     		ldrb	r3, [r3]	@ zero_extendqisi2
 444 018a 13F0340F 		tst	r3, #52
 445 018e 2CD0     		beq	.L33
 446              	.LBB2:
 205:limits.c      ****         // Homing failure condition: Reset issued during cycle.
ARM GAS  C:\Users\miker\AppData\Local\Temp\ccQCAluu.s 			page 14


 447              		.loc 1 205 0
 448 0190 474B     		ldr	r3, .L53+16
 449 0192 1C78     		ldrb	r4, [r3]	@ zero_extendqisi2
 450              	.LVL52:
 451 0194 E4B2     		uxtb	r4, r4
 452              	.LVL53:
 207:limits.c      ****         // Homing failure condition: Safety door was opened.
 453              		.loc 1 207 0
 454 0196 14F0100F 		tst	r4, #16
 455 019a 02D0     		beq	.L34
 207:limits.c      ****         // Homing failure condition: Safety door was opened.
 456              		.loc 1 207 0 is_stmt 0 discriminator 1
 457 019c 0620     		movs	r0, #6
 458 019e FFF7FEFF 		bl	system_set_exec_alarm
 459              	.LVL54:
 460              	.L34:
 209:limits.c      ****         // Homing failure condition: Limit switch still engaged after pull-off motion
 461              		.loc 1 209 0 is_stmt 1
 462 01a2 14F0200F 		tst	r4, #32
 463 01a6 02D0     		beq	.L35
 209:limits.c      ****         // Homing failure condition: Limit switch still engaged after pull-off motion
 464              		.loc 1 209 0 is_stmt 0 discriminator 1
 465 01a8 0720     		movs	r0, #7
 466 01aa FFF7FEFF 		bl	system_set_exec_alarm
 467              	.LVL55:
 468              	.L35:
 211:limits.c      ****         // Homing failure condition: Limit switch not found during approach.
 469              		.loc 1 211 0 is_stmt 1
 470 01ae 3DB9     		cbnz	r5, .L36
 211:limits.c      ****         // Homing failure condition: Limit switch not found during approach.
 471              		.loc 1 211 0 is_stmt 0 discriminator 1
 472 01b0 FFF7FEFF 		bl	limits_get_state
 473              	.LVL56:
 474 01b4 10EA080F 		tst	r0, r8
 475 01b8 02D0     		beq	.L36
 211:limits.c      ****         // Homing failure condition: Limit switch not found during approach.
 476              		.loc 1 211 0 discriminator 2
 477 01ba 0820     		movs	r0, #8
 478 01bc FFF7FEFF 		bl	system_set_exec_alarm
 479              	.LVL57:
 480              	.L36:
 213:limits.c      ****         if (sys_rt_exec_alarm) {
 481              		.loc 1 213 0 is_stmt 1
 482 01c0 2DB1     		cbz	r5, .L37
 213:limits.c      ****         if (sys_rt_exec_alarm) {
 483              		.loc 1 213 0 is_stmt 0 discriminator 1
 484 01c2 14F0040F 		tst	r4, #4
 485 01c6 02D0     		beq	.L37
 213:limits.c      ****         if (sys_rt_exec_alarm) {
 486              		.loc 1 213 0 discriminator 2
 487 01c8 0920     		movs	r0, #9
 488 01ca FFF7FEFF 		bl	system_set_exec_alarm
 489              	.LVL58:
 490              	.L37:
 214:limits.c      ****           mc_reset(); // Stop motors, if they are running.
 491              		.loc 1 214 0 is_stmt 1
 492 01ce 394B     		ldr	r3, .L53+20
ARM GAS  C:\Users\miker\AppData\Local\Temp\ccQCAluu.s 			page 15


 493 01d0 1B78     		ldrb	r3, [r3]	@ zero_extendqisi2
 494 01d2 13F0FF0F 		tst	r3, #255
 495 01d6 04D0     		beq	.L38
 215:limits.c      ****           protocol_execute_realtime();
 496              		.loc 1 215 0
 497 01d8 FFF7FEFF 		bl	mc_reset
 498              	.LVL59:
 216:limits.c      ****           return;
 499              		.loc 1 216 0
 500 01dc FFF7FEFF 		bl	protocol_execute_realtime
 501              	.LVL60:
 217:limits.c      ****         } else {
 502              		.loc 1 217 0
 503 01e0 5AE0     		b	.L16
 504              	.L38:
 220:limits.c      ****           break;
 505              		.loc 1 220 0
 506 01e2 0420     		movs	r0, #4
 507 01e4 FFF7FEFF 		bl	system_clear_exec_state_flag
 508              	.LVL61:
 221:limits.c      ****         }
 509              		.loc 1 221 0
 510 01e8 02E0     		b	.L39
 511              	.LVL62:
 512              	.L33:
 513              	.LBE2:
 225:limits.c      **** 
 514              		.loc 1 225 0
 515 01ea 14F0070F 		tst	r4, #7
 516 01ee B0D1     		bne	.L40
 517              	.LVL63:
 518              	.L39:
 227:limits.c      ****     delay_ms(settings.homing_debounce_delay); // Delay to allow transient dynamics to dissipate.
 519              		.loc 1 227 0
 520 01f0 FFF7FEFF 		bl	st_reset
 521              	.LVL64:
 228:limits.c      **** 
 522              		.loc 1 228 0
 523 01f4 2B4B     		ldr	r3, .L53+4
 524 01f6 B3F85400 		ldrh	r0, [r3, #84]
 525 01fa FFF7FEFF 		bl	CyDelay
 526              	.LVL65:
 234:limits.c      ****       max_travel = settings.homing_pulloff*HOMING_AXIS_LOCATE_SCALAR;
 527              		.loc 1 234 0
 528 01fe 95F00105 		eors	r5, r5, #1
 529              	.LVL66:
 530 0202 08D0     		beq	.L41
 235:limits.c      ****       homing_rate = settings.homing_feed_rate;
 531              		.loc 1 235 0
 532 0204 274C     		ldr	r4, .L53+4
 533 0206 A06D     		ldr	r0, [r4, #88]	@ float
 534 0208 2B49     		ldr	r1, .L53+24
 535 020a FFF7FEFF 		bl	__aeabi_fmul
 536              	.LVL67:
 537 020e 8146     		mov	r9, r0
 538              	.LVL68:
 236:limits.c      ****     } else {
ARM GAS  C:\Users\miker\AppData\Local\Temp\ccQCAluu.s 			page 16


 539              		.loc 1 236 0
 540 0210 D4F84CB0 		ldr	fp, [r4, #76]	@ float
 541              	.LVL69:
 542 0214 04E0     		b	.L42
 543              	.LVL70:
 544              	.L41:
 238:limits.c      ****       homing_rate = settings.homing_seek_rate;
 545              		.loc 1 238 0
 546 0216 234B     		ldr	r3, .L53+4
 547 0218 D3F85890 		ldr	r9, [r3, #88]	@ float
 548              	.LVL71:
 239:limits.c      ****     }
 549              		.loc 1 239 0
 550 021c D3F850B0 		ldr	fp, [r3, #80]	@ float
 551              	.LVL72:
 552              	.L42:
 553              		.loc 1 242 0
 554 0220 0AF1FF33 		add	r3, r10, #-1
 555 0224 DBB2     		uxtb	r3, r3
 556              	.LVL73:
 557 0226 BAF1000F 		cmp	r10, #0
 558 022a 7FF433AF 		bne	.L50
 559 022e 0024     		movs	r4, #0
 560 0230 2DE0     		b	.L44
 561              	.LVL74:
 562              	.L48:
 243:limits.c      **** 
 244:limits.c      ****   // The active cycle axes should now be homed and machine limits have been located. By
 245:limits.c      ****   // default, Grbl defines machine space as all negative, as do most CNCs. Since limit switches
 246:limits.c      ****   // can be on either side of an axes, check and set axes machine zero appropriately. Also,
 247:limits.c      ****   // set up pull-off maneuver from axes limit switches that have been homed. This provides
 248:limits.c      ****   // some initial clearance off the switches and should also help prevent them from falsely
 249:limits.c      ****   // triggering when hard limits are enabled or when more than one axes shares a limit pin.
 250:limits.c      ****   int32_t set_axis_position;
 251:limits.c      ****   // Set machine positions for homed limit switches. Don't update non-homed axes.
 252:limits.c      ****   for (idx=0; idx<N_AXIS; idx++) {
 253:limits.c      ****     // NOTE: settings.max_travel[] is stored as a negative value.
 254:limits.c      ****     if (cycle_mask & bit(idx)) {
 563              		.loc 1 254 0
 564 0232 2546     		mov	r5, r4
 565 0234 48FA04F3 		asr	r3, r8, r4
 566 0238 13F0010F 		tst	r3, #1
 567 023c 25D0     		beq	.L45
 255:limits.c      ****       #ifdef HOMING_FORCE_SET_ORIGIN
 256:limits.c      ****         set_axis_position = 0;
 257:limits.c      ****       #else
 258:limits.c      ****         if ( bit_istrue(settings.homing_dir_mask,bit(idx)) ) {
 568              		.loc 1 258 0
 569 023e 194B     		ldr	r3, .L53+4
 570 0240 93F84930 		ldrb	r3, [r3, #73]	@ zero_extendqisi2
 571 0244 2341     		asrs	r3, r3, r4
 572 0246 13F0010F 		tst	r3, #1
 573 024a 0FD0     		beq	.L46
 259:limits.c      ****           set_axis_position = lround((settings.max_travel[idx]+settings.homing_pulloff)*settings.st
 574              		.loc 1 259 0
 575 024c 154E     		ldr	r6, .L53+4
 576 024e 06EB8403 		add	r3, r6, r4, lsl #2
ARM GAS  C:\Users\miker\AppData\Local\Temp\ccQCAluu.s 			page 17


 577 0252 586A     		ldr	r0, [r3, #36]	@ float
 578 0254 B16D     		ldr	r1, [r6, #88]	@ float
 579 0256 FFF7FEFF 		bl	__aeabi_fadd
 580              	.LVL75:
 581 025a 56F82410 		ldr	r1, [r6, r4, lsl #2]	@ float
 582 025e FFF7FEFF 		bl	__aeabi_fmul
 583              	.LVL76:
 584 0262 FFF7FEFF 		bl	__aeabi_f2d
 585              	.LVL77:
 586 0266 FFF7FEFF 		bl	lround
 587              	.LVL78:
 588 026a 0BE0     		b	.L47
 589              	.LVL79:
 590              	.L46:
 260:limits.c      ****         } else {
 261:limits.c      ****           set_axis_position = lround(-settings.homing_pulloff*settings.steps_per_mm[idx]);
 591              		.loc 1 261 0
 592 026c 0D4B     		ldr	r3, .L53+4
 593 026e 986D     		ldr	r0, [r3, #88]	@ float
 594 0270 00F10040 		add	r0, r0, #-2147483648
 595 0274 53F82410 		ldr	r1, [r3, r4, lsl #2]	@ float
 596 0278 FFF7FEFF 		bl	__aeabi_fmul
 597              	.LVL80:
 598 027c FFF7FEFF 		bl	__aeabi_f2d
 599              	.LVL81:
 600 0280 FFF7FEFF 		bl	lround
 601              	.LVL82:
 602              	.L47:
 262:limits.c      ****         }
 263:limits.c      ****       #endif
 264:limits.c      **** 
 265:limits.c      ****       #ifdef COREXY
 266:limits.c      ****         if (idx==X_AXIS) {
 267:limits.c      ****           int32_t off_axis_position = system_convert_corexy_to_y_axis_steps(sys_position);
 268:limits.c      ****           sys_position[A_MOTOR] = set_axis_position + off_axis_position;
 269:limits.c      ****           sys_position[B_MOTOR] = set_axis_position - off_axis_position;
 270:limits.c      ****         } else if (idx==Y_AXIS) {
 271:limits.c      ****           int32_t off_axis_position = system_convert_corexy_to_x_axis_steps(sys_position);
 272:limits.c      ****           sys_position[A_MOTOR] = off_axis_position + set_axis_position;
 273:limits.c      ****           sys_position[B_MOTOR] = off_axis_position - set_axis_position;
 274:limits.c      ****         } else {
 275:limits.c      ****           sys_position[idx] = set_axis_position;
 276:limits.c      ****         }
 277:limits.c      ****       #else
 278:limits.c      ****         sys_position[idx] = set_axis_position;
 603              		.loc 1 278 0
 604 0284 094B     		ldr	r3, .L53+12
 605 0286 43F82500 		str	r0, [r3, r5, lsl #2]
 606              	.LVL83:
 607              	.L45:
 252:limits.c      ****     // NOTE: settings.max_travel[] is stored as a negative value.
 608              		.loc 1 252 0 discriminator 2
 609 028a 0134     		adds	r4, r4, #1
 610              	.LVL84:
 611 028c E4B2     		uxtb	r4, r4
 612              	.LVL85:
 613              	.L44:
ARM GAS  C:\Users\miker\AppData\Local\Temp\ccQCAluu.s 			page 18


 252:limits.c      ****     // NOTE: settings.max_travel[] is stored as a negative value.
 614              		.loc 1 252 0 is_stmt 0 discriminator 1
 615 028e 022C     		cmp	r4, #2
 616 0290 CFD9     		bls	.L48
 279:limits.c      ****       #endif
 280:limits.c      **** 
 281:limits.c      ****     }
 282:limits.c      ****   }
 283:limits.c      ****   sys.step_control = STEP_CONTROL_NORMAL_OP; // Return step control to normal operation.
 617              		.loc 1 283 0 is_stmt 1
 618 0292 0022     		movs	r2, #0
 619 0294 024B     		ldr	r3, .L53
 620 0296 1A71     		strb	r2, [r3, #4]
 621              	.LVL86:
 622              	.L16:
 284:limits.c      **** }
 623              		.loc 1 284 0
 624 0298 09B0     		add	sp, sp, #36
 625              		.cfi_def_cfa_offset 36
 626              		@ sp needed
 627 029a BDE8F08F 		pop	{r4, r5, r6, r7, r8, r9, r10, fp, pc}
 628              	.LVL87:
 629              	.L52:
 630              		.cfi_def_cfa_offset 0
 631              		.cfi_restore 4
 632              		.cfi_restore 5
 633              		.cfi_restore 6
 634              		.cfi_restore 7
 635              		.cfi_restore 8
 636              		.cfi_restore 9
 637              		.cfi_restore 10
 638              		.cfi_restore 11
 639              		.cfi_restore 14
 640 029e 7047     		bx	lr
 641              	.L54:
 642              		.align	2
 643              	.L53:
 644 02a0 00000000 		.word	sys
 645 02a4 00000000 		.word	settings
 646 02a8 0000F8BF 		.word	-1074266112
 647 02ac 00000000 		.word	sys_position
 648 02b0 00000000 		.word	sys_rt_exec_state
 649 02b4 00000000 		.word	sys_rt_exec_alarm
 650 02b8 0000A040 		.word	1084227584
 651              		.cfi_endproc
 652              	.LFE67:
 653              		.size	limits_go_home, .-limits_go_home
 654              		.section	.text.limits_soft_check,"ax",%progbits
 655              		.align	2
 656              		.global	limits_soft_check
 657              		.thumb
 658              		.thumb_func
 659              		.type	limits_soft_check, %function
 660              	limits_soft_check:
 661              	.LFB68:
 285:limits.c      **** 
 286:limits.c      **** 
ARM GAS  C:\Users\miker\AppData\Local\Temp\ccQCAluu.s 			page 19


 287:limits.c      **** // Performs a soft limit check. Called from mc_line() only. Assumes the machine has been homed,
 288:limits.c      **** // the workspace volume is in all negative space, and the system is in normal operation.
 289:limits.c      **** // NOTE: Used by jogging to limit travel within soft-limit volume.
 290:limits.c      **** void limits_soft_check(float *target)
 291:limits.c      **** {
 662              		.loc 1 291 0
 663              		.cfi_startproc
 664              		@ args = 0, pretend = 0, frame = 0
 665              		@ frame_needed = 0, uses_anonymous_args = 0
 666              	.LVL88:
 667 0000 08B5     		push	{r3, lr}
 668              		.cfi_def_cfa_offset 8
 669              		.cfi_offset 3, -8
 670              		.cfi_offset 14, -4
 292:limits.c      ****   if (system_check_travel_limits(target)) {
 671              		.loc 1 292 0
 672 0002 FFF7FEFF 		bl	system_check_travel_limits
 673              	.LVL89:
 674 0006 C0B1     		cbz	r0, .L55
 293:limits.c      ****     sys.soft_limit = true;
 675              		.loc 1 293 0
 676 0008 0C4B     		ldr	r3, .L60
 677 000a 0122     		movs	r2, #1
 678 000c DA70     		strb	r2, [r3, #3]
 294:limits.c      ****     // Force feed hold if cycle is active. All buffered blocks are guaranteed to be within
 295:limits.c      ****     // workspace volume so just come to a controlled stop so position is not lost. When complete
 296:limits.c      ****     // enter alarm mode.
 297:limits.c      ****     if (sys.state == STATE_CYCLE) {
 679              		.loc 1 297 0
 680 000e 1B78     		ldrb	r3, [r3]	@ zero_extendqisi2
 681 0010 082B     		cmp	r3, #8
 682 0012 0BD1     		bne	.L57
 298:limits.c      ****       system_set_exec_state_flag(EXEC_FEED_HOLD);
 683              		.loc 1 298 0
 684 0014 0820     		movs	r0, #8
 685 0016 FFF7FEFF 		bl	system_set_exec_state_flag
 686              	.LVL90:
 687              	.L58:
 299:limits.c      ****       do {
 300:limits.c      ****         protocol_execute_realtime();
 688              		.loc 1 300 0
 689 001a FFF7FEFF 		bl	protocol_execute_realtime
 690              	.LVL91:
 301:limits.c      ****         if (sys.abort) { return; }
 691              		.loc 1 301 0
 692 001e 074B     		ldr	r3, .L60
 693 0020 5B78     		ldrb	r3, [r3, #1]	@ zero_extendqisi2
 694 0022 53B9     		cbnz	r3, .L55
 302:limits.c      ****       } while ( sys.state != STATE_IDLE );
 695              		.loc 1 302 0
 696 0024 054B     		ldr	r3, .L60
 697 0026 1B78     		ldrb	r3, [r3]	@ zero_extendqisi2
 698 0028 002B     		cmp	r3, #0
 699 002a F6D1     		bne	.L58
 700              	.L57:
 303:limits.c      ****     }
 304:limits.c      ****     mc_reset(); // Issue system reset and ensure spindle and coolant are shutdown.
ARM GAS  C:\Users\miker\AppData\Local\Temp\ccQCAluu.s 			page 20


 701              		.loc 1 304 0
 702 002c FFF7FEFF 		bl	mc_reset
 703              	.LVL92:
 305:limits.c      ****     system_set_exec_alarm(EXEC_ALARM_SOFT_LIMIT); // Indicate soft limit critical event
 704              		.loc 1 305 0
 705 0030 0220     		movs	r0, #2
 706 0032 FFF7FEFF 		bl	system_set_exec_alarm
 707              	.LVL93:
 306:limits.c      ****     protocol_execute_realtime(); // Execute to enter critical event loop and system abort
 708              		.loc 1 306 0
 709 0036 FFF7FEFF 		bl	protocol_execute_realtime
 710              	.LVL94:
 711              	.L55:
 712 003a 08BD     		pop	{r3, pc}
 713              	.L61:
 714              		.align	2
 715              	.L60:
 716 003c 00000000 		.word	sys
 717              		.cfi_endproc
 718              	.LFE68:
 719              		.size	limits_soft_check, .-limits_soft_check
 720              		.comm	exec_lcd_status,1,1
 721              		.comm	sys_rt_exec_accessory_override,1,1
 722              		.comm	sys_rt_exec_motion_override,1,1
 723              		.comm	sys_rt_exec_alarm,1,1
 724              		.comm	sys_rt_exec_state,1,1
 725              		.comm	sys_probe_state,1,1
 726              		.comm	sys_probe_position,12,4
 727              		.comm	sys_position,12,4
 728              		.text
 729              	.Letext0:
 730              		.file 2 "c:\\program files (x86)\\cypress\\psoc creator\\4.0\\psoc creator\\import\\gnu\\arm\\4.9.
 731              		.file 3 "c:\\program files (x86)\\cypress\\psoc creator\\4.0\\psoc creator\\import\\gnu\\arm\\4.9.
 732              		.file 4 "Generated_Source\\PSoC5/cytypes.h"
 733              		.file 5 "settings.h"
 734              		.file 6 "system.h"
 735              		.file 7 "planner.h"
 736              		.file 8 "Generated_Source\\PSoC5/core_cm3.h"
 737              		.file 9 "lcd_report.h"
 738              		.file 10 "Generated_Source\\PSoC5/Status_Limit.h"
 739              		.file 11 "Generated_Source\\PSoC5/isr_Limits.h"
 740              		.file 12 "motion_control.h"
 741              		.file 13 "protocol.h"
 742              		.file 14 "c:\\program files (x86)\\cypress\\psoc creator\\4.0\\psoc creator\\import\\gnu\\arm\\4.9
 743              		.file 15 "stepper.h"
 744              		.file 16 "Generated_Source\\PSoC5/CyLib.h"