ARM GAS  C:\Users\miker\AppData\Local\Temp\ccACe0eG.s 			page 1


   1              		.syntax unified
   2              		.cpu cortex-m3
   3              		.fpu softvfp
   4              		.eabi_attribute 20, 1
   5              		.eabi_attribute 21, 1
   6              		.eabi_attribute 23, 3
   7              		.eabi_attribute 24, 1
   8              		.eabi_attribute 25, 1
   9              		.eabi_attribute 26, 1
  10              		.eabi_attribute 30, 1
  11              		.eabi_attribute 34, 1
  12              		.eabi_attribute 18, 4
  13              		.thumb
  14              		.file	"serial.c"
  15              		.text
  16              	.Ltext0:
  17              		.cfi_sections	.debug_frame
  18              		.section	.text.serial_get_rx_buffer_available,"ax",%progbits
  19              		.align	2
  20              		.global	serial_get_rx_buffer_available
  21              		.thumb
  22              		.thumb_func
  23              		.type	serial_get_rx_buffer_available, %function
  24              	serial_get_rx_buffer_available:
  25              	.LFB63:
  26              		.file 1 "serial.c"
   1:serial.c      **** /*
   2:serial.c      ****   serial.c - Low level functions for sending and recieving bytes via the serial port
   3:serial.c      ****   Part of Grbl
   4:serial.c      **** 
   5:serial.c      ****   Copyright (c) 2011-2015 Sungeun K. Jeon
   6:serial.c      ****   Copyright (c) 2009-2011 Simen Svale Skogsrud
   7:serial.c      ****    Updated For PSOC BJD 2017
   8:serial.c      **** 
   9:serial.c      ****   Grbl is free software: you can redistribute it and/or modify
  10:serial.c      ****   it under the terms of the GNU General Public License as published by
  11:serial.c      ****   the Free Software Foundation, either version 3 of the License, or
  12:serial.c      ****   (at your option) any later version.
  13:serial.c      **** 
  14:serial.c      ****   Grbl is distributed in the hope that it will be useful,
  15:serial.c      ****   but WITHOUT ANY WARRANTY; without even the implied warranty of
  16:serial.c      ****   MERCHANTABILITY or FITNESS FOR A PARTICULAR PURPOSE.  See the
  17:serial.c      ****   GNU General Public License for more details.
  18:serial.c      **** 
  19:serial.c      ****   You should have received a copy of the GNU General Public License
  20:serial.c      ****   along with Grbl.  If not, see <http://www.gnu.org/licenses/>.
  21:serial.c      **** */
  22:serial.c      **** 
  23:serial.c      **** #include <project.h>
  24:serial.c      **** //#include "serial.h"
  25:serial.c      **** #include "grbl.h"
  26:serial.c      **** 
  27:serial.c      **** #define RX_RING_BUFFER (RX_BUFFER_SIZE+1)
  28:serial.c      **** #define TX_RING_BUFFER (TX_BUFFER_SIZE+1)
  29:serial.c      **** #define USBFS_DEVICE    (0u) //used for UsbUart only
  30:serial.c      **** 
  31:serial.c      **** uint8_t serial_rx_buffer[RX_BUFFER_SIZE];
ARM GAS  C:\Users\miker\AppData\Local\Temp\ccACe0eG.s 			page 2


  32:serial.c      **** uint8_t serial_rx_buffer_head = 0;
  33:serial.c      **** volatile uint8_t serial_rx_buffer_tail = 0;
  34:serial.c      **** 
  35:serial.c      **** // no grbl +TX buffer required for PSoc verison
  36:serial.c      **** 
  37:serial.c      **** 
  38:serial.c      **** 
  39:serial.c      **** // Returns the number of bytes available in the RX serial buffer.
  40:serial.c      **** uint8_t serial_get_rx_buffer_available()
  41:serial.c      **** {
  27              		.loc 1 41 0
  28              		.cfi_startproc
  29              		@ args = 0, pretend = 0, frame = 0
  30              		@ frame_needed = 0, uses_anonymous_args = 0
  31              		@ link register save eliminated.
  42:serial.c      ****   uint8_t rtail = serial_rx_buffer_tail; // Copy to limit multiple calls to volatile
  32              		.loc 1 42 0
  33 0000 064A     		ldr	r2, .L4
  34 0002 1378     		ldrb	r3, [r2]	@ zero_extendqisi2
  35 0004 DBB2     		uxtb	r3, r3
  36              	.LVL0:
  43:serial.c      ****   if (serial_rx_buffer_head >= rtail) { return(RX_BUFFER_SIZE - (serial_rx_buffer_head-rtail)); }
  37              		.loc 1 43 0
  38 0006 5078     		ldrb	r0, [r2, #1]	@ zero_extendqisi2
  39 0008 9842     		cmp	r0, r3
  40 000a 03D3     		bcc	.L2
  41              		.loc 1 43 0 is_stmt 0 discriminator 1
  42 000c 181A     		subs	r0, r3, r0
  43 000e 8038     		subs	r0, r0, #128
  44 0010 C0B2     		uxtb	r0, r0
  45 0012 7047     		bx	lr
  46              	.L2:
  44:serial.c      ****   return((rtail-serial_rx_buffer_head-1));
  47              		.loc 1 44 0 is_stmt 1
  48 0014 181A     		subs	r0, r3, r0
  49 0016 0138     		subs	r0, r0, #1
  50 0018 C0B2     		uxtb	r0, r0
  45:serial.c      **** }
  51              		.loc 1 45 0
  52 001a 7047     		bx	lr
  53              	.L5:
  54              		.align	2
  55              	.L4:
  56 001c 00000000 		.word	.LANCHOR0
  57              		.cfi_endproc
  58              	.LFE63:
  59              		.size	serial_get_rx_buffer_available, .-serial_get_rx_buffer_available
  60              		.section	.text.serial_get_rx_buffer_count,"ax",%progbits
  61              		.align	2
  62              		.global	serial_get_rx_buffer_count
  63              		.thumb
  64              		.thumb_func
  65              		.type	serial_get_rx_buffer_count, %function
  66              	serial_get_rx_buffer_count:
  67              	.LFB64:
  46:serial.c      **** 
  47:serial.c      **** 
ARM GAS  C:\Users\miker\AppData\Local\Temp\ccACe0eG.s 			page 3


  48:serial.c      **** 
  49:serial.c      **** // Returns the number of bytes used in the RX serial buffer.
  50:serial.c      **** uint8_t serial_get_rx_buffer_count()
  51:serial.c      **** {
  68              		.loc 1 51 0
  69              		.cfi_startproc
  70              		@ args = 0, pretend = 0, frame = 0
  71              		@ frame_needed = 0, uses_anonymous_args = 0
  72              		@ link register save eliminated.
  52:serial.c      ****   uint8_t rtail = serial_rx_buffer_tail; // Copy to limit multiple calls to volatile
  73              		.loc 1 52 0
  74 0000 064B     		ldr	r3, .L9
  75 0002 1878     		ldrb	r0, [r3]	@ zero_extendqisi2
  76 0004 C0B2     		uxtb	r0, r0
  77              	.LVL1:
  53:serial.c      ****   if (serial_rx_buffer_head >= rtail) { return(serial_rx_buffer_head-rtail); }
  78              		.loc 1 53 0
  79 0006 5B78     		ldrb	r3, [r3, #1]	@ zero_extendqisi2
  80 0008 8342     		cmp	r3, r0
  81 000a 02D3     		bcc	.L7
  82              		.loc 1 53 0 is_stmt 0 discriminator 1
  83 000c 181A     		subs	r0, r3, r0
  84              	.LVL2:
  85 000e C0B2     		uxtb	r0, r0
  86 0010 7047     		bx	lr
  87              	.LVL3:
  88              	.L7:
  54:serial.c      ****   return (RX_BUFFER_SIZE - (rtail-serial_rx_buffer_head));
  89              		.loc 1 54 0 is_stmt 1
  90 0012 181A     		subs	r0, r3, r0
  91              	.LVL4:
  92 0014 8038     		subs	r0, r0, #128
  93 0016 C0B2     		uxtb	r0, r0
  55:serial.c      **** }
  94              		.loc 1 55 0
  95 0018 7047     		bx	lr
  96              	.L10:
  97 001a 00BF     		.align	2
  98              	.L9:
  99 001c 00000000 		.word	.LANCHOR0
 100              		.cfi_endproc
 101              	.LFE64:
 102              		.size	serial_get_rx_buffer_count, .-serial_get_rx_buffer_count
 103              		.section	.text.serial_init,"ax",%progbits
 104              		.align	2
 105              		.global	serial_init
 106              		.thumb
 107              		.thumb_func
 108              		.type	serial_init, %function
 109              	serial_init:
 110              	.LFB65:
  56:serial.c      **** 
  57:serial.c      **** 
  58:serial.c      **** 
  59:serial.c      **** 
  60:serial.c      **** // uint8_t serial_get_tx_buffer_count() // not req for PSoc
  61:serial.c      **** 
ARM GAS  C:\Users\miker\AppData\Local\Temp\ccACe0eG.s 			page 4


  62:serial.c      **** 
  63:serial.c      **** 
  64:serial.c      **** 
  65:serial.c      **** 
  66:serial.c      **** void serial_init()
  67:serial.c      **** {
 111              		.loc 1 67 0
 112              		.cfi_startproc
 113              		@ args = 0, pretend = 0, frame = 0
 114              		@ frame_needed = 0, uses_anonymous_args = 0
 115 0000 08B5     		push	{r3, lr}
 116              		.cfi_def_cfa_offset 8
 117              		.cfi_offset 3, -8
 118              		.cfi_offset 14, -4
  68:serial.c      ****     static bool started = false;
  69:serial.c      ****     
  70:serial.c      ****     // Start the component
  71:serial.c      ****     USBUART_Start(USBFS_DEVICE, USBUART_5V_OPERATION);
 119              		.loc 1 71 0
 120 0002 0020     		movs	r0, #0
 121 0004 0121     		movs	r1, #1
 122 0006 FFF7FEFF 		bl	USBUART_Start
 123              	.LVL5:
  72:serial.c      ****     //CyGlobalIntEnable;
  73:serial.c      ****     
  74:serial.c      ****    while (!started) {     
 124              		.loc 1 74 0
 125 000a 0AE0     		b	.L13
 126              	.L15:
  75:serial.c      ****       /* Host can send double SET_INTERFACE request. */
  76:serial.c      ****         if (0u != USBUART_IsConfigurationChanged())
 127              		.loc 1 76 0
 128 000c FFF7FEFF 		bl	USBUART_IsConfigurationChanged
 129              	.LVL6:
 130 0010 38B1     		cbz	r0, .L13
  77:serial.c      ****         { 
  78:serial.c      ****             if (0u != USBUART_GetConfiguration()) // Initialize IN endpoints when device is configu
 131              		.loc 1 78 0
 132 0012 FFF7FEFF 		bl	USBUART_GetConfiguration
 133              	.LVL7:
 134 0016 20B1     		cbz	r0, .L13
  79:serial.c      ****             {
  80:serial.c      ****                 // Enumeration is done, enable OUT endpoint to receive data from host. //
  81:serial.c      ****                 USBUART_CDC_Init();
 135              		.loc 1 81 0
 136 0018 FFF7FEFF 		bl	USBUART_CDC_Init
 137              	.LVL8:
  82:serial.c      ****                 started = true;   
 138              		.loc 1 82 0
 139 001c 0122     		movs	r2, #1
 140 001e 034B     		ldr	r3, .L17
 141 0020 9A70     		strb	r2, [r3, #2]
 142              	.L13:
  74:serial.c      ****       /* Host can send double SET_INTERFACE request. */
 143              		.loc 1 74 0
 144 0022 024B     		ldr	r3, .L17
 145 0024 9B78     		ldrb	r3, [r3, #2]	@ zero_extendqisi2
ARM GAS  C:\Users\miker\AppData\Local\Temp\ccACe0eG.s 			page 5


 146 0026 002B     		cmp	r3, #0
 147 0028 F0D0     		beq	.L15
  83:serial.c      ****             }
  84:serial.c      ****         }
  85:serial.c      ****         //LED_PWM_Start();  
  86:serial.c      ****     }   
  87:serial.c      **** }
 148              		.loc 1 87 0
 149 002a 08BD     		pop	{r3, pc}
 150              	.L18:
 151              		.align	2
 152              	.L17:
 153 002c 00000000 		.word	.LANCHOR0
 154              		.cfi_endproc
 155              	.LFE65:
 156              		.size	serial_init, .-serial_init
 157              		.section	.text.serial_write,"ax",%progbits
 158              		.align	2
 159              		.global	serial_write
 160              		.thumb
 161              		.thumb_func
 162              		.type	serial_write, %function
 163              	serial_write:
 164              	.LFB66:
  88:serial.c      **** 
  89:serial.c      **** 
  90:serial.c      **** 
  91:serial.c      **** 
  92:serial.c      **** // Writes one byte to the TX serial buffer. Called by main program.
  93:serial.c      **** void serial_write(uint8_t data) {
 165              		.loc 1 93 0
 166              		.cfi_startproc
 167              		@ args = 0, pretend = 0, frame = 0
 168              		@ frame_needed = 0, uses_anonymous_args = 0
 169              	.LVL9:
 170 0000 08B5     		push	{r3, lr}
 171              		.cfi_def_cfa_offset 8
 172              		.cfi_offset 3, -8
 173              		.cfi_offset 14, -4
  94:serial.c      ****   // totally rewritten for PSoc
  95:serial.c      ****   USBUART_PutChar(data);
 174              		.loc 1 95 0
 175 0002 FFF7FEFF 		bl	USBUART_PutChar
 176              	.LVL10:
 177 0006 08BD     		pop	{r3, pc}
 178              		.cfi_endproc
 179              	.LFE66:
 180              		.size	serial_write, .-serial_write
 181              		.section	.text.serial_read,"ax",%progbits
 182              		.align	2
 183              		.global	serial_read
 184              		.thumb
 185              		.thumb_func
 186              		.type	serial_read, %function
 187              	serial_read:
 188              	.LFB67:
  96:serial.c      **** }
ARM GAS  C:\Users\miker\AppData\Local\Temp\ccACe0eG.s 			page 6


  97:serial.c      **** 
  98:serial.c      **** 
  99:serial.c      **** 
 100:serial.c      **** 
 101:serial.c      **** 
 102:serial.c      **** // Fetches the first byte in the serial read buffer. Called by main program.
 103:serial.c      **** uint8_t serial_read()
 104:serial.c      **** {
 189              		.loc 1 104 0
 190              		.cfi_startproc
 191              		@ args = 0, pretend = 0, frame = 0
 192              		@ frame_needed = 0, uses_anonymous_args = 0
 193              		@ link register save eliminated.
 105:serial.c      ****   uint8_t tail = serial_rx_buffer_tail; // Temporary serial_rx_buffer_tail (to optimize for volatil
 194              		.loc 1 105 0
 195 0000 084A     		ldr	r2, .L26
 196 0002 1378     		ldrb	r3, [r2]	@ zero_extendqisi2
 197 0004 DBB2     		uxtb	r3, r3
 198              	.LVL11:
 106:serial.c      ****   if (serial_rx_buffer_head == tail) {
 199              		.loc 1 106 0
 200 0006 5278     		ldrb	r2, [r2, #1]	@ zero_extendqisi2
 201 0008 9A42     		cmp	r2, r3
 202 000a 09D0     		beq	.L24
 203              	.LBB2:
 107:serial.c      ****     return SERIAL_NO_DATA;
 108:serial.c      ****   } else {
 109:serial.c      ****     uint8_t data = serial_rx_buffer[tail];
 204              		.loc 1 109 0
 205 000c 064A     		ldr	r2, .L26+4
 206 000e D05C     		ldrb	r0, [r2, r3]	@ zero_extendqisi2
 207              	.LVL12:
 110:serial.c      **** 
 111:serial.c      ****     tail++;
 208              		.loc 1 111 0
 209 0010 0133     		adds	r3, r3, #1
 210              	.LVL13:
 211 0012 DBB2     		uxtb	r3, r3
 212              	.LVL14:
 112:serial.c      ****     if (tail == RX_RING_BUFFER) 
 213              		.loc 1 112 0
 214 0014 812B     		cmp	r3, #129
 215 0016 00D1     		bne	.L23
 113:serial.c      ****     { tail = 0; }
 216              		.loc 1 113 0
 217 0018 0023     		movs	r3, #0
 218              	.LVL15:
 219              	.L23:
 114:serial.c      ****     serial_rx_buffer_tail = tail;
 220              		.loc 1 114 0
 221 001a 024A     		ldr	r2, .L26
 222 001c 1370     		strb	r3, [r2]
 115:serial.c      **** 
 116:serial.c      ****     return data;
 223              		.loc 1 116 0
 224 001e 7047     		bx	lr
 225              	.LVL16:
ARM GAS  C:\Users\miker\AppData\Local\Temp\ccACe0eG.s 			page 7


 226              	.L24:
 227              	.LBE2:
 107:serial.c      ****   } else {
 228              		.loc 1 107 0
 229 0020 FF20     		movs	r0, #255
 117:serial.c      ****   }
 118:serial.c      **** }
 230              		.loc 1 118 0
 231 0022 7047     		bx	lr
 232              	.L27:
 233              		.align	2
 234              	.L26:
 235 0024 00000000 		.word	.LANCHOR0
 236 0028 00000000 		.word	serial_rx_buffer
 237              		.cfi_endproc
 238              	.LFE67:
 239              		.size	serial_read, .-serial_read
 240              		.section	.text.USBUART_RX_ISR,"ax",%progbits
 241              		.align	2
 242              		.global	USBUART_RX_ISR
 243              		.thumb
 244              		.thumb_func
 245              		.type	USBUART_RX_ISR, %function
 246              	USBUART_RX_ISR:
 247              	.LFB68:
 119:serial.c      **** 
 120:serial.c      **** 
 121:serial.c      **** 
 122:serial.c      **** 
 123:serial.c      **** 
 124:serial.c      **** //was ISR(SERIAL_RX)
 125:serial.c      **** void USBUART_RX_ISR()
 126:serial.c      **** {
 248              		.loc 1 126 0
 249              		.cfi_startproc
 250              		@ args = 0, pretend = 0, frame = 64
 251              		@ frame_needed = 0, uses_anonymous_args = 0
 252 0000 30B5     		push	{r4, r5, lr}
 253              		.cfi_def_cfa_offset 12
 254              		.cfi_offset 4, -12
 255              		.cfi_offset 5, -8
 256              		.cfi_offset 14, -4
 257 0002 91B0     		sub	sp, sp, #68
 258              		.cfi_def_cfa_offset 80
 259              	.LVL17:
 127:serial.c      ****   uint16 count;
 128:serial.c      ****   uint8_t data;
 129:serial.c      ****   uint8 buffer[64u];
 130:serial.c      ****   uint8_t next_head;  
 131:serial.c      ****   uint8 index =0;
 132:serial.c      **** 
 133:serial.c      ****   LED_PWM_Start();
 260              		.loc 1 133 0
 261 0004 FFF7FEFF 		bl	LED_PWM_Start
 262              	.LVL18:
 134:serial.c      ****   // Pick off realtime command characters directly from the serial stream. These characters are
 135:serial.c      ****   // not passed into the buffer, but these set system state flag bits for realtime execution.
ARM GAS  C:\Users\miker\AppData\Local\Temp\ccACe0eG.s 			page 8


 136:serial.c      ****   
 137:serial.c      ****   /* Read received data and re-enable OUT endpoint. */
 138:serial.c      ****   count = USBUART_GetAll(buffer);
 263              		.loc 1 138 0
 264 0008 6846     		mov	r0, sp
 265 000a FFF7FEFF 		bl	USBUART_GetAll
 266              	.LVL19:
 139:serial.c      **** 
 140:serial.c      ****     data = buffer[0];
 267              		.loc 1 140 0
 268 000e 9DF80030 		ldrb	r3, [sp]	@ zero_extendqisi2
 269              	.LVL20:
 141:serial.c      ****     switch (data) {
 270              		.loc 1 141 0
 271 0012 3F2B     		cmp	r3, #63
 272 0014 0AD0     		beq	.L30
 273 0016 04D8     		bhi	.L31
 274 0018 182B     		cmp	r3, #24
 275 001a 17D0     		beq	.L32
 276 001c 212B     		cmp	r3, #33
 277 001e 0DD0     		beq	.L33
 278 0020 2EE0     		b	.L40
 279              	.L31:
 280 0022 7E2B     		cmp	r3, #126
 281 0024 06D0     		beq	.L34
 282 0026 842B     		cmp	r3, #132
 283 0028 0CD0     		beq	.L35
 284 002a 29E0     		b	.L40
 285              	.L30:
 142:serial.c      ****         case CMD_STATUS_REPORT: system_set_exec_state_flag(EXEC_STATUS_REPORT); break; // Set as tr
 286              		.loc 1 142 0
 287 002c 0120     		movs	r0, #1
 288              	.LVL21:
 289 002e FFF7FEFF 		bl	system_set_exec_state_flag
 290              	.LVL22:
 291 0032 29E0     		b	.L28
 292              	.LVL23:
 293              	.L34:
 143:serial.c      ****         case CMD_CYCLE_START:   system_set_exec_state_flag(EXEC_CYCLE_START); break; // Set as true
 294              		.loc 1 143 0
 295 0034 0220     		movs	r0, #2
 296              	.LVL24:
 297 0036 FFF7FEFF 		bl	system_set_exec_state_flag
 298              	.LVL25:
 299 003a 25E0     		b	.L28
 300              	.LVL26:
 301              	.L33:
 144:serial.c      ****         case CMD_FEED_HOLD:     system_set_exec_state_flag(EXEC_FEED_HOLD); break; // Set as true
 302              		.loc 1 144 0
 303 003c 0820     		movs	r0, #8
 304              	.LVL27:
 305 003e FFF7FEFF 		bl	system_set_exec_state_flag
 306              	.LVL28:
 307 0042 21E0     		b	.L28
 308              	.LVL29:
 309              	.L35:
 145:serial.c      ****         case CMD_SAFETY_DOOR:   system_set_exec_state_flag(EXEC_SAFETY_DOOR); break; // Set as true
ARM GAS  C:\Users\miker\AppData\Local\Temp\ccACe0eG.s 			page 9


 310              		.loc 1 145 0
 311 0044 2020     		movs	r0, #32
 312              	.LVL30:
 313 0046 FFF7FEFF 		bl	system_set_exec_state_flag
 314              	.LVL31:
 315 004a 1DE0     		b	.L28
 316              	.LVL32:
 317              	.L32:
 146:serial.c      ****         case CMD_RESET:         mc_reset(); break; // Call motion control reset routine.
 318              		.loc 1 146 0
 319 004c FFF7FEFF 		bl	mc_reset
 320              	.LVL33:
 321 0050 1AE0     		b	.L28
 322              	.LVL34:
 323              	.L39:
 147:serial.c      ****         default: // Write character to buffer    
 148:serial.c      ****             
 149:serial.c      ****             for (index = 0; index != (count-1); index++){
 150:serial.c      ****                 data = buffer[index];    
 324              		.loc 1 150 0
 325 0052 10AA     		add	r2, sp, #64
 326 0054 1A44     		add	r2, r2, r3
 327 0056 12F8405C 		ldrb	r5, [r2, #-64]	@ zero_extendqisi2
 328              	.LVL35:
 151:serial.c      ****                 next_head = serial_rx_buffer_head + 1;
 329              		.loc 1 151 0
 330 005a 0C4A     		ldr	r2, .L43
 331 005c 5478     		ldrb	r4, [r2, #1]	@ zero_extendqisi2
 332 005e 621C     		adds	r2, r4, #1
 333 0060 D2B2     		uxtb	r2, r2
 334              	.LVL36:
 152:serial.c      ****                 if (next_head == RX_BUFFER_SIZE) 
 335              		.loc 1 152 0
 336 0062 802A     		cmp	r2, #128
 337 0064 00D1     		bne	.L37
 153:serial.c      ****                     { next_head = 0; } 
 338              		.loc 1 153 0
 339 0066 0022     		movs	r2, #0
 340              	.LVL37:
 341              	.L37:
 154:serial.c      ****                 if (next_head != serial_rx_buffer_tail) { // Write data to buffer unless it is full
 342              		.loc 1 154 0
 343 0068 0849     		ldr	r1, .L43
 344 006a 0978     		ldrb	r1, [r1]	@ zero_extendqisi2
 345 006c C9B2     		uxtb	r1, r1
 346 006e 8A42     		cmp	r2, r1
 347 0070 03D0     		beq	.L38
 155:serial.c      ****                     serial_rx_buffer[serial_rx_buffer_head] = data;
 348              		.loc 1 155 0
 349 0072 0749     		ldr	r1, .L43+4
 350 0074 0D55     		strb	r5, [r1, r4]
 156:serial.c      ****                     serial_rx_buffer_head = next_head;
 351              		.loc 1 156 0
 352 0076 0549     		ldr	r1, .L43
 353 0078 4A70     		strb	r2, [r1, #1]
 354              	.L38:
 149:serial.c      ****                 data = buffer[index];    
ARM GAS  C:\Users\miker\AppData\Local\Temp\ccACe0eG.s 			page 10


 355              		.loc 1 149 0 discriminator 2
 356 007a 0133     		adds	r3, r3, #1
 357              	.LVL38:
 358 007c DBB2     		uxtb	r3, r3
 359              	.LVL39:
 360 007e 00E0     		b	.L29
 361              	.LVL40:
 362              	.L40:
 141:serial.c      ****         case CMD_STATUS_REPORT: system_set_exec_state_flag(EXEC_STATUS_REPORT); break; // Set as tr
 363              		.loc 1 141 0
 364 0080 0023     		movs	r3, #0
 365              	.LVL41:
 366              	.L29:
 149:serial.c      ****                 data = buffer[index];    
 367              		.loc 1 149 0 discriminator 1
 368 0082 421E     		subs	r2, r0, #1
 369 0084 9342     		cmp	r3, r2
 370 0086 E4D1     		bne	.L39
 371              	.LVL42:
 372              	.L28:
 157:serial.c      ****                 }
 158:serial.c      ****             }
 159:serial.c      ****       //TODO: else alarm on overflow?
 160:serial.c      ****     }
 161:serial.c      **** }
 373              		.loc 1 161 0
 374 0088 11B0     		add	sp, sp, #68
 375              		.cfi_def_cfa_offset 12
 376              		@ sp needed
 377 008a 30BD     		pop	{r4, r5, pc}
 378              	.L44:
 379              		.align	2
 380              	.L43:
 381 008c 00000000 		.word	.LANCHOR0
 382 0090 00000000 		.word	serial_rx_buffer
 383              		.cfi_endproc
 384              	.LFE68:
 385              		.size	USBUART_RX_ISR, .-USBUART_RX_ISR
 386              		.section	.text.serial_reset_read_buffer,"ax",%progbits
 387              		.align	2
 388              		.global	serial_reset_read_buffer
 389              		.thumb
 390              		.thumb_func
 391              		.type	serial_reset_read_buffer, %function
 392              	serial_reset_read_buffer:
 393              	.LFB69:
 162:serial.c      **** 
 163:serial.c      **** 
 164:serial.c      **** 
 165:serial.c      **** 
 166:serial.c      **** void serial_reset_read_buffer()
 167:serial.c      **** {
 394              		.loc 1 167 0
 395              		.cfi_startproc
 396              		@ args = 0, pretend = 0, frame = 0
 397              		@ frame_needed = 0, uses_anonymous_args = 0
 398              		@ link register save eliminated.
ARM GAS  C:\Users\miker\AppData\Local\Temp\ccACe0eG.s 			page 11


 168:serial.c      ****   serial_rx_buffer_tail = serial_rx_buffer_head;
 399              		.loc 1 168 0
 400 0000 014B     		ldr	r3, .L46
 401 0002 5A78     		ldrb	r2, [r3, #1]	@ zero_extendqisi2
 402 0004 1A70     		strb	r2, [r3]
 403 0006 7047     		bx	lr
 404              	.L47:
 405              		.align	2
 406              	.L46:
 407 0008 00000000 		.word	.LANCHOR0
 408              		.cfi_endproc
 409              	.LFE69:
 410              		.size	serial_reset_read_buffer, .-serial_reset_read_buffer
 411              		.global	serial_rx_buffer_tail
 412              		.global	serial_rx_buffer_head
 413              		.comm	serial_rx_buffer,128,4
 414              		.comm	exec_lcd_status,1,1
 415              		.comm	sys_rt_exec_accessory_override,1,1
 416              		.comm	sys_rt_exec_motion_override,1,1
 417              		.comm	sys_rt_exec_alarm,1,1
 418              		.comm	sys_rt_exec_state,1,1
 419              		.comm	sys_probe_state,1,1
 420              		.comm	sys_probe_position,12,4
 421              		.comm	sys_position,12,4
 422              		.bss
 423              		.set	.LANCHOR0,. + 0
 424              		.type	serial_rx_buffer_tail, %object
 425              		.size	serial_rx_buffer_tail, 1
 426              	serial_rx_buffer_tail:
 427 0000 00       		.space	1
 428              		.type	serial_rx_buffer_head, %object
 429              		.size	serial_rx_buffer_head, 1
 430              	serial_rx_buffer_head:
 431 0001 00       		.space	1
 432              		.type	started.8383, %object
 433              		.size	started.8383, 1
 434              	started.8383:
 435 0002 00       		.space	1
 436              		.text
 437              	.Letext0:
 438              		.file 2 "c:\\program files (x86)\\cypress\\psoc creator\\4.0\\psoc creator\\import\\gnu\\arm\\4.9.
 439              		.file 3 "c:\\program files (x86)\\cypress\\psoc creator\\4.0\\psoc creator\\import\\gnu\\arm\\4.9.
 440              		.file 4 "Generated_Source\\PSoC5/cytypes.h"
 441              		.file 5 "Generated_Source\\PSoC5/core_cm3.h"
 442              		.file 6 "system.h"
 443              		.file 7 "lcd_report.h"
 444              		.file 8 "Generated_Source\\PSoC5/USBUART.h"
 445              		.file 9 "Generated_Source\\PSoC5/USBUART_cdc.h"
 446              		.file 10 "Generated_Source\\PSoC5/LED_PWM.h"
 447              		.file 11 "motion_control.h"