ARM GAS  C:\Users\miker\AppData\Local\Temp\cciqYobe.s 			page 1


   1              		.syntax unified
   2              		.cpu cortex-m3
   3              		.fpu softvfp
   4              		.eabi_attribute 20, 1
   5              		.eabi_attribute 21, 1
   6              		.eabi_attribute 23, 3
   7              		.eabi_attribute 24, 1
   8              		.eabi_attribute 25, 1
   9              		.eabi_attribute 26, 1
  10              		.eabi_attribute 30, 1
  11              		.eabi_attribute 34, 1
  12              		.eabi_attribute 18, 4
  13              		.thumb
  14              		.file	"system.c"
  15              		.text
  16              	.Ltext0:
  17              		.cfi_sections	.debug_frame
  18              		.section	.text.system_init,"ax",%progbits
  19              		.align	2
  20              		.global	system_init
  21              		.thumb
  22              		.thumb_func
  23              		.type	system_init, %function
  24              	system_init:
  25              	.LFB63:
  26              		.file 1 "system.c"
   1:system.c      **** /*
   2:system.c      ****   system.c - Handles system level commands and real-time processes
   3:system.c      ****   Part of Grbl
   4:system.c      **** 
   5:system.c      ****   Copyright (c) 2014-2015 Sungeun K. Jeon  
   6:system.c      **** 
   7:system.c      ****   Grbl is free software: you can redistribute it and/or modify
   8:system.c      ****   it under the terms of the GNU General Public License as published by
   9:system.c      ****   the Free Software Foundation, either version 3 of the License, or
  10:system.c      ****   (at your option) any later version.
  11:system.c      **** 
  12:system.c      ****   Grbl is distributed in the hope that it will be useful,
  13:system.c      ****   but WITHOUT ANY WARRANTY; without even the implied warranty of
  14:system.c      ****   MERCHANTABILITY or FITNESS FOR A PARTICULAR PURPOSE.  See the
  15:system.c      ****   GNU General Public License for more details.
  16:system.c      **** 
  17:system.c      ****   You should have received a copy of the GNU General Public License
  18:system.c      ****   along with Grbl.  If not, see <http://www.gnu.org/licenses/>.
  19:system.c      **** */
  20:system.c      **** 
  21:system.c      **** #include "grbl.h"
  22:system.c      **** 
  23:system.c      **** void system_init()
  24:system.c      **** {
  27              		.loc 1 24 0
  28              		.cfi_startproc
  29              		@ args = 0, pretend = 0, frame = 0
  30              		@ frame_needed = 0, uses_anonymous_args = 0
  31 0000 08B5     		push	{r3, lr}
  32              		.cfi_def_cfa_offset 8
  33              		.cfi_offset 3, -8
ARM GAS  C:\Users\miker\AppData\Local\Temp\cciqYobe.s 			page 2


  34              		.cfi_offset 14, -4
  25:system.c      ****   // setup of control pins is done in hardware
  26:system.c      ****   
  27:system.c      ****   isr_Control_StartEx(control_isr_handler);
  35              		.loc 1 27 0
  36 0002 0348     		ldr	r0, .L3
  37 0004 FFF7FEFF 		bl	isr_Control_StartEx
  38              	.LVL0:
  28:system.c      ****   Status_Control_InterruptEnable();
  39              		.loc 1 28 0
  40 0008 FFF7FEFF 		bl	Status_Control_InterruptEnable
  41              	.LVL1:
  42 000c 08BD     		pop	{r3, pc}
  43              	.L4:
  44 000e 00BF     		.align	2
  45              	.L3:
  46 0010 00000000 		.word	control_isr_handler
  47              		.cfi_endproc
  48              	.LFE63:
  49              		.size	system_init, .-system_init
  50              		.section	.text.system_control_get_state,"ax",%progbits
  51              		.align	2
  52              		.global	system_control_get_state
  53              		.thumb
  54              		.thumb_func
  55              		.type	system_control_get_state, %function
  56              	system_control_get_state:
  57              	.LFB64:
  29:system.c      ****   
  30:system.c      **** }
  31:system.c      **** 
  32:system.c      **** // Returns control pin state as a uint8 bitfield. Each bit indicates the input pin state, where 
  33:system.c      **** // triggered is 1 and not triggered is 0. Invert mask is applied. Bitfield organization is
  34:system.c      **** // defined by the CONTROL_PIN_INDEX in the header file.
  35:system.c      **** uint8_t system_control_get_state()
  36:system.c      **** {
  58              		.loc 1 36 0
  59              		.cfi_startproc
  60              		@ args = 0, pretend = 0, frame = 0
  61              		@ frame_needed = 0, uses_anonymous_args = 0
  62 0000 08B5     		push	{r3, lr}
  63              		.cfi_def_cfa_offset 8
  64              		.cfi_offset 3, -8
  65              		.cfi_offset 14, -4
  37:system.c      ****    /*
  38:system.c      ****     This is simplified over grbl because the pins are always in the same order
  39:system.c      ****     in the status register regardless of the placement.  Inverted applications
  40:system.c      ****     will be handle using a logic NOT
  41:system.c      ****    */
  42:system.c      ****    return(Status_Control_Read());  
  66              		.loc 1 42 0
  67 0002 FFF7FEFF 		bl	Status_Control_Read
  68              	.LVL2:
  43:system.c      ****   
  44:system.c      **** }
  69              		.loc 1 44 0
  70 0006 08BD     		pop	{r3, pc}
ARM GAS  C:\Users\miker\AppData\Local\Temp\cciqYobe.s 			page 3


  71              		.cfi_endproc
  72              	.LFE64:
  73              		.size	system_control_get_state, .-system_control_get_state
  74              		.section	.text.control_isr_handler,"ax",%progbits
  75              		.align	2
  76              		.global	control_isr_handler
  77              		.thumb
  78              		.thumb_func
  79              		.type	control_isr_handler, %function
  80              	control_isr_handler:
  81              	.LFB65:
  45:system.c      **** 
  46:system.c      **** // Pin change interrupt for pin-out commands, i.e. cycle start, feed hold, and reset. Sets
  47:system.c      **** // only the realtime command execute variable to have the main program execute these when 
  48:system.c      **** // its ready. This works exactly like the character-based realtime commands when picked off
  49:system.c      **** // directly from the incoming serial data stream.
  50:system.c      **** CY_ISR (control_isr_handler) //ISR(CONTROL_INT_vect) 
  51:system.c      **** {
  82              		.loc 1 51 0
  83              		.cfi_startproc
  84              		@ args = 0, pretend = 0, frame = 0
  85              		@ frame_needed = 0, uses_anonymous_args = 0
  86 0000 08B5     		push	{r3, lr}
  87              		.cfi_def_cfa_offset 8
  88              		.cfi_offset 3, -8
  89              		.cfi_offset 14, -4
  52:system.c      ****   uint8_t pin = system_control_get_state();
  90              		.loc 1 52 0
  91 0002 FFF7FEFF 		bl	system_control_get_state
  92              	.LVL3:
  53:system.c      ****   if (pin) {
  93              		.loc 1 53 0
  94 0006 B0B1     		cbz	r0, .L8
  54:system.c      ****     if (bit_istrue(pin,CONTROL_PIN_INDEX_RESET)) {
  95              		.loc 1 54 0
  96 0008 10F0010F 		tst	r0, #1
  97 000c 02D0     		beq	.L9
  55:system.c      ****       mc_reset();
  98              		.loc 1 55 0
  99 000e FFF7FEFF 		bl	mc_reset
 100              	.LVL4:
 101 0012 10E0     		b	.L8
 102              	.LVL5:
 103              	.L9:
  56:system.c      ****     } else if (bit_istrue(pin,CONTROL_PIN_INDEX_CYCLE_START)) {
 104              		.loc 1 56 0
 105 0014 10F0040F 		tst	r0, #4
 106 0018 05D0     		beq	.L10
  57:system.c      ****       bit_true(sys_rt_exec_state, EXEC_CYCLE_START);
 107              		.loc 1 57 0
 108 001a 084A     		ldr	r2, .L12
 109 001c 1378     		ldrb	r3, [r2]	@ zero_extendqisi2
 110 001e 43F00203 		orr	r3, r3, #2
 111 0022 1370     		strb	r3, [r2]
 112 0024 07E0     		b	.L8
 113              	.L10:
  58:system.c      ****     #ifndef ENABLE_SAFETY_DOOR_INPUT_PIN
ARM GAS  C:\Users\miker\AppData\Local\Temp\cciqYobe.s 			page 4


  59:system.c      ****       } else if (bit_istrue(pin,CONTROL_PIN_INDEX_FEED_HOLD)) {
 114              		.loc 1 59 0
 115 0026 10F0020F 		tst	r0, #2
 116 002a 04D0     		beq	.L8
  60:system.c      ****         bit_true(sys_rt_exec_state, EXEC_FEED_HOLD);
 117              		.loc 1 60 0
 118 002c 034A     		ldr	r2, .L12
 119 002e 1378     		ldrb	r3, [r2]	@ zero_extendqisi2
 120 0030 43F00803 		orr	r3, r3, #8
 121 0034 1370     		strb	r3, [r2]
 122              	.LVL6:
 123              	.L8:
  61:system.c      ****     #else
  62:system.c      ****       } else if (bit_istrue(pin,CONTROL_PIN_INDEX_SAFETY_DOOR)) {
  63:system.c      ****         bit_true(sys_rt_exec_state, EXEC_SAFETY_DOOR);
  64:system.c      ****     #endif
  65:system.c      ****     }
  66:system.c      ****   }
  67:system.c      ****     
  68:system.c      ****   isr_Control_ClearPending();
 124              		.loc 1 68 0
 125 0036 FFF7FEFF 		bl	isr_Control_ClearPending
 126              	.LVL7:
 127 003a 08BD     		pop	{r3, pc}
 128              	.L13:
 129              		.align	2
 130              	.L12:
 131 003c 00000000 		.word	sys_rt_exec_state
 132              		.cfi_endproc
 133              	.LFE65:
 134              		.size	control_isr_handler, .-control_isr_handler
 135              		.section	.text.system_check_safety_door_ajar,"ax",%progbits
 136              		.align	2
 137              		.global	system_check_safety_door_ajar
 138              		.thumb
 139              		.thumb_func
 140              		.type	system_check_safety_door_ajar, %function
 141              	system_check_safety_door_ajar:
 142              	.LFB66:
  69:system.c      ****   
  70:system.c      **** }
  71:system.c      **** 
  72:system.c      **** // Returns if safety door is ajar(T) or closed(F), based on pin state.
  73:system.c      **** uint8_t system_check_safety_door_ajar()
  74:system.c      **** {
 143              		.loc 1 74 0
 144              		.cfi_startproc
 145              		@ args = 0, pretend = 0, frame = 0
 146              		@ frame_needed = 0, uses_anonymous_args = 0
 147              		@ link register save eliminated.
  75:system.c      ****   #ifdef ENABLE_SAFETY_DOOR_INPUT_PIN
  76:system.c      ****     return(system_control_get_state() & CONTROL_PIN_INDEX_SAFETY_DOOR);
  77:system.c      ****   #else
  78:system.c      ****     return(false); // Input pin not enabled, so just return that it's closed.
  79:system.c      ****   #endif
  80:system.c      **** }
 148              		.loc 1 80 0
ARM GAS  C:\Users\miker\AppData\Local\Temp\cciqYobe.s 			page 5


 149 0000 0020     		movs	r0, #0
 150 0002 7047     		bx	lr
 151              		.cfi_endproc
 152              	.LFE66:
 153              		.size	system_check_safety_door_ajar, .-system_check_safety_door_ajar
 154              		.section	.text.system_execute_startup,"ax",%progbits
 155              		.align	2
 156              		.global	system_execute_startup
 157              		.thumb
 158              		.thumb_func
 159              		.type	system_execute_startup, %function
 160              	system_execute_startup:
 161              	.LFB67:
  81:system.c      **** 
  82:system.c      **** 
  83:system.c      **** // Executes user startup script, if stored.
  84:system.c      **** void system_execute_startup(char *line)
  85:system.c      **** {
 162              		.loc 1 85 0
 163              		.cfi_startproc
 164              		@ args = 0, pretend = 0, frame = 0
 165              		@ frame_needed = 0, uses_anonymous_args = 0
 166              	.LVL8:
 167 0000 38B5     		push	{r3, r4, r5, lr}
 168              		.cfi_def_cfa_offset 16
 169              		.cfi_offset 3, -16
 170              		.cfi_offset 4, -12
 171              		.cfi_offset 5, -8
 172              		.cfi_offset 14, -4
 173 0002 0546     		mov	r5, r0
 174              	.LVL9:
  86:system.c      ****   uint8_t n;
  87:system.c      ****   for (n=0; n < N_STARTUP_LINE; n++) {
 175              		.loc 1 87 0
 176 0004 0024     		movs	r4, #0
 177 0006 16E0     		b	.L16
 178              	.LVL10:
 179              	.L19:
  88:system.c      ****     if (!(settings_read_startup_line(n, line))) {
 180              		.loc 1 88 0
 181 0008 2046     		mov	r0, r4
 182 000a 2946     		mov	r1, r5
 183 000c FFF7FEFF 		bl	settings_read_startup_line
 184              	.LVL11:
 185 0010 30B9     		cbnz	r0, .L17
  89:system.c      ****       line[0] = 0;
 186              		.loc 1 89 0
 187 0012 0023     		movs	r3, #0
 188 0014 2B70     		strb	r3, [r5]
  90:system.c      ****       report_execute_startup_message(line,STATUS_SETTING_READ_FAIL);
 189              		.loc 1 90 0
 190 0016 2846     		mov	r0, r5
 191 0018 0721     		movs	r1, #7
 192 001a FFF7FEFF 		bl	report_execute_startup_message
 193              	.LVL12:
 194 001e 08E0     		b	.L18
 195              	.L17:
ARM GAS  C:\Users\miker\AppData\Local\Temp\cciqYobe.s 			page 6


  91:system.c      ****     } else {
  92:system.c      ****       if (line[0] != 0) {
 196              		.loc 1 92 0
 197 0020 2B78     		ldrb	r3, [r5]	@ zero_extendqisi2
 198 0022 33B1     		cbz	r3, .L18
 199              	.LBB2:
  93:system.c      ****         uint8_t status_code = gc_execute_line(line);
 200              		.loc 1 93 0
 201 0024 2846     		mov	r0, r5
 202 0026 FFF7FEFF 		bl	gc_execute_line
 203              	.LVL13:
 204 002a 0146     		mov	r1, r0
 205              	.LVL14:
  94:system.c      ****         report_execute_startup_message(line,status_code);
 206              		.loc 1 94 0
 207 002c 2846     		mov	r0, r5
 208 002e FFF7FEFF 		bl	report_execute_startup_message
 209              	.LVL15:
 210              	.L18:
 211              	.LBE2:
  87:system.c      ****     if (!(settings_read_startup_line(n, line))) {
 212              		.loc 1 87 0 discriminator 2
 213 0032 0134     		adds	r4, r4, #1
 214              	.LVL16:
 215 0034 E4B2     		uxtb	r4, r4
 216              	.LVL17:
 217              	.L16:
  87:system.c      ****     if (!(settings_read_startup_line(n, line))) {
 218              		.loc 1 87 0 is_stmt 0 discriminator 1
 219 0036 012C     		cmp	r4, #1
 220 0038 E6D9     		bls	.L19
  95:system.c      ****       }
  96:system.c      ****     }
  97:system.c      ****   }
  98:system.c      **** }
 221              		.loc 1 98 0 is_stmt 1
 222 003a 38BD     		pop	{r3, r4, r5, pc}
 223              		.cfi_endproc
 224              	.LFE67:
 225              		.size	system_execute_startup, .-system_execute_startup
 226              		.section	.text.system_flag_wco_change,"ax",%progbits
 227              		.align	2
 228              		.global	system_flag_wco_change
 229              		.thumb
 230              		.thumb_func
 231              		.type	system_flag_wco_change, %function
 232              	system_flag_wco_change:
 233              	.LFB69:
  99:system.c      **** 
 100:system.c      **** // Directs and executes one line of formatted input from protocol_process. While mostly
 101:system.c      **** // incoming streaming g-code blocks, this also executes Grbl internal commands, such as
 102:system.c      **** // settings, initiating the homing cycle, and toggling switch states. This differs from
 103:system.c      **** // the realtime command module by being susceptible to when Grbl is ready to execute the
 104:system.c      **** // next line during a cycle, so for switches like block delete, the switch only effects
 105:system.c      **** // the lines that are processed afterward, not necessarily real-time during a cycle,
 106:system.c      **** // since there are motions already stored in the buffer. However, this 'lag' should not
 107:system.c      **** // be an issue, since these commands are not typically used during a cycle.
ARM GAS  C:\Users\miker\AppData\Local\Temp\cciqYobe.s 			page 7


 108:system.c      **** uint8_t system_execute_line(char *line)
 109:system.c      **** {
 110:system.c      ****   uint8_t char_counter = 1;
 111:system.c      ****   uint8_t helper_var = 0; // Helper variable
 112:system.c      ****   float parameter, value;
 113:system.c      ****   switch( line[char_counter] ) {
 114:system.c      ****     case 0 : report_grbl_help(); break;
 115:system.c      ****     case 'J' : // Jogging
 116:system.c      ****       // Execute only if in IDLE or JOG states.
 117:system.c      ****       if (sys.state != STATE_IDLE && sys.state != STATE_JOG) { return(STATUS_IDLE_ERROR); }
 118:system.c      ****       if(line[2] != '=') { return(STATUS_INVALID_STATEMENT); }
 119:system.c      ****       return(gc_execute_line(line)); // NOTE: $J= is ignored inside g-code parser and used to detec
 120:system.c      ****       break;
 121:system.c      ****     case '$': case 'G': case 'C': case 'X':
 122:system.c      ****       if ( line[2] != 0 ) { return(STATUS_INVALID_STATEMENT); }
 123:system.c      ****       switch( line[1] ) {
 124:system.c      ****         case '$' : // Prints Grbl settings
 125:system.c      ****           if ( sys.state & (STATE_CYCLE | STATE_HOLD) ) { return(STATUS_IDLE_ERROR); } // Block dur
 126:system.c      ****           else { report_grbl_settings(); }
 127:system.c      ****           break;
 128:system.c      ****         case 'G' : // Prints gcode parser state
 129:system.c      ****           // TODO: Move this to realtime commands for GUIs to request this data during suspend-stat
 130:system.c      ****           report_gcode_modes();
 131:system.c      ****           break;
 132:system.c      ****         case 'C' : // Set check g-code mode [IDLE/CHECK]
 133:system.c      ****           // Perform reset when toggling off. Check g-code mode should only work if Grbl
 134:system.c      ****           // is idle and ready, regardless of alarm locks. This is mainly to keep things
 135:system.c      ****           // simple and consistent.
 136:system.c      ****           if ( sys.state == STATE_CHECK_MODE ) {
 137:system.c      ****             mc_reset();
 138:system.c      ****             report_feedback_message(MESSAGE_DISABLED);
 139:system.c      ****           } else {
 140:system.c      ****             if (sys.state) { return(STATUS_IDLE_ERROR); } // Requires no alarm mode.
 141:system.c      ****             sys.state = STATE_CHECK_MODE;
 142:system.c      ****             report_feedback_message(MESSAGE_ENABLED);
 143:system.c      ****           }
 144:system.c      ****           break;
 145:system.c      ****         case 'X' : // Disable alarm lock [ALARM]
 146:system.c      ****           if (sys.state == STATE_ALARM) {
 147:system.c      ****             // Block if safety door is ajar.
 148:system.c      ****             if (system_check_safety_door_ajar()) { return(STATUS_CHECK_DOOR); }
 149:system.c      ****             report_feedback_message(MESSAGE_ALARM_UNLOCK);
 150:system.c      ****             sys.state = STATE_IDLE;
 151:system.c      ****             // Don't run startup script. Prevents stored moves in startup from causing accidents.
 152:system.c      ****           } // Otherwise, no effect.
 153:system.c      ****           break;
 154:system.c      ****       }
 155:system.c      ****       break;
 156:system.c      ****     default :
 157:system.c      ****       // Block any system command that requires the state as IDLE/ALARM. (i.e. EEPROM, homing)
 158:system.c      ****       if ( !(sys.state == STATE_IDLE || sys.state == STATE_ALARM) ) { return(STATUS_IDLE_ERROR); }
 159:system.c      ****       switch( line[1] ) {
 160:system.c      ****         case '#' : // Print Grbl NGC parameters
 161:system.c      ****           if ( line[2] != 0 ) { return(STATUS_INVALID_STATEMENT); }
 162:system.c      ****           else { report_ngc_parameters(); }
 163:system.c      ****           break;
 164:system.c      ****         case 'H' : // Perform homing cycle [IDLE/ALARM]
ARM GAS  C:\Users\miker\AppData\Local\Temp\cciqYobe.s 			page 8


 165:system.c      ****           if (bit_isfalse(settings.flags,BITFLAG_HOMING_ENABLE)) {return(STATUS_SETTING_DISABLED); 
 166:system.c      ****           if (system_check_safety_door_ajar()) { return(STATUS_CHECK_DOOR); } // Block if safety do
 167:system.c      ****           sys.state = STATE_HOMING; // Set system state variable
 168:system.c      ****           if (line[2] == 0) {
 169:system.c      ****             mc_homing_cycle(HOMING_CYCLE_ALL);
 170:system.c      ****           #ifdef HOMING_SINGLE_AXIS_COMMANDS
 171:system.c      ****             } else if (line[3] == 0) {
 172:system.c      ****               switch (line[2]) {
 173:system.c      ****                 case 'X': mc_homing_cycle(HOMING_CYCLE_X); break;
 174:system.c      ****                 case 'Y': mc_homing_cycle(HOMING_CYCLE_Y); break;
 175:system.c      ****                 case 'Z': mc_homing_cycle(HOMING_CYCLE_Z); break;
 176:system.c      ****                 default: return(STATUS_INVALID_STATEMENT);
 177:system.c      ****               }
 178:system.c      ****           #endif
 179:system.c      ****           } else { return(STATUS_INVALID_STATEMENT); }
 180:system.c      ****           if (!sys.abort) {  // Execute startup scripts after successful homing.
 181:system.c      ****             sys.state = STATE_IDLE; // Set to IDLE when complete.
 182:system.c      ****             st_go_idle(); // Set steppers to the settings idle state before returning.
 183:system.c      ****             if (line[2] == 0) { system_execute_startup(line); }
 184:system.c      ****           }
 185:system.c      ****           break;
 186:system.c      ****         case 'S' : // Puts Grbl to sleep [IDLE/ALARM]
 187:system.c      ****           if ((line[2] != 'L') || (line[3] != 'P') || (line[4] != 0)) { return(STATUS_INVALID_STATE
 188:system.c      ****           system_set_exec_state_flag(EXEC_SLEEP); // Set to execute sleep mode immediately
 189:system.c      ****           break;
 190:system.c      ****         case 'I' : // Print or store build info. [IDLE/ALARM]
 191:system.c      ****           if ( line[++char_counter] == 0 ) {
 192:system.c      ****             settings_read_build_info(line);
 193:system.c      ****             report_build_info(line);
 194:system.c      ****           #ifdef ENABLE_BUILD_INFO_WRITE_COMMAND
 195:system.c      ****             } else { // Store startup line [IDLE/ALARM]
 196:system.c      ****               if(line[char_counter++] != '=') { return(STATUS_INVALID_STATEMENT); }
 197:system.c      ****               helper_var = char_counter; // Set helper variable as counter to start of user info li
 198:system.c      ****               do {
 199:system.c      ****                 line[char_counter-helper_var] = line[char_counter];
 200:system.c      ****               } while (line[char_counter++] != 0);
 201:system.c      ****               settings_store_build_info(line);
 202:system.c      ****           #endif
 203:system.c      ****           }
 204:system.c      ****           break;
 205:system.c      ****         case 'R' : // Restore defaults [IDLE/ALARM]
 206:system.c      ****           if ((line[2] != 'S') || (line[3] != 'T') || (line[4] != '=') || (line[6] != 0)) { return(
 207:system.c      ****           switch (line[5]) {
 208:system.c      ****             #ifdef ENABLE_RESTORE_EEPROM_DEFAULT_SETTINGS
 209:system.c      ****               case '$': settings_restore(SETTINGS_RESTORE_DEFAULTS); break;
 210:system.c      ****             #endif
 211:system.c      ****             #ifdef ENABLE_RESTORE_EEPROM_CLEAR_PARAMETERS
 212:system.c      ****               case '#': settings_restore(SETTINGS_RESTORE_PARAMETERS); break;
 213:system.c      ****             #endif
 214:system.c      ****             #ifdef ENABLE_RESTORE_EEPROM_WIPE_ALL
 215:system.c      ****               case '*': settings_restore(SETTINGS_RESTORE_ALL); break;
 216:system.c      ****             #endif
 217:system.c      ****             default: return(STATUS_INVALID_STATEMENT);
 218:system.c      ****           }
 219:system.c      ****           report_feedback_message(MESSAGE_RESTORE_DEFAULTS);
 220:system.c      ****           mc_reset(); // Force reset to ensure settings are initialized correctly.
 221:system.c      ****           break;
ARM GAS  C:\Users\miker\AppData\Local\Temp\cciqYobe.s 			page 9


 222:system.c      ****         case 'N' : // Startup lines. [IDLE/ALARM]
 223:system.c      ****           if ( line[++char_counter] == 0 ) { // Print startup lines
 224:system.c      ****             for (helper_var=0; helper_var < N_STARTUP_LINE; helper_var++) {
 225:system.c      ****               if (!(settings_read_startup_line(helper_var, line))) {
 226:system.c      ****                 report_status_message(STATUS_SETTING_READ_FAIL);
 227:system.c      ****               } else {
 228:system.c      ****                 report_startup_line(helper_var,line);
 229:system.c      ****               }
 230:system.c      ****             }
 231:system.c      ****             break;
 232:system.c      ****           } else { // Store startup line [IDLE Only] Prevents motion during ALARM.
 233:system.c      ****             if (sys.state != STATE_IDLE) { return(STATUS_IDLE_ERROR); } // Store only when idle.
 234:system.c      ****             helper_var = true;  // Set helper_var to flag storing method.
 235:system.c      ****             // No break. Continues into default: to read remaining command characters.
 236:system.c      ****           }
 237:system.c      ****         default :  // Storing setting methods [IDLE/ALARM]
 238:system.c      ****           if(!read_float(line, &char_counter, &parameter)) { return(STATUS_BAD_NUMBER_FORMAT); }
 239:system.c      ****           if(line[char_counter++] != '=') { return(STATUS_INVALID_STATEMENT); }
 240:system.c      ****           if (helper_var) { // Store startup line
 241:system.c      ****             // Prepare sending gcode block to gcode parser by shifting all characters
 242:system.c      ****             helper_var = char_counter; // Set helper variable as counter to start of gcode block
 243:system.c      ****             do {
 244:system.c      ****               line[char_counter-helper_var] = line[char_counter];
 245:system.c      ****             } while (line[char_counter++] != 0);
 246:system.c      ****             // Execute gcode block to ensure block is valid.
 247:system.c      ****             helper_var = gc_execute_line(line); // Set helper_var to returned status code.
 248:system.c      ****             if (helper_var) { return(helper_var); }
 249:system.c      ****             else {
 250:system.c      ****               helper_var = trunc(parameter); // Set helper_var to int value of parameter
 251:system.c      ****               settings_store_startup_line(helper_var,line);
 252:system.c      ****             }
 253:system.c      ****           } else { // Store global setting.
 254:system.c      ****             if(!read_float(line, &char_counter, &value)) { return(STATUS_BAD_NUMBER_FORMAT); }
 255:system.c      ****             if((line[char_counter] != 0) || (parameter > 255)) { return(STATUS_INVALID_STATEMENT); 
 256:system.c      ****             return(settings_store_global_setting((uint8_t)parameter, value));
 257:system.c      ****           }
 258:system.c      ****       }
 259:system.c      ****   }
 260:system.c      ****   return(STATUS_OK); // If '$' command makes it to here, then everything's ok.
 261:system.c      **** }
 262:system.c      **** 
 263:system.c      **** 
 264:system.c      **** 
 265:system.c      **** void system_flag_wco_change()
 266:system.c      **** {
 234              		.loc 1 266 0
 235              		.cfi_startproc
 236              		@ args = 0, pretend = 0, frame = 0
 237              		@ frame_needed = 0, uses_anonymous_args = 0
 238 0000 08B5     		push	{r3, lr}
 239              		.cfi_def_cfa_offset 8
 240              		.cfi_offset 3, -8
 241              		.cfi_offset 14, -4
 267:system.c      ****   #ifdef FORCE_BUFFER_SYNC_DURING_WCO_CHANGE
 268:system.c      ****     protocol_buffer_synchronize();
 242              		.loc 1 268 0
 243 0002 FFF7FEFF 		bl	protocol_buffer_synchronize
ARM GAS  C:\Users\miker\AppData\Local\Temp\cciqYobe.s 			page 10


 244              	.LVL18:
 269:system.c      ****   #endif
 270:system.c      ****   sys.report_wco_counter = 0;
 245              		.loc 1 270 0
 246 0006 0022     		movs	r2, #0
 247 0008 014B     		ldr	r3, .L23
 248 000a 1A73     		strb	r2, [r3, #12]
 249 000c 08BD     		pop	{r3, pc}
 250              	.L24:
 251 000e 00BF     		.align	2
 252              	.L23:
 253 0010 00000000 		.word	sys
 254              		.cfi_endproc
 255              	.LFE69:
 256              		.size	system_flag_wco_change, .-system_flag_wco_change
 257              		.global	__aeabi_i2f
 258              		.global	__aeabi_fdiv
 259              		.section	.text.system_convert_axis_steps_to_mpos,"ax",%progbits
 260              		.align	2
 261              		.global	system_convert_axis_steps_to_mpos
 262              		.thumb
 263              		.thumb_func
 264              		.type	system_convert_axis_steps_to_mpos, %function
 265              	system_convert_axis_steps_to_mpos:
 266              	.LFB70:
 271:system.c      **** }
 272:system.c      **** 
 273:system.c      **** 
 274:system.c      **** // Returns machine position of axis 'idx'. Must be sent a 'step' array.
 275:system.c      **** // NOTE: If motor steps and machine position are not in the same coordinate frame, this function
 276:system.c      **** //   serves as a central place to compute the transformation.
 277:system.c      **** float system_convert_axis_steps_to_mpos(int32_t *steps, uint8_t idx)
 278:system.c      **** {
 267              		.loc 1 278 0
 268              		.cfi_startproc
 269              		@ args = 0, pretend = 0, frame = 0
 270              		@ frame_needed = 0, uses_anonymous_args = 0
 271              	.LVL19:
 272 0000 10B5     		push	{r4, lr}
 273              		.cfi_def_cfa_offset 8
 274              		.cfi_offset 4, -8
 275              		.cfi_offset 14, -4
 276 0002 0C46     		mov	r4, r1
 279:system.c      ****   float pos;
 280:system.c      ****   #ifdef COREXY
 281:system.c      ****     if (idx==X_AXIS) {
 282:system.c      ****       pos = (float)system_convert_corexy_to_x_axis_steps(steps) / settings.steps_per_mm[idx];
 283:system.c      ****     } else if (idx==Y_AXIS) {
 284:system.c      ****       pos = (float)system_convert_corexy_to_y_axis_steps(steps) / settings.steps_per_mm[idx];
 285:system.c      ****     } else {
 286:system.c      ****       pos = steps[idx]/settings.steps_per_mm[idx];
 287:system.c      ****     }
 288:system.c      ****   #else
 289:system.c      ****     pos = steps[idx]/settings.steps_per_mm[idx];
 277              		.loc 1 289 0
 278 0004 50F82100 		ldr	r0, [r0, r1, lsl #2]
 279              	.LVL20:
ARM GAS  C:\Users\miker\AppData\Local\Temp\cciqYobe.s 			page 11


 280 0008 FFF7FEFF 		bl	__aeabi_i2f
 281              	.LVL21:
 282 000c 024B     		ldr	r3, .L27
 283 000e 53F82410 		ldr	r1, [r3, r4, lsl #2]	@ float
 284 0012 FFF7FEFF 		bl	__aeabi_fdiv
 285              	.LVL22:
 290:system.c      ****   #endif
 291:system.c      ****   return(pos);
 292:system.c      **** }
 286              		.loc 1 292 0
 287 0016 10BD     		pop	{r4, pc}
 288              	.L28:
 289              		.align	2
 290              	.L27:
 291 0018 00000000 		.word	settings
 292              		.cfi_endproc
 293              	.LFE70:
 294              		.size	system_convert_axis_steps_to_mpos, .-system_convert_axis_steps_to_mpos
 295              		.section	.text.system_convert_array_steps_to_mpos,"ax",%progbits
 296              		.align	2
 297              		.global	system_convert_array_steps_to_mpos
 298              		.thumb
 299              		.thumb_func
 300              		.type	system_convert_array_steps_to_mpos, %function
 301              	system_convert_array_steps_to_mpos:
 302              	.LFB71:
 293:system.c      **** 
 294:system.c      **** 
 295:system.c      **** void system_convert_array_steps_to_mpos(float *position, int32_t *steps)
 296:system.c      **** {
 303              		.loc 1 296 0
 304              		.cfi_startproc
 305              		@ args = 0, pretend = 0, frame = 0
 306              		@ frame_needed = 0, uses_anonymous_args = 0
 307              	.LVL23:
 308 0000 70B5     		push	{r4, r5, r6, lr}
 309              		.cfi_def_cfa_offset 16
 310              		.cfi_offset 4, -16
 311              		.cfi_offset 5, -12
 312              		.cfi_offset 6, -8
 313              		.cfi_offset 14, -4
 314 0002 0646     		mov	r6, r0
 315 0004 0D46     		mov	r5, r1
 316              	.LVL24:
 297:system.c      ****   uint8_t idx;
 298:system.c      ****   for (idx=0; idx<N_AXIS; idx++) {
 317              		.loc 1 298 0
 318 0006 0024     		movs	r4, #0
 319 0008 07E0     		b	.L30
 320              	.LVL25:
 321              	.L31:
 299:system.c      ****     position[idx] = system_convert_axis_steps_to_mpos(steps, idx);
 322              		.loc 1 299 0 discriminator 3
 323 000a 2846     		mov	r0, r5
 324 000c 2146     		mov	r1, r4
 325 000e FFF7FEFF 		bl	system_convert_axis_steps_to_mpos
 326              	.LVL26:
ARM GAS  C:\Users\miker\AppData\Local\Temp\cciqYobe.s 			page 12


 327 0012 46F82400 		str	r0, [r6, r4, lsl #2]	@ float
 298:system.c      ****     position[idx] = system_convert_axis_steps_to_mpos(steps, idx);
 328              		.loc 1 298 0 discriminator 3
 329 0016 0134     		adds	r4, r4, #1
 330              	.LVL27:
 331 0018 E4B2     		uxtb	r4, r4
 332              	.LVL28:
 333              	.L30:
 298:system.c      ****     position[idx] = system_convert_axis_steps_to_mpos(steps, idx);
 334              		.loc 1 298 0 is_stmt 0 discriminator 1
 335 001a 022C     		cmp	r4, #2
 336 001c F5D9     		bls	.L31
 300:system.c      ****   }
 301:system.c      ****   return;
 302:system.c      **** }
 337              		.loc 1 302 0 is_stmt 1
 338 001e 70BD     		pop	{r4, r5, r6, pc}
 339              		.cfi_endproc
 340              	.LFE71:
 341              		.size	system_convert_array_steps_to_mpos, .-system_convert_array_steps_to_mpos
 342              		.global	__aeabi_fcmpgt
 343              		.global	__aeabi_fcmplt
 344              		.section	.text.system_check_travel_limits,"ax",%progbits
 345              		.align	2
 346              		.global	system_check_travel_limits
 347              		.thumb
 348              		.thumb_func
 349              		.type	system_check_travel_limits, %function
 350              	system_check_travel_limits:
 351              	.LFB72:
 303:system.c      **** 
 304:system.c      **** 
 305:system.c      **** // CoreXY calculation only. Returns x or y-axis "steps" based on CoreXY motor steps.
 306:system.c      **** #ifdef COREXY
 307:system.c      ****   int32_t system_convert_corexy_to_x_axis_steps(int32_t *steps)
 308:system.c      ****   {
 309:system.c      ****     return( (steps[A_MOTOR] + steps[B_MOTOR])/2 );
 310:system.c      ****   }
 311:system.c      ****   int32_t system_convert_corexy_to_y_axis_steps(int32_t *steps)
 312:system.c      ****   {
 313:system.c      ****     return( (steps[A_MOTOR] - steps[B_MOTOR])/2 );
 314:system.c      ****   }
 315:system.c      **** #endif
 316:system.c      **** 
 317:system.c      **** 
 318:system.c      **** // Checks and reports if target array exceeds machine travel limits.
 319:system.c      **** uint8_t system_check_travel_limits(float *target)
 320:system.c      **** {
 352              		.loc 1 320 0
 353              		.cfi_startproc
 354              		@ args = 0, pretend = 0, frame = 0
 355              		@ frame_needed = 0, uses_anonymous_args = 0
 356              	.LVL29:
 357 0000 70B5     		push	{r4, r5, r6, lr}
 358              		.cfi_def_cfa_offset 16
 359              		.cfi_offset 4, -16
 360              		.cfi_offset 5, -12
ARM GAS  C:\Users\miker\AppData\Local\Temp\cciqYobe.s 			page 13


 361              		.cfi_offset 6, -8
 362              		.cfi_offset 14, -4
 363 0002 0646     		mov	r6, r0
 364              	.LVL30:
 321:system.c      ****   uint8_t idx;
 322:system.c      ****   for (idx=0; idx<N_AXIS; idx++) {
 365              		.loc 1 322 0
 366 0004 0024     		movs	r4, #0
 367 0006 10E0     		b	.L34
 368              	.LVL31:
 369              	.L36:
 323:system.c      ****     #ifdef HOMING_FORCE_SET_ORIGIN
 324:system.c      ****       // When homing forced set origin is enabled, soft limits checks need to account for direction
 325:system.c      ****       // NOTE: max_travel is stored as negative
 326:system.c      ****       if (bit_istrue(settings.homing_dir_mask,bit(idx))) {
 327:system.c      ****         if (target[idx] < 0 || target[idx] > -settings.max_travel[idx]) { return(true); }
 328:system.c      ****       } else {
 329:system.c      ****         if (target[idx] > 0 || target[idx] < settings.max_travel[idx]) { return(true); }
 330:system.c      ****       }
 331:system.c      ****     #else
 332:system.c      ****       // NOTE: max_travel is stored as negative
 333:system.c      ****       if (target[idx] > 0 || target[idx] < settings.max_travel[idx]) { return(true); }
 370              		.loc 1 333 0
 371 0008 56F82450 		ldr	r5, [r6, r4, lsl #2]	@ float
 372 000c 2846     		mov	r0, r5
 373 000e 0021     		movs	r1, #0
 374 0010 FFF7FEFF 		bl	__aeabi_fcmpgt
 375              	.LVL32:
 376 0014 68B9     		cbnz	r0, .L37
 377              		.loc 1 333 0 is_stmt 0 discriminator 2
 378 0016 094B     		ldr	r3, .L40
 379 0018 03EB8403 		add	r3, r3, r4, lsl #2
 380 001c 2846     		mov	r0, r5
 381 001e 596A     		ldr	r1, [r3, #36]	@ float
 382 0020 FFF7FEFF 		bl	__aeabi_fcmplt
 383              	.LVL33:
 384 0024 38B9     		cbnz	r0, .L38
 322:system.c      ****     #ifdef HOMING_FORCE_SET_ORIGIN
 385              		.loc 1 322 0 is_stmt 1 discriminator 2
 386 0026 0134     		adds	r4, r4, #1
 387              	.LVL34:
 388 0028 E4B2     		uxtb	r4, r4
 389              	.LVL35:
 390              	.L34:
 322:system.c      ****     #ifdef HOMING_FORCE_SET_ORIGIN
 391              		.loc 1 322 0 is_stmt 0 discriminator 1
 392 002a 022C     		cmp	r4, #2
 393 002c ECD9     		bls	.L36
 334:system.c      ****     #endif
 335:system.c      ****   }
 336:system.c      ****   return(false);
 394              		.loc 1 336 0 is_stmt 1
 395 002e 0020     		movs	r0, #0
 396 0030 70BD     		pop	{r4, r5, r6, pc}
 397              	.LVL36:
 398              	.L37:
 333:system.c      ****     #endif
ARM GAS  C:\Users\miker\AppData\Local\Temp\cciqYobe.s 			page 14


 399              		.loc 1 333 0
 400 0032 0120     		movs	r0, #1
 401 0034 70BD     		pop	{r4, r5, r6, pc}
 402              	.LVL37:
 403              	.L38:
 404 0036 0120     		movs	r0, #1
 337:system.c      **** }
 405              		.loc 1 337 0
 406 0038 70BD     		pop	{r4, r5, r6, pc}
 407              	.LVL38:
 408              	.L41:
 409 003a 00BF     		.align	2
 410              	.L40:
 411 003c 00000000 		.word	settings
 412              		.cfi_endproc
 413              	.LFE72:
 414              		.size	system_check_travel_limits, .-system_check_travel_limits
 415              		.section	.text.system_set_exec_state_flag,"ax",%progbits
 416              		.align	2
 417              		.global	system_set_exec_state_flag
 418              		.thumb
 419              		.thumb_func
 420              		.type	system_set_exec_state_flag, %function
 421              	system_set_exec_state_flag:
 422              	.LFB73:
 338:system.c      **** 
 339:system.c      **** 
 340:system.c      **** // Special handlers for setting and clearing Grbl's real-time execution flags.
 341:system.c      **** void system_set_exec_state_flag(uint8_t mask) {  
 423              		.loc 1 341 0
 424              		.cfi_startproc
 425              		@ args = 0, pretend = 0, frame = 0
 426              		@ frame_needed = 0, uses_anonymous_args = 0
 427              		@ link register save eliminated.
 428              	.LVL39:
 342:system.c      ****   CyGlobalIntDisable; 
 429              		.loc 1 342 0
 430              	@ 342 "system.c" 1
 431 0000 72B6     		CPSID   i
 432              	@ 0 "" 2
 343:system.c      ****   sys_rt_exec_state |= (mask);
 433              		.loc 1 343 0
 434              		.thumb
 435 0002 034B     		ldr	r3, .L43
 436 0004 1A78     		ldrb	r2, [r3]	@ zero_extendqisi2
 437 0006 1043     		orrs	r0, r0, r2
 438              	.LVL40:
 439 0008 1870     		strb	r0, [r3]
 344:system.c      ****   CyGlobalIntEnable;
 440              		.loc 1 344 0
 441              	@ 344 "system.c" 1
 442 000a 62B6     		CPSIE   i
 443              	@ 0 "" 2
 444              		.thumb
 445 000c 7047     		bx	lr
 446              	.L44:
 447 000e 00BF     		.align	2
ARM GAS  C:\Users\miker\AppData\Local\Temp\cciqYobe.s 			page 15


 448              	.L43:
 449 0010 00000000 		.word	sys_rt_exec_state
 450              		.cfi_endproc
 451              	.LFE73:
 452              		.size	system_set_exec_state_flag, .-system_set_exec_state_flag
 453              		.global	__aeabi_f2d
 454              		.global	__aeabi_d2uiz
 455              		.global	__aeabi_f2uiz
 456              		.section	.text.system_execute_line,"ax",%progbits
 457              		.align	2
 458              		.global	system_execute_line
 459              		.thumb
 460              		.thumb_func
 461              		.type	system_execute_line, %function
 462              	system_execute_line:
 463              	.LFB68:
 109:system.c      ****   uint8_t char_counter = 1;
 464              		.loc 1 109 0
 465              		.cfi_startproc
 466              		@ args = 0, pretend = 0, frame = 16
 467              		@ frame_needed = 0, uses_anonymous_args = 0
 468              	.LVL41:
 469 0000 70B5     		push	{r4, r5, r6, lr}
 470              		.cfi_def_cfa_offset 16
 471              		.cfi_offset 4, -16
 472              		.cfi_offset 5, -12
 473              		.cfi_offset 6, -8
 474              		.cfi_offset 14, -4
 475 0002 84B0     		sub	sp, sp, #16
 476              		.cfi_def_cfa_offset 32
 477 0004 0446     		mov	r4, r0
 110:system.c      ****   uint8_t helper_var = 0; // Helper variable
 478              		.loc 1 110 0
 479 0006 0123     		movs	r3, #1
 480 0008 8DF80F30 		strb	r3, [sp, #15]
 481              	.LVL42:
 113:system.c      ****     case 0 : report_grbl_help(); break;
 482              		.loc 1 113 0
 483 000c 4378     		ldrb	r3, [r0, #1]	@ zero_extendqisi2
 484 000e 432B     		cmp	r3, #67
 485 0010 1ED0     		beq	.L47
 486 0012 03D8     		bhi	.L48
 487 0014 4BB1     		cbz	r3, .L49
 488 0016 242B     		cmp	r3, #36
 489 0018 5ED1     		bne	.L46
 490 001a 19E0     		b	.L47
 491              	.L48:
 492 001c 4A2B     		cmp	r3, #74
 493 001e 08D0     		beq	.L50
 494 0020 582B     		cmp	r3, #88
 495 0022 15D0     		beq	.L47
 496 0024 472B     		cmp	r3, #71
 497 0026 57D1     		bne	.L46
 498 0028 12E0     		b	.L47
 499              	.L49:
 114:system.c      ****     case 'J' : // Jogging
 500              		.loc 1 114 0
ARM GAS  C:\Users\miker\AppData\Local\Temp\cciqYobe.s 			page 16


 501 002a FFF7FEFF 		bl	report_grbl_help
 502              	.LVL43:
 260:system.c      **** }
 503              		.loc 1 260 0
 504 002e 0025     		movs	r5, #0
 114:system.c      ****     case 'J' : // Jogging
 505              		.loc 1 114 0
 506 0030 E1E1     		b	.L51
 507              	.LVL44:
 508              	.L50:
 117:system.c      ****       if(line[2] != '=') { return(STATUS_INVALID_STATEMENT); }
 509              		.loc 1 117 0
 510 0032 AA4B     		ldr	r3, .L122
 511 0034 1B78     		ldrb	r3, [r3]	@ zero_extendqisi2
 512 0036 13B1     		cbz	r3, .L52
 117:system.c      ****       if(line[2] != '=') { return(STATUS_INVALID_STATEMENT); }
 513              		.loc 1 117 0 is_stmt 0 discriminator 1
 514 0038 202B     		cmp	r3, #32
 515 003a 40F0A181 		bne	.L85
 516              	.L52:
 118:system.c      ****       return(gc_execute_line(line)); // NOTE: $J= is ignored inside g-code parser and used to detec
 517              		.loc 1 118 0 is_stmt 1
 518 003e A378     		ldrb	r3, [r4, #2]	@ zero_extendqisi2
 519 0040 3D2B     		cmp	r3, #61
 520 0042 40F09F81 		bne	.L86
 119:system.c      ****       break;
 521              		.loc 1 119 0
 522 0046 2046     		mov	r0, r4
 523              	.LVL45:
 524 0048 FFF7FEFF 		bl	gc_execute_line
 525              	.LVL46:
 526 004c 0546     		mov	r5, r0
 527 004e D2E1     		b	.L51
 528              	.LVL47:
 529              	.L47:
 122:system.c      ****       switch( line[1] ) {
 530              		.loc 1 122 0
 531 0050 A378     		ldrb	r3, [r4, #2]	@ zero_extendqisi2
 532 0052 002B     		cmp	r3, #0
 533 0054 40F09881 		bne	.L87
 123:system.c      ****         case '$' : // Prints Grbl settings
 534              		.loc 1 123 0
 535 0058 6378     		ldrb	r3, [r4, #1]	@ zero_extendqisi2
 536 005a 432B     		cmp	r3, #67
 537 005c 15D0     		beq	.L53
 538 005e 02D8     		bhi	.L54
 539 0060 242B     		cmp	r3, #36
 540 0062 05D0     		beq	.L55
 541 0064 92E1     		b	.L88
 542              	.L54:
 543 0066 472B     		cmp	r3, #71
 544 0068 0BD0     		beq	.L56
 545 006a 582B     		cmp	r3, #88
 546 006c 22D0     		beq	.L57
 547 006e 8DE1     		b	.L88
 548              	.L55:
 125:system.c      ****           else { report_grbl_settings(); }
ARM GAS  C:\Users\miker\AppData\Local\Temp\cciqYobe.s 			page 17


 549              		.loc 1 125 0
 550 0070 9A4B     		ldr	r3, .L122
 551 0072 1D78     		ldrb	r5, [r3]	@ zero_extendqisi2
 552 0074 15F01805 		ands	r5, r5, #24
 553 0078 40F08A81 		bne	.L89
 126:system.c      ****           break;
 554              		.loc 1 126 0
 555 007c FFF7FEFF 		bl	report_grbl_settings
 556              	.LVL48:
 127:system.c      ****         case 'G' : // Prints gcode parser state
 557              		.loc 1 127 0
 558 0080 B9E1     		b	.L51
 559              	.LVL49:
 560              	.L56:
 130:system.c      ****           break;
 561              		.loc 1 130 0
 562 0082 FFF7FEFF 		bl	report_gcode_modes
 563              	.LVL50:
 260:system.c      **** }
 564              		.loc 1 260 0
 565 0086 0025     		movs	r5, #0
 131:system.c      ****         case 'C' : // Set check g-code mode [IDLE/CHECK]
 566              		.loc 1 131 0
 567 0088 B5E1     		b	.L51
 568              	.LVL51:
 569              	.L53:
 136:system.c      ****             mc_reset();
 570              		.loc 1 136 0
 571 008a 944B     		ldr	r3, .L122
 572 008c 1D78     		ldrb	r5, [r3]	@ zero_extendqisi2
 573 008e 022D     		cmp	r5, #2
 574 0090 06D1     		bne	.L58
 137:system.c      ****             report_feedback_message(MESSAGE_DISABLED);
 575              		.loc 1 137 0
 576 0092 FFF7FEFF 		bl	mc_reset
 577              	.LVL52:
 138:system.c      ****           } else {
 578              		.loc 1 138 0
 579 0096 0520     		movs	r0, #5
 580 0098 FFF7FEFF 		bl	report_feedback_message
 581              	.LVL53:
 260:system.c      **** }
 582              		.loc 1 260 0
 583 009c 0025     		movs	r5, #0
 584 009e AAE1     		b	.L51
 585              	.LVL54:
 586              	.L58:
 140:system.c      ****             sys.state = STATE_CHECK_MODE;
 587              		.loc 1 140 0
 588 00a0 002D     		cmp	r5, #0
 589 00a2 40F07781 		bne	.L90
 141:system.c      ****             report_feedback_message(MESSAGE_ENABLED);
 590              		.loc 1 141 0
 591 00a6 0222     		movs	r2, #2
 592 00a8 8C4B     		ldr	r3, .L122
 593 00aa 1A70     		strb	r2, [r3]
 142:system.c      ****           }
ARM GAS  C:\Users\miker\AppData\Local\Temp\cciqYobe.s 			page 18


 594              		.loc 1 142 0
 595 00ac 0420     		movs	r0, #4
 596              	.LVL55:
 597 00ae FFF7FEFF 		bl	report_feedback_message
 598              	.LVL56:
 599 00b2 A0E1     		b	.L51
 600              	.LVL57:
 601              	.L57:
 146:system.c      ****             // Block if safety door is ajar.
 602              		.loc 1 146 0
 603 00b4 894B     		ldr	r3, .L122
 604 00b6 1B78     		ldrb	r3, [r3]	@ zero_extendqisi2
 605 00b8 012B     		cmp	r3, #1
 606 00ba 40F06D81 		bne	.L91
 148:system.c      ****             report_feedback_message(MESSAGE_ALARM_UNLOCK);
 607              		.loc 1 148 0
 608 00be FFF7FEFF 		bl	system_check_safety_door_ajar
 609              	.LVL58:
 610 00c2 0546     		mov	r5, r0
 611 00c4 0028     		cmp	r0, #0
 612 00c6 40F06981 		bne	.L92
 149:system.c      ****             sys.state = STATE_IDLE;
 613              		.loc 1 149 0
 614 00ca 0320     		movs	r0, #3
 615 00cc FFF7FEFF 		bl	report_feedback_message
 616              	.LVL59:
 150:system.c      ****             // Don't run startup script. Prevents stored moves in startup from causing accidents.
 617              		.loc 1 150 0
 618 00d0 0022     		movs	r2, #0
 619 00d2 824B     		ldr	r3, .L122
 620 00d4 1A70     		strb	r2, [r3]
 621 00d6 8EE1     		b	.L51
 622              	.LVL60:
 623              	.L46:
 158:system.c      ****       switch( line[1] ) {
 624              		.loc 1 158 0
 625 00d8 804B     		ldr	r3, .L122
 626 00da 1B78     		ldrb	r3, [r3]	@ zero_extendqisi2
 627 00dc 012B     		cmp	r3, #1
 628 00de 00F25F81 		bhi	.L93
 159:system.c      ****         case '#' : // Print Grbl NGC parameters
 629              		.loc 1 159 0
 630 00e2 6278     		ldrb	r2, [r4, #1]	@ zero_extendqisi2
 631 00e4 233A     		subs	r2, r2, #35
 632 00e6 302A     		cmp	r2, #48
 633 00e8 00F2FC80 		bhi	.L94
 634 00ec DFE812F0 		tbh	[pc, r2, lsl #1]
 635              	.L61:
 636 00f0 3100     		.2byte	(.L60-.L61)/2
 637 00f2 FA00     		.2byte	(.L94-.L61)/2
 638 00f4 FA00     		.2byte	(.L94-.L61)/2
 639 00f6 FA00     		.2byte	(.L94-.L61)/2
 640 00f8 FA00     		.2byte	(.L94-.L61)/2
 641 00fa FA00     		.2byte	(.L94-.L61)/2
 642 00fc FA00     		.2byte	(.L94-.L61)/2
 643 00fe FA00     		.2byte	(.L94-.L61)/2
 644 0100 FA00     		.2byte	(.L94-.L61)/2
ARM GAS  C:\Users\miker\AppData\Local\Temp\cciqYobe.s 			page 19


 645 0102 FA00     		.2byte	(.L94-.L61)/2
 646 0104 FA00     		.2byte	(.L94-.L61)/2
 647 0106 FA00     		.2byte	(.L94-.L61)/2
 648 0108 FA00     		.2byte	(.L94-.L61)/2
 649 010a FA00     		.2byte	(.L94-.L61)/2
 650 010c FA00     		.2byte	(.L94-.L61)/2
 651 010e FA00     		.2byte	(.L94-.L61)/2
 652 0110 FA00     		.2byte	(.L94-.L61)/2
 653 0112 FA00     		.2byte	(.L94-.L61)/2
 654 0114 FA00     		.2byte	(.L94-.L61)/2
 655 0116 FA00     		.2byte	(.L94-.L61)/2
 656 0118 FA00     		.2byte	(.L94-.L61)/2
 657 011a FA00     		.2byte	(.L94-.L61)/2
 658 011c FA00     		.2byte	(.L94-.L61)/2
 659 011e FA00     		.2byte	(.L94-.L61)/2
 660 0120 FA00     		.2byte	(.L94-.L61)/2
 661 0122 FA00     		.2byte	(.L94-.L61)/2
 662 0124 FA00     		.2byte	(.L94-.L61)/2
 663 0126 FA00     		.2byte	(.L94-.L61)/2
 664 0128 FA00     		.2byte	(.L94-.L61)/2
 665 012a FA00     		.2byte	(.L94-.L61)/2
 666 012c FA00     		.2byte	(.L94-.L61)/2
 667 012e FA00     		.2byte	(.L94-.L61)/2
 668 0130 FA00     		.2byte	(.L94-.L61)/2
 669 0132 FA00     		.2byte	(.L94-.L61)/2
 670 0134 FA00     		.2byte	(.L94-.L61)/2
 671 0136 FA00     		.2byte	(.L94-.L61)/2
 672 0138 FA00     		.2byte	(.L94-.L61)/2
 673 013a 3900     		.2byte	(.L62-.L61)/2
 674 013c 8600     		.2byte	(.L63-.L61)/2
 675 013e FA00     		.2byte	(.L94-.L61)/2
 676 0140 FA00     		.2byte	(.L94-.L61)/2
 677 0142 FA00     		.2byte	(.L94-.L61)/2
 678 0144 FA00     		.2byte	(.L94-.L61)/2
 679 0146 D500     		.2byte	(.L64-.L61)/2
 680 0148 FA00     		.2byte	(.L94-.L61)/2
 681 014a FA00     		.2byte	(.L94-.L61)/2
 682 014c FA00     		.2byte	(.L94-.L61)/2
 683 014e AA00     		.2byte	(.L65-.L61)/2
 684 0150 7500     		.2byte	(.L66-.L61)/2
 685              		.p2align 1
 686              	.L60:
 161:system.c      ****           else { report_ngc_parameters(); }
 687              		.loc 1 161 0
 688 0152 A378     		ldrb	r3, [r4, #2]	@ zero_extendqisi2
 689 0154 002B     		cmp	r3, #0
 690 0156 40F02581 		bne	.L95
 162:system.c      ****           break;
 691              		.loc 1 162 0
 692 015a FFF7FEFF 		bl	report_ngc_parameters
 693              	.LVL61:
 260:system.c      **** }
 694              		.loc 1 260 0
 695 015e 0025     		movs	r5, #0
 163:system.c      ****         case 'H' : // Perform homing cycle [IDLE/ALARM]
 696              		.loc 1 163 0
 697 0160 49E1     		b	.L51
ARM GAS  C:\Users\miker\AppData\Local\Temp\cciqYobe.s 			page 20


 698              	.LVL62:
 699              	.L62:
 165:system.c      ****           if (system_check_safety_door_ajar()) { return(STATUS_CHECK_DOOR); } // Block if safety do
 700              		.loc 1 165 0
 701 0162 5F4B     		ldr	r3, .L122+4
 702 0164 93F84830 		ldrb	r3, [r3, #72]	@ zero_extendqisi2
 703 0168 13F0100F 		tst	r3, #16
 704 016c 00F01C81 		beq	.L96
 166:system.c      ****           sys.state = STATE_HOMING; // Set system state variable
 705              		.loc 1 166 0
 706 0170 FFF7FEFF 		bl	system_check_safety_door_ajar
 707              	.LVL63:
 708 0174 0646     		mov	r6, r0
 709 0176 0028     		cmp	r0, #0
 710 0178 40F01881 		bne	.L97
 167:system.c      ****           if (line[2] == 0) {
 711              		.loc 1 167 0
 712 017c 0422     		movs	r2, #4
 713 017e 574B     		ldr	r3, .L122
 714 0180 1A70     		strb	r2, [r3]
 168:system.c      ****             mc_homing_cycle(HOMING_CYCLE_ALL);
 715              		.loc 1 168 0
 716 0182 A378     		ldrb	r3, [r4, #2]	@ zero_extendqisi2
 717 0184 13B9     		cbnz	r3, .L67
 169:system.c      ****           #ifdef HOMING_SINGLE_AXIS_COMMANDS
 718              		.loc 1 169 0
 719 0186 FFF7FEFF 		bl	mc_homing_cycle
 720              	.LVL64:
 721 018a 15E0     		b	.L68
 722              	.L67:
 171:system.c      ****               switch (line[2]) {
 723              		.loc 1 171 0
 724 018c E278     		ldrb	r2, [r4, #3]	@ zero_extendqisi2
 725 018e 002A     		cmp	r2, #0
 726 0190 40F00E81 		bne	.L98
 172:system.c      ****                 case 'X': mc_homing_cycle(HOMING_CYCLE_X); break;
 727              		.loc 1 172 0
 728 0194 592B     		cmp	r3, #89
 729 0196 08D0     		beq	.L69
 730 0198 5A2B     		cmp	r3, #90
 731 019a 0AD0     		beq	.L70
 732 019c 582B     		cmp	r3, #88
 733 019e 40F00981 		bne	.L118
 173:system.c      ****                 case 'Y': mc_homing_cycle(HOMING_CYCLE_Y); break;
 734              		.loc 1 173 0
 735 01a2 0120     		movs	r0, #1
 736 01a4 FFF7FEFF 		bl	mc_homing_cycle
 737              	.LVL65:
 738 01a8 06E0     		b	.L68
 739              	.L69:
 174:system.c      ****                 case 'Z': mc_homing_cycle(HOMING_CYCLE_Z); break;
 740              		.loc 1 174 0
 741 01aa 0220     		movs	r0, #2
 742 01ac FFF7FEFF 		bl	mc_homing_cycle
 743              	.LVL66:
 744 01b0 02E0     		b	.L68
 745              	.L70:
ARM GAS  C:\Users\miker\AppData\Local\Temp\cciqYobe.s 			page 21


 175:system.c      ****                 default: return(STATUS_INVALID_STATEMENT);
 746              		.loc 1 175 0
 747 01b2 0420     		movs	r0, #4
 748 01b4 FFF7FEFF 		bl	mc_homing_cycle
 749              	.LVL67:
 750              	.L68:
 180:system.c      ****             sys.state = STATE_IDLE; // Set to IDLE when complete.
 751              		.loc 1 180 0
 752 01b8 484B     		ldr	r3, .L122
 753 01ba 5D78     		ldrb	r5, [r3, #1]	@ zero_extendqisi2
 754 01bc 002D     		cmp	r5, #0
 755 01be 40F0FB80 		bne	.L100
 181:system.c      ****             st_go_idle(); // Set steppers to the settings idle state before returning.
 756              		.loc 1 181 0
 757 01c2 0022     		movs	r2, #0
 758 01c4 1A70     		strb	r2, [r3]
 182:system.c      ****             if (line[2] == 0) { system_execute_startup(line); }
 759              		.loc 1 182 0
 760 01c6 FFF7FEFF 		bl	st_go_idle
 761              	.LVL68:
 183:system.c      ****           }
 762              		.loc 1 183 0
 763 01ca A378     		ldrb	r3, [r4, #2]	@ zero_extendqisi2
 764 01cc 002B     		cmp	r3, #0
 765 01ce 40F01281 		bne	.L51
 183:system.c      ****           }
 766              		.loc 1 183 0 is_stmt 0 discriminator 1
 767 01d2 2046     		mov	r0, r4
 768 01d4 FFF7FEFF 		bl	system_execute_startup
 769              	.LVL69:
 770 01d8 0DE1     		b	.L51
 771              	.LVL70:
 772              	.L66:
 187:system.c      ****           system_set_exec_state_flag(EXEC_SLEEP); // Set to execute sleep mode immediately
 773              		.loc 1 187 0 is_stmt 1
 774 01da A378     		ldrb	r3, [r4, #2]	@ zero_extendqisi2
 775 01dc 4C2B     		cmp	r3, #76
 776 01de 40F0ED80 		bne	.L101
 187:system.c      ****           system_set_exec_state_flag(EXEC_SLEEP); // Set to execute sleep mode immediately
 777              		.loc 1 187 0 is_stmt 0 discriminator 2
 778 01e2 E378     		ldrb	r3, [r4, #3]	@ zero_extendqisi2
 779 01e4 502B     		cmp	r3, #80
 780 01e6 40F0EB80 		bne	.L102
 187:system.c      ****           system_set_exec_state_flag(EXEC_SLEEP); // Set to execute sleep mode immediately
 781              		.loc 1 187 0 discriminator 4
 782 01ea 2379     		ldrb	r3, [r4, #4]	@ zero_extendqisi2
 783 01ec 002B     		cmp	r3, #0
 784 01ee 40F0E980 		bne	.L103
 188:system.c      ****           break;
 785              		.loc 1 188 0 is_stmt 1
 786 01f2 8020     		movs	r0, #128
 787              	.LVL71:
 788 01f4 FFF7FEFF 		bl	system_set_exec_state_flag
 789              	.LVL72:
 260:system.c      **** }
 790              		.loc 1 260 0
 791 01f8 0025     		movs	r5, #0
ARM GAS  C:\Users\miker\AppData\Local\Temp\cciqYobe.s 			page 22


 189:system.c      ****         case 'I' : // Print or store build info. [IDLE/ALARM]
 792              		.loc 1 189 0
 793 01fa FCE0     		b	.L51
 794              	.LVL73:
 795              	.L63:
 191:system.c      ****             settings_read_build_info(line);
 796              		.loc 1 191 0
 797 01fc 0223     		movs	r3, #2
 798 01fe 8DF80F30 		strb	r3, [sp, #15]
 799 0202 A378     		ldrb	r3, [r4, #2]	@ zero_extendqisi2
 800 0204 3BB9     		cbnz	r3, .L72
 192:system.c      ****             report_build_info(line);
 801              		.loc 1 192 0
 802 0206 2046     		mov	r0, r4
 803              	.LVL74:
 804 0208 FFF7FEFF 		bl	settings_read_build_info
 805              	.LVL75:
 193:system.c      ****           #ifdef ENABLE_BUILD_INFO_WRITE_COMMAND
 806              		.loc 1 193 0
 807 020c 2046     		mov	r0, r4
 808 020e FFF7FEFF 		bl	report_build_info
 809              	.LVL76:
 260:system.c      **** }
 810              		.loc 1 260 0
 811 0212 0025     		movs	r5, #0
 812 0214 EFE0     		b	.L51
 813              	.LVL77:
 814              	.L72:
 196:system.c      ****               helper_var = char_counter; // Set helper variable as counter to start of user info li
 815              		.loc 1 196 0
 816 0216 0323     		movs	r3, #3
 817 0218 8DF80F30 		strb	r3, [sp, #15]
 818 021c A378     		ldrb	r3, [r4, #2]	@ zero_extendqisi2
 819 021e 3D2B     		cmp	r3, #61
 820 0220 40F0D280 		bne	.L104
 821              	.L73:
 199:system.c      ****               } while (line[char_counter++] != 0);
 822              		.loc 1 199 0 discriminator 1
 823 0224 9DF80F30 		ldrb	r3, [sp, #15]	@ zero_extendqisi2
 824 0228 DA1E     		subs	r2, r3, #3
 825 022a E15C     		ldrb	r1, [r4, r3]	@ zero_extendqisi2
 826 022c A154     		strb	r1, [r4, r2]
 200:system.c      ****               settings_store_build_info(line);
 827              		.loc 1 200 0 discriminator 1
 828 022e 5A1C     		adds	r2, r3, #1
 829 0230 8DF80F20 		strb	r2, [sp, #15]
 830 0234 E35C     		ldrb	r3, [r4, r3]	@ zero_extendqisi2
 831 0236 002B     		cmp	r3, #0
 832 0238 F4D1     		bne	.L73
 201:system.c      ****           #endif
 833              		.loc 1 201 0
 834 023a 2046     		mov	r0, r4
 835              	.LVL78:
 836 023c FFF7FEFF 		bl	settings_store_build_info
 837              	.LVL79:
 260:system.c      **** }
 838              		.loc 1 260 0
ARM GAS  C:\Users\miker\AppData\Local\Temp\cciqYobe.s 			page 23


 839 0240 0025     		movs	r5, #0
 840 0242 D8E0     		b	.L51
 841              	.LVL80:
 842              	.L65:
 206:system.c      ****           switch (line[5]) {
 843              		.loc 1 206 0
 844 0244 A378     		ldrb	r3, [r4, #2]	@ zero_extendqisi2
 845 0246 532B     		cmp	r3, #83
 846 0248 40F0C080 		bne	.L105
 206:system.c      ****           switch (line[5]) {
 847              		.loc 1 206 0 is_stmt 0 discriminator 2
 848 024c E378     		ldrb	r3, [r4, #3]	@ zero_extendqisi2
 849 024e 542B     		cmp	r3, #84
 850 0250 40F0BE80 		bne	.L106
 206:system.c      ****           switch (line[5]) {
 851              		.loc 1 206 0 discriminator 4
 852 0254 2379     		ldrb	r3, [r4, #4]	@ zero_extendqisi2
 853 0256 3D2B     		cmp	r3, #61
 854 0258 40F0BC80 		bne	.L107
 206:system.c      ****           switch (line[5]) {
 855              		.loc 1 206 0 discriminator 6
 856 025c A379     		ldrb	r3, [r4, #6]	@ zero_extendqisi2
 857 025e 002B     		cmp	r3, #0
 858 0260 40F0BA80 		bne	.L108
 207:system.c      ****             #ifdef ENABLE_RESTORE_EEPROM_DEFAULT_SETTINGS
 859              		.loc 1 207 0 is_stmt 1
 860 0264 6379     		ldrb	r3, [r4, #5]	@ zero_extendqisi2
 861 0266 242B     		cmp	r3, #36
 862 0268 05D0     		beq	.L74
 863 026a 2A2B     		cmp	r3, #42
 864 026c 0BD0     		beq	.L75
 865 026e 232B     		cmp	r3, #35
 866 0270 40F0B480 		bne	.L119
 867 0274 03E0     		b	.L76
 868              	.L74:
 209:system.c      ****             #endif
 869              		.loc 1 209 0
 870 0276 0120     		movs	r0, #1
 871              	.LVL81:
 872 0278 FFF7FEFF 		bl	settings_restore
 873              	.LVL82:
 874 027c 06E0     		b	.L77
 875              	.LVL83:
 876              	.L76:
 212:system.c      ****             #endif
 877              		.loc 1 212 0
 878 027e 0220     		movs	r0, #2
 879              	.LVL84:
 880 0280 FFF7FEFF 		bl	settings_restore
 881              	.LVL85:
 882 0284 02E0     		b	.L77
 883              	.LVL86:
 884              	.L75:
 215:system.c      ****             #endif
 885              		.loc 1 215 0
 886 0286 FF20     		movs	r0, #255
 887              	.LVL87:
ARM GAS  C:\Users\miker\AppData\Local\Temp\cciqYobe.s 			page 24


 888 0288 FFF7FEFF 		bl	settings_restore
 889              	.LVL88:
 890              	.L77:
 219:system.c      ****           mc_reset(); // Force reset to ensure settings are initialized correctly.
 891              		.loc 1 219 0
 892 028c 0920     		movs	r0, #9
 893 028e FFF7FEFF 		bl	report_feedback_message
 894              	.LVL89:
 220:system.c      ****           break;
 895              		.loc 1 220 0
 896 0292 FFF7FEFF 		bl	mc_reset
 897              	.LVL90:
 260:system.c      **** }
 898              		.loc 1 260 0
 899 0296 0025     		movs	r5, #0
 221:system.c      ****         case 'N' : // Startup lines. [IDLE/ALARM]
 900              		.loc 1 221 0
 901 0298 ADE0     		b	.L51
 902              	.LVL91:
 903              	.L64:
 223:system.c      ****             for (helper_var=0; helper_var < N_STARTUP_LINE; helper_var++) {
 904              		.loc 1 223 0
 905 029a 0222     		movs	r2, #2
 906 029c 8DF80F20 		strb	r2, [sp, #15]
 907 02a0 A278     		ldrb	r2, [r4, #2]	@ zero_extendqisi2
 908 02a2 82B1     		cbz	r2, .L110
 909 02a4 14E0     		b	.L120
 910              	.LVL92:
 911              	.L82:
 225:system.c      ****                 report_status_message(STATUS_SETTING_READ_FAIL);
 912              		.loc 1 225 0
 913 02a6 2846     		mov	r0, r5
 914 02a8 2146     		mov	r1, r4
 915 02aa FFF7FEFF 		bl	settings_read_startup_line
 916              	.LVL93:
 917 02ae 18B9     		cbnz	r0, .L80
 226:system.c      ****               } else {
 918              		.loc 1 226 0
 919 02b0 0720     		movs	r0, #7
 920 02b2 FFF7FEFF 		bl	report_status_message
 921              	.LVL94:
 922 02b6 03E0     		b	.L81
 923              	.L80:
 228:system.c      ****               }
 924              		.loc 1 228 0
 925 02b8 2846     		mov	r0, r5
 926 02ba 2146     		mov	r1, r4
 927 02bc FFF7FEFF 		bl	report_startup_line
 928              	.LVL95:
 929              	.L81:
 224:system.c      ****               if (!(settings_read_startup_line(helper_var, line))) {
 930              		.loc 1 224 0 discriminator 2
 931 02c0 0135     		adds	r5, r5, #1
 932              	.LVL96:
 933 02c2 EDB2     		uxtb	r5, r5
 934              	.LVL97:
 935 02c4 00E0     		b	.L78
ARM GAS  C:\Users\miker\AppData\Local\Temp\cciqYobe.s 			page 25


 936              	.LVL98:
 937              	.L110:
 938 02c6 0025     		movs	r5, #0
 939              	.LVL99:
 940              	.L78:
 224:system.c      ****               if (!(settings_read_startup_line(helper_var, line))) {
 941              		.loc 1 224 0 is_stmt 0 discriminator 1
 942 02c8 012D     		cmp	r5, #1
 943 02ca ECD9     		bls	.L82
 260:system.c      **** }
 944              		.loc 1 260 0 is_stmt 1
 945 02cc 0025     		movs	r5, #0
 946              	.LVL100:
 947 02ce 92E0     		b	.L51
 948              	.LVL101:
 949              	.L120:
 233:system.c      ****             helper_var = true;  // Set helper_var to flag storing method.
 950              		.loc 1 233 0
 951 02d0 002B     		cmp	r3, #0
 952 02d2 40F08580 		bne	.L111
 234:system.c      ****             // No break. Continues into default: to read remaining command characters.
 953              		.loc 1 234 0
 954 02d6 0125     		movs	r5, #1
 955 02d8 05E0     		b	.L59
 956              	.L123:
 957 02da 00BF     		.align	2
 958              	.L122:
 959 02dc 00000000 		.word	sys
 960 02e0 00000000 		.word	settings
 961              	.L94:
 111:system.c      ****   float parameter, value;
 962              		.loc 1 111 0
 963 02e4 0025     		movs	r5, #0
 964              	.L59:
 965              	.LVL102:
 238:system.c      ****           if(line[char_counter++] != '=') { return(STATUS_INVALID_STATEMENT); }
 966              		.loc 1 238 0
 967 02e6 2046     		mov	r0, r4
 968              	.LVL103:
 969 02e8 0DF10F01 		add	r1, sp, #15
 970 02ec 02AA     		add	r2, sp, #8
 971 02ee FFF7FEFF 		bl	read_float
 972              	.LVL104:
 973 02f2 0028     		cmp	r0, #0
 974 02f4 76D0     		beq	.L112
 239:system.c      ****           if (helper_var) { // Store startup line
 975              		.loc 1 239 0
 976 02f6 9DF80F20 		ldrb	r2, [sp, #15]	@ zero_extendqisi2
 977 02fa 531C     		adds	r3, r2, #1
 978 02fc DBB2     		uxtb	r3, r3
 979 02fe 8DF80F30 		strb	r3, [sp, #15]
 980 0302 A25C     		ldrb	r2, [r4, r2]	@ zero_extendqisi2
 981 0304 3D2A     		cmp	r2, #61
 982 0306 6FD1     		bne	.L113
 240:system.c      ****             // Prepare sending gcode block to gcode parser by shifting all characters
 983              		.loc 1 240 0
 984 0308 EDB1     		cbz	r5, .L83
ARM GAS  C:\Users\miker\AppData\Local\Temp\cciqYobe.s 			page 26


 985              	.L84:
 244:system.c      ****             } while (line[char_counter++] != 0);
 986              		.loc 1 244 0 discriminator 1
 987 030a 9DF80F20 		ldrb	r2, [sp, #15]	@ zero_extendqisi2
 988 030e D11A     		subs	r1, r2, r3
 989 0310 A05C     		ldrb	r0, [r4, r2]	@ zero_extendqisi2
 990 0312 6054     		strb	r0, [r4, r1]
 245:system.c      ****             // Execute gcode block to ensure block is valid.
 991              		.loc 1 245 0 discriminator 1
 992 0314 511C     		adds	r1, r2, #1
 993 0316 8DF80F10 		strb	r1, [sp, #15]
 994 031a A25C     		ldrb	r2, [r4, r2]	@ zero_extendqisi2
 995 031c 002A     		cmp	r2, #0
 996 031e F4D1     		bne	.L84
 247:system.c      ****             if (helper_var) { return(helper_var); }
 997              		.loc 1 247 0
 998 0320 2046     		mov	r0, r4
 999 0322 FFF7FEFF 		bl	gc_execute_line
 1000              	.LVL105:
 248:system.c      ****             else {
 1001              		.loc 1 248 0
 1002 0326 0546     		mov	r5, r0
 1003 0328 0028     		cmp	r0, #0
 1004 032a 64D1     		bne	.L51
 250:system.c      ****               settings_store_startup_line(helper_var,line);
 1005              		.loc 1 250 0
 1006 032c 0298     		ldr	r0, [sp, #8]	@ float
 1007              	.LVL106:
 1008 032e FFF7FEFF 		bl	__aeabi_f2d
 1009              	.LVL107:
 1010 0332 FFF7FEFF 		bl	trunc
 1011              	.LVL108:
 1012 0336 FFF7FEFF 		bl	__aeabi_d2uiz
 1013              	.LVL109:
 251:system.c      ****             }
 1014              		.loc 1 251 0
 1015 033a C0B2     		uxtb	r0, r0
 1016 033c 2146     		mov	r1, r4
 1017 033e FFF7FEFF 		bl	settings_store_startup_line
 1018              	.LVL110:
 260:system.c      **** }
 1019              		.loc 1 260 0
 1020 0342 0025     		movs	r5, #0
 1021 0344 57E0     		b	.L51
 1022              	.LVL111:
 1023              	.L83:
 254:system.c      ****             if((line[char_counter] != 0) || (parameter > 255)) { return(STATUS_INVALID_STATEMENT); 
 1024              		.loc 1 254 0
 1025 0346 2046     		mov	r0, r4
 1026 0348 0DF10F01 		add	r1, sp, #15
 1027 034c 01AA     		add	r2, sp, #4
 1028 034e FFF7FEFF 		bl	read_float
 1029              	.LVL112:
 1030 0352 0028     		cmp	r0, #0
 1031 0354 4AD0     		beq	.L115
 255:system.c      ****             return(settings_store_global_setting((uint8_t)parameter, value));
 1032              		.loc 1 255 0
ARM GAS  C:\Users\miker\AppData\Local\Temp\cciqYobe.s 			page 27


 1033 0356 9DF80F30 		ldrb	r3, [sp, #15]	@ zero_extendqisi2
 1034 035a E35C     		ldrb	r3, [r4, r3]	@ zero_extendqisi2
 1035 035c 002B     		cmp	r3, #0
 1036 035e 47D1     		bne	.L116
 255:system.c      ****             return(settings_store_global_setting((uint8_t)parameter, value));
 1037              		.loc 1 255 0 is_stmt 0 discriminator 2
 1038 0360 029C     		ldr	r4, [sp, #8]	@ float
 1039              	.LVL113:
 1040 0362 2046     		mov	r0, r4
 1041 0364 2549     		ldr	r1, .L124
 1042 0366 FFF7FEFF 		bl	__aeabi_fcmpgt
 1043              	.LVL114:
 1044 036a 0028     		cmp	r0, #0
 1045 036c 42D1     		bne	.L117
 256:system.c      ****           }
 1046              		.loc 1 256 0 is_stmt 1
 1047 036e 2046     		mov	r0, r4
 1048 0370 FFF7FEFF 		bl	__aeabi_f2uiz
 1049              	.LVL115:
 1050 0374 C0B2     		uxtb	r0, r0
 1051 0376 0199     		ldr	r1, [sp, #4]	@ float
 1052 0378 FFF7FEFF 		bl	settings_store_global_setting
 1053              	.LVL116:
 1054 037c 0546     		mov	r5, r0
 1055              	.LVL117:
 1056 037e 3AE0     		b	.L51
 1057              	.LVL118:
 1058              	.L85:
 117:system.c      ****       if(line[2] != '=') { return(STATUS_INVALID_STATEMENT); }
 1059              		.loc 1 117 0
 1060 0380 0825     		movs	r5, #8
 1061 0382 38E0     		b	.L51
 1062              	.L86:
 118:system.c      ****       return(gc_execute_line(line)); // NOTE: $J= is ignored inside g-code parser and used to detec
 1063              		.loc 1 118 0
 1064 0384 0325     		movs	r5, #3
 1065 0386 36E0     		b	.L51
 1066              	.L87:
 122:system.c      ****       switch( line[1] ) {
 1067              		.loc 1 122 0
 1068 0388 0325     		movs	r5, #3
 1069 038a 34E0     		b	.L51
 1070              	.L88:
 260:system.c      **** }
 1071              		.loc 1 260 0
 1072 038c 0025     		movs	r5, #0
 1073 038e 32E0     		b	.L51
 1074              	.L89:
 125:system.c      ****           else { report_grbl_settings(); }
 1075              		.loc 1 125 0
 1076 0390 0825     		movs	r5, #8
 1077 0392 30E0     		b	.L51
 1078              	.L90:
 140:system.c      ****             sys.state = STATE_CHECK_MODE;
 1079              		.loc 1 140 0
 1080 0394 0825     		movs	r5, #8
 1081 0396 2EE0     		b	.L51
ARM GAS  C:\Users\miker\AppData\Local\Temp\cciqYobe.s 			page 28


 1082              	.L91:
 260:system.c      **** }
 1083              		.loc 1 260 0
 1084 0398 0025     		movs	r5, #0
 1085 039a 2CE0     		b	.L51
 1086              	.LVL119:
 1087              	.L92:
 148:system.c      ****             report_feedback_message(MESSAGE_ALARM_UNLOCK);
 1088              		.loc 1 148 0
 1089 039c 0D25     		movs	r5, #13
 1090 039e 2AE0     		b	.L51
 1091              	.LVL120:
 1092              	.L93:
 158:system.c      ****       switch( line[1] ) {
 1093              		.loc 1 158 0
 1094 03a0 0825     		movs	r5, #8
 1095 03a2 28E0     		b	.L51
 1096              	.L95:
 161:system.c      ****           else { report_ngc_parameters(); }
 1097              		.loc 1 161 0
 1098 03a4 0325     		movs	r5, #3
 1099 03a6 26E0     		b	.L51
 1100              	.L96:
 165:system.c      ****           if (system_check_safety_door_ajar()) { return(STATUS_CHECK_DOOR); } // Block if safety do
 1101              		.loc 1 165 0
 1102 03a8 0525     		movs	r5, #5
 1103 03aa 24E0     		b	.L51
 1104              	.LVL121:
 1105              	.L97:
 166:system.c      ****           sys.state = STATE_HOMING; // Set system state variable
 1106              		.loc 1 166 0
 1107 03ac 0D25     		movs	r5, #13
 1108 03ae 22E0     		b	.L51
 1109              	.L98:
 179:system.c      ****           if (!sys.abort) {  // Execute startup scripts after successful homing.
 1110              		.loc 1 179 0
 1111 03b0 0325     		movs	r5, #3
 1112 03b2 20E0     		b	.L51
 1113              	.L118:
 176:system.c      ****               }
 1114              		.loc 1 176 0
 1115 03b4 0325     		movs	r5, #3
 1116 03b6 1EE0     		b	.L51
 1117              	.L100:
 260:system.c      **** }
 1118              		.loc 1 260 0
 1119 03b8 3546     		mov	r5, r6
 1120 03ba 1CE0     		b	.L51
 1121              	.LVL122:
 1122              	.L101:
 187:system.c      ****           system_set_exec_state_flag(EXEC_SLEEP); // Set to execute sleep mode immediately
 1123              		.loc 1 187 0
 1124 03bc 0325     		movs	r5, #3
 1125 03be 1AE0     		b	.L51
 1126              	.L102:
 1127 03c0 0325     		movs	r5, #3
 1128 03c2 18E0     		b	.L51
ARM GAS  C:\Users\miker\AppData\Local\Temp\cciqYobe.s 			page 29


 1129              	.L103:
 1130 03c4 0325     		movs	r5, #3
 1131 03c6 16E0     		b	.L51
 1132              	.L104:
 196:system.c      ****               helper_var = char_counter; // Set helper variable as counter to start of user info li
 1133              		.loc 1 196 0
 1134 03c8 0325     		movs	r5, #3
 1135 03ca 14E0     		b	.L51
 1136              	.L105:
 206:system.c      ****           switch (line[5]) {
 1137              		.loc 1 206 0
 1138 03cc 0325     		movs	r5, #3
 1139 03ce 12E0     		b	.L51
 1140              	.L106:
 1141 03d0 0325     		movs	r5, #3
 1142 03d2 10E0     		b	.L51
 1143              	.L107:
 1144 03d4 0325     		movs	r5, #3
 1145 03d6 0EE0     		b	.L51
 1146              	.L108:
 1147 03d8 0325     		movs	r5, #3
 1148 03da 0CE0     		b	.L51
 1149              	.L119:
 217:system.c      ****           }
 1150              		.loc 1 217 0
 1151 03dc 0325     		movs	r5, #3
 1152 03de 0AE0     		b	.L51
 1153              	.L111:
 233:system.c      ****             helper_var = true;  // Set helper_var to flag storing method.
 1154              		.loc 1 233 0
 1155 03e0 0825     		movs	r5, #8
 1156 03e2 08E0     		b	.L51
 1157              	.LVL123:
 1158              	.L112:
 238:system.c      ****           if(line[char_counter++] != '=') { return(STATUS_INVALID_STATEMENT); }
 1159              		.loc 1 238 0
 1160 03e4 0225     		movs	r5, #2
 1161              	.LVL124:
 1162 03e6 06E0     		b	.L51
 1163              	.LVL125:
 1164              	.L113:
 239:system.c      ****           if (helper_var) { // Store startup line
 1165              		.loc 1 239 0
 1166 03e8 0325     		movs	r5, #3
 1167              	.LVL126:
 1168 03ea 04E0     		b	.L51
 1169              	.LVL127:
 1170              	.L115:
 254:system.c      ****             if((line[char_counter] != 0) || (parameter > 255)) { return(STATUS_INVALID_STATEMENT); 
 1171              		.loc 1 254 0
 1172 03ec 0225     		movs	r5, #2
 1173              	.LVL128:
 1174 03ee 02E0     		b	.L51
 1175              	.LVL129:
 1176              	.L116:
 255:system.c      ****             return(settings_store_global_setting((uint8_t)parameter, value));
 1177              		.loc 1 255 0
ARM GAS  C:\Users\miker\AppData\Local\Temp\cciqYobe.s 			page 30


 1178 03f0 0325     		movs	r5, #3
 1179              	.LVL130:
 1180 03f2 00E0     		b	.L51
 1181              	.LVL131:
 1182              	.L117:
 1183 03f4 0325     		movs	r5, #3
 1184              	.LVL132:
 1185              	.L51:
 261:system.c      **** 
 1186              		.loc 1 261 0
 1187 03f6 2846     		mov	r0, r5
 1188 03f8 04B0     		add	sp, sp, #16
 1189              		.cfi_def_cfa_offset 16
 1190              		@ sp needed
 1191 03fa 70BD     		pop	{r4, r5, r6, pc}
 1192              	.L125:
 1193              		.align	2
 1194              	.L124:
 1195 03fc 00007F43 		.word	1132396544
 1196              		.cfi_endproc
 1197              	.LFE68:
 1198              		.size	system_execute_line, .-system_execute_line
 1199              		.section	.text.system_clear_exec_state_flag,"ax",%progbits
 1200              		.align	2
 1201              		.global	system_clear_exec_state_flag
 1202              		.thumb
 1203              		.thumb_func
 1204              		.type	system_clear_exec_state_flag, %function
 1205              	system_clear_exec_state_flag:
 1206              	.LFB74:
 345:system.c      **** }
 346:system.c      **** 
 347:system.c      **** void system_clear_exec_state_flag(uint8_t mask) {
 1207              		.loc 1 347 0
 1208              		.cfi_startproc
 1209              		@ args = 0, pretend = 0, frame = 0
 1210              		@ frame_needed = 0, uses_anonymous_args = 0
 1211              		@ link register save eliminated.
 1212              	.LVL133:
 348:system.c      ****   CyGlobalIntDisable; 
 1213              		.loc 1 348 0
 1214              	@ 348 "system.c" 1
 1215 0000 72B6     		CPSID   i
 1216              	@ 0 "" 2
 349:system.c      ****   sys_rt_exec_state &= ~(mask);
 1217              		.loc 1 349 0
 1218              		.thumb
 1219 0002 034A     		ldr	r2, .L127
 1220 0004 1378     		ldrb	r3, [r2]	@ zero_extendqisi2
 1221 0006 23EA0000 		bic	r0, r3, r0
 1222              	.LVL134:
 1223 000a 1070     		strb	r0, [r2]
 350:system.c      ****   CyGlobalIntEnable;
 1224              		.loc 1 350 0
 1225              	@ 350 "system.c" 1
 1226 000c 62B6     		CPSIE   i
 1227              	@ 0 "" 2
ARM GAS  C:\Users\miker\AppData\Local\Temp\cciqYobe.s 			page 31


 1228              		.thumb
 1229 000e 7047     		bx	lr
 1230              	.L128:
 1231              		.align	2
 1232              	.L127:
 1233 0010 00000000 		.word	sys_rt_exec_state
 1234              		.cfi_endproc
 1235              	.LFE74:
 1236              		.size	system_clear_exec_state_flag, .-system_clear_exec_state_flag
 1237              		.section	.text.system_set_exec_alarm,"ax",%progbits
 1238              		.align	2
 1239              		.global	system_set_exec_alarm
 1240              		.thumb
 1241              		.thumb_func
 1242              		.type	system_set_exec_alarm, %function
 1243              	system_set_exec_alarm:
 1244              	.LFB75:
 351:system.c      **** }
 352:system.c      **** 
 353:system.c      **** void system_set_exec_alarm(uint8_t code) {
 1245              		.loc 1 353 0
 1246              		.cfi_startproc
 1247              		@ args = 0, pretend = 0, frame = 0
 1248              		@ frame_needed = 0, uses_anonymous_args = 0
 1249              		@ link register save eliminated.
 1250              	.LVL135:
 354:system.c      ****   CyGlobalIntDisable;  
 1251              		.loc 1 354 0
 1252              	@ 354 "system.c" 1
 1253 0000 72B6     		CPSID   i
 1254              	@ 0 "" 2
 355:system.c      ****   sys_rt_exec_alarm = code;
 1255              		.loc 1 355 0
 1256              		.thumb
 1257 0002 024B     		ldr	r3, .L130
 1258 0004 1870     		strb	r0, [r3]
 356:system.c      ****   CyGlobalIntEnable;
 1259              		.loc 1 356 0
 1260              	@ 356 "system.c" 1
 1261 0006 62B6     		CPSIE   i
 1262              	@ 0 "" 2
 1263              		.thumb
 1264 0008 7047     		bx	lr
 1265              	.L131:
 1266 000a 00BF     		.align	2
 1267              	.L130:
 1268 000c 00000000 		.word	sys_rt_exec_alarm
 1269              		.cfi_endproc
 1270              	.LFE75:
 1271              		.size	system_set_exec_alarm, .-system_set_exec_alarm
 1272              		.section	.text.system_clear_exec_alarm,"ax",%progbits
 1273              		.align	2
 1274              		.global	system_clear_exec_alarm
 1275              		.thumb
 1276              		.thumb_func
 1277              		.type	system_clear_exec_alarm, %function
 1278              	system_clear_exec_alarm:
ARM GAS  C:\Users\miker\AppData\Local\Temp\cciqYobe.s 			page 32


 1279              	.LFB76:
 357:system.c      **** }
 358:system.c      **** 
 359:system.c      **** void system_clear_exec_alarm() {
 1280              		.loc 1 359 0
 1281              		.cfi_startproc
 1282              		@ args = 0, pretend = 0, frame = 0
 1283              		@ frame_needed = 0, uses_anonymous_args = 0
 1284              		@ link register save eliminated.
 360:system.c      ****   CyGlobalIntDisable;
 1285              		.loc 1 360 0
 1286              	@ 360 "system.c" 1
 1287 0000 72B6     		CPSID   i
 1288              	@ 0 "" 2
 361:system.c      ****   sys_rt_exec_alarm = 0;
 1289              		.loc 1 361 0
 1290              		.thumb
 1291 0002 0022     		movs	r2, #0
 1292 0004 014B     		ldr	r3, .L133
 1293 0006 1A70     		strb	r2, [r3]
 362:system.c      ****   CyGlobalIntEnable;
 1294              		.loc 1 362 0
 1295              	@ 362 "system.c" 1
 1296 0008 62B6     		CPSIE   i
 1297              	@ 0 "" 2
 1298              		.thumb
 1299 000a 7047     		bx	lr
 1300              	.L134:
 1301              		.align	2
 1302              	.L133:
 1303 000c 00000000 		.word	sys_rt_exec_alarm
 1304              		.cfi_endproc
 1305              	.LFE76:
 1306              		.size	system_clear_exec_alarm, .-system_clear_exec_alarm
 1307              		.section	.text.system_set_exec_alarm_flag,"ax",%progbits
 1308              		.align	2
 1309              		.global	system_set_exec_alarm_flag
 1310              		.thumb
 1311              		.thumb_func
 1312              		.type	system_set_exec_alarm_flag, %function
 1313              	system_set_exec_alarm_flag:
 1314              	.LFB77:
 363:system.c      **** }
 364:system.c      **** 
 365:system.c      **** void system_set_exec_alarm_flag(uint8_t mask) {
 1315              		.loc 1 365 0
 1316              		.cfi_startproc
 1317              		@ args = 0, pretend = 0, frame = 0
 1318              		@ frame_needed = 0, uses_anonymous_args = 0
 1319              		@ link register save eliminated.
 1320              	.LVL136:
 366:system.c      ****   CyGlobalIntDisable;
 1321              		.loc 1 366 0
 1322              	@ 366 "system.c" 1
 1323 0000 72B6     		CPSID   i
 1324              	@ 0 "" 2
 367:system.c      ****   sys_rt_exec_alarm |= (mask);
ARM GAS  C:\Users\miker\AppData\Local\Temp\cciqYobe.s 			page 33


 1325              		.loc 1 367 0
 1326              		.thumb
 1327 0002 034B     		ldr	r3, .L136
 1328 0004 1A78     		ldrb	r2, [r3]	@ zero_extendqisi2
 1329 0006 1043     		orrs	r0, r0, r2
 1330              	.LVL137:
 1331 0008 1870     		strb	r0, [r3]
 368:system.c      ****   CyGlobalIntEnable;
 1332              		.loc 1 368 0
 1333              	@ 368 "system.c" 1
 1334 000a 62B6     		CPSIE   i
 1335              	@ 0 "" 2
 1336              		.thumb
 1337 000c 7047     		bx	lr
 1338              	.L137:
 1339 000e 00BF     		.align	2
 1340              	.L136:
 1341 0010 00000000 		.word	sys_rt_exec_alarm
 1342              		.cfi_endproc
 1343              	.LFE77:
 1344              		.size	system_set_exec_alarm_flag, .-system_set_exec_alarm_flag
 1345              		.section	.text.system_clear_exec_alarm_flag,"ax",%progbits
 1346              		.align	2
 1347              		.global	system_clear_exec_alarm_flag
 1348              		.thumb
 1349              		.thumb_func
 1350              		.type	system_clear_exec_alarm_flag, %function
 1351              	system_clear_exec_alarm_flag:
 1352              	.LFB78:
 369:system.c      **** }
 370:system.c      **** 
 371:system.c      **** void system_clear_exec_alarm_flag(uint8_t mask) {
 1353              		.loc 1 371 0
 1354              		.cfi_startproc
 1355              		@ args = 0, pretend = 0, frame = 0
 1356              		@ frame_needed = 0, uses_anonymous_args = 0
 1357              		@ link register save eliminated.
 1358              	.LVL138:
 372:system.c      ****   CyGlobalIntDisable; 
 1359              		.loc 1 372 0
 1360              	@ 372 "system.c" 1
 1361 0000 72B6     		CPSID   i
 1362              	@ 0 "" 2
 373:system.c      ****   sys_rt_exec_alarm &= ~(mask);
 1363              		.loc 1 373 0
 1364              		.thumb
 1365 0002 034A     		ldr	r2, .L139
 1366 0004 1378     		ldrb	r3, [r2]	@ zero_extendqisi2
 1367 0006 23EA0000 		bic	r0, r3, r0
 1368              	.LVL139:
 1369 000a 1070     		strb	r0, [r2]
 374:system.c      ****   CyGlobalIntEnable;
 1370              		.loc 1 374 0
 1371              	@ 374 "system.c" 1
 1372 000c 62B6     		CPSIE   i
 1373              	@ 0 "" 2
 1374              		.thumb
ARM GAS  C:\Users\miker\AppData\Local\Temp\cciqYobe.s 			page 34


 1375 000e 7047     		bx	lr
 1376              	.L140:
 1377              		.align	2
 1378              	.L139:
 1379 0010 00000000 		.word	sys_rt_exec_alarm
 1380              		.cfi_endproc
 1381              	.LFE78:
 1382              		.size	system_clear_exec_alarm_flag, .-system_clear_exec_alarm_flag
 1383              		.section	.text.system_set_exec_motion_override_flag,"ax",%progbits
 1384              		.align	2
 1385              		.global	system_set_exec_motion_override_flag
 1386              		.thumb
 1387              		.thumb_func
 1388              		.type	system_set_exec_motion_override_flag, %function
 1389              	system_set_exec_motion_override_flag:
 1390              	.LFB79:
 375:system.c      **** }
 376:system.c      **** 
 377:system.c      **** void system_set_exec_motion_override_flag(uint8_t mask) {
 1391              		.loc 1 377 0
 1392              		.cfi_startproc
 1393              		@ args = 0, pretend = 0, frame = 0
 1394              		@ frame_needed = 0, uses_anonymous_args = 0
 1395              		@ link register save eliminated.
 1396              	.LVL140:
 378:system.c      ****   CyGlobalIntDisable;
 1397              		.loc 1 378 0
 1398              	@ 378 "system.c" 1
 1399 0000 72B6     		CPSID   i
 1400              	@ 0 "" 2
 379:system.c      ****   sys_rt_exec_motion_override |= (mask);
 1401              		.loc 1 379 0
 1402              		.thumb
 1403 0002 034B     		ldr	r3, .L142
 1404 0004 1A78     		ldrb	r2, [r3]	@ zero_extendqisi2
 1405 0006 1043     		orrs	r0, r0, r2
 1406              	.LVL141:
 1407 0008 1870     		strb	r0, [r3]
 380:system.c      ****   CyGlobalIntEnable;
 1408              		.loc 1 380 0
 1409              	@ 380 "system.c" 1
 1410 000a 62B6     		CPSIE   i
 1411              	@ 0 "" 2
 1412              		.thumb
 1413 000c 7047     		bx	lr
 1414              	.L143:
 1415 000e 00BF     		.align	2
 1416              	.L142:
 1417 0010 00000000 		.word	sys_rt_exec_motion_override
 1418              		.cfi_endproc
 1419              	.LFE79:
 1420              		.size	system_set_exec_motion_override_flag, .-system_set_exec_motion_override_flag
 1421              		.section	.text.system_set_exec_accessory_override_flag,"ax",%progbits
 1422              		.align	2
 1423              		.global	system_set_exec_accessory_override_flag
 1424              		.thumb
 1425              		.thumb_func
ARM GAS  C:\Users\miker\AppData\Local\Temp\cciqYobe.s 			page 35


 1426              		.type	system_set_exec_accessory_override_flag, %function
 1427              	system_set_exec_accessory_override_flag:
 1428              	.LFB80:
 381:system.c      **** }
 382:system.c      **** 
 383:system.c      **** void system_set_exec_accessory_override_flag(uint8_t mask) {
 1429              		.loc 1 383 0
 1430              		.cfi_startproc
 1431              		@ args = 0, pretend = 0, frame = 0
 1432              		@ frame_needed = 0, uses_anonymous_args = 0
 1433              		@ link register save eliminated.
 1434              	.LVL142:
 384:system.c      ****   CyGlobalIntDisable;
 1435              		.loc 1 384 0
 1436              	@ 384 "system.c" 1
 1437 0000 72B6     		CPSID   i
 1438              	@ 0 "" 2
 385:system.c      ****   sys_rt_exec_accessory_override |= (mask);
 1439              		.loc 1 385 0
 1440              		.thumb
 1441 0002 034B     		ldr	r3, .L145
 1442 0004 1A78     		ldrb	r2, [r3]	@ zero_extendqisi2
 1443 0006 1043     		orrs	r0, r0, r2
 1444              	.LVL143:
 1445 0008 1870     		strb	r0, [r3]
 386:system.c      ****   CyGlobalIntEnable;
 1446              		.loc 1 386 0
 1447              	@ 386 "system.c" 1
 1448 000a 62B6     		CPSIE   i
 1449              	@ 0 "" 2
 1450              		.thumb
 1451 000c 7047     		bx	lr
 1452              	.L146:
 1453 000e 00BF     		.align	2
 1454              	.L145:
 1455 0010 00000000 		.word	sys_rt_exec_accessory_override
 1456              		.cfi_endproc
 1457              	.LFE80:
 1458              		.size	system_set_exec_accessory_override_flag, .-system_set_exec_accessory_override_flag
 1459              		.section	.text.system_clear_exec_motion_overrides,"ax",%progbits
 1460              		.align	2
 1461              		.global	system_clear_exec_motion_overrides
 1462              		.thumb
 1463              		.thumb_func
 1464              		.type	system_clear_exec_motion_overrides, %function
 1465              	system_clear_exec_motion_overrides:
 1466              	.LFB81:
 387:system.c      **** }
 388:system.c      **** 
 389:system.c      **** void system_clear_exec_motion_overrides() {
 1467              		.loc 1 389 0
 1468              		.cfi_startproc
 1469              		@ args = 0, pretend = 0, frame = 0
 1470              		@ frame_needed = 0, uses_anonymous_args = 0
 1471              		@ link register save eliminated.
 390:system.c      ****   CyGlobalIntDisable;
 1472              		.loc 1 390 0
ARM GAS  C:\Users\miker\AppData\Local\Temp\cciqYobe.s 			page 36


 1473              	@ 390 "system.c" 1
 1474 0000 72B6     		CPSID   i
 1475              	@ 0 "" 2
 391:system.c      ****   sys_rt_exec_motion_override = 0;
 1476              		.loc 1 391 0
 1477              		.thumb
 1478 0002 0022     		movs	r2, #0
 1479 0004 014B     		ldr	r3, .L148
 1480 0006 1A70     		strb	r2, [r3]
 392:system.c      ****   CyGlobalIntEnable;
 1481              		.loc 1 392 0
 1482              	@ 392 "system.c" 1
 1483 0008 62B6     		CPSIE   i
 1484              	@ 0 "" 2
 1485              		.thumb
 1486 000a 7047     		bx	lr
 1487              	.L149:
 1488              		.align	2
 1489              	.L148:
 1490 000c 00000000 		.word	sys_rt_exec_motion_override
 1491              		.cfi_endproc
 1492              	.LFE81:
 1493              		.size	system_clear_exec_motion_overrides, .-system_clear_exec_motion_overrides
 1494              		.section	.text.system_clear_exec_accessory_overrides,"ax",%progbits
 1495              		.align	2
 1496              		.global	system_clear_exec_accessory_overrides
 1497              		.thumb
 1498              		.thumb_func
 1499              		.type	system_clear_exec_accessory_overrides, %function
 1500              	system_clear_exec_accessory_overrides:
 1501              	.LFB82:
 393:system.c      **** }
 394:system.c      **** 
 395:system.c      **** void system_clear_exec_accessory_overrides() {
 1502              		.loc 1 395 0
 1503              		.cfi_startproc
 1504              		@ args = 0, pretend = 0, frame = 0
 1505              		@ frame_needed = 0, uses_anonymous_args = 0
 1506              		@ link register save eliminated.
 396:system.c      ****   CyGlobalIntDisable;
 1507              		.loc 1 396 0
 1508              	@ 396 "system.c" 1
 1509 0000 72B6     		CPSID   i
 1510              	@ 0 "" 2
 397:system.c      ****   sys_rt_exec_accessory_override = 0;
 1511              		.loc 1 397 0
 1512              		.thumb
 1513 0002 0022     		movs	r2, #0
 1514 0004 014B     		ldr	r3, .L151
 1515 0006 1A70     		strb	r2, [r3]
 398:system.c      ****   CyGlobalIntEnable;
 1516              		.loc 1 398 0
 1517              	@ 398 "system.c" 1
 1518 0008 62B6     		CPSIE   i
 1519              	@ 0 "" 2
 1520              		.thumb
 1521 000a 7047     		bx	lr
ARM GAS  C:\Users\miker\AppData\Local\Temp\cciqYobe.s 			page 37


 1522              	.L152:
 1523              		.align	2
 1524              	.L151:
 1525 000c 00000000 		.word	sys_rt_exec_accessory_override
 1526              		.cfi_endproc
 1527              	.LFE82:
 1528              		.size	system_clear_exec_accessory_overrides, .-system_clear_exec_accessory_overrides
 1529              		.comm	exec_lcd_status,1,1
 1530              		.comm	sys_rt_exec_accessory_override,1,1
 1531              		.comm	sys_rt_exec_motion_override,1,1
 1532              		.comm	sys_rt_exec_alarm,1,1
 1533              		.comm	sys_rt_exec_state,1,1
 1534              		.comm	sys_probe_state,1,1
 1535              		.comm	sys_probe_position,12,4
 1536              		.comm	sys_position,12,4
 1537              		.text
 1538              	.Letext0:
 1539              		.file 2 "c:\\program files (x86)\\cypress\\psoc creator\\4.0\\psoc creator\\import\\gnu\\arm\\4.9.
 1540              		.file 3 "c:\\program files (x86)\\cypress\\psoc creator\\4.0\\psoc creator\\import\\gnu\\arm\\4.9.
 1541              		.file 4 "Generated_Source\\PSoC5/cytypes.h"
 1542              		.file 5 "settings.h"
 1543              		.file 6 "system.h"
 1544              		.file 7 "Generated_Source\\PSoC5/core_cm3.h"
 1545              		.file 8 "lcd_report.h"
 1546              		.file 9 "Generated_Source\\PSoC5/Status_Control.h"
 1547              		.file 10 "Generated_Source\\PSoC5/isr_Control.h"
 1548              		.file 11 "report.h"
 1549              		.file 12 "gcode.h"
 1550              		.file 13 "motion_control.h"
 1551              		.file 14 "protocol.h"
 1552              		.file 15 "stepper.h"
 1553              		.file 16 "nuts_bolts.h"
 1554              		.file 17 "c:\\program files (x86)\\cypress\\psoc creator\\4.0\\psoc creator\\import\\gnu\\arm\\4.9